0047A18C: 55                       PUSH EBP
0047A18D: 8BEC                     MOV EBP, ESP
0047A18F: 83C4F0                   ADD ESP, FFFFFFF0H
0047A192: B8949F4700               MOV EAX, 00479F94H
0047A197: E8A0BDF8FF               CALL 00405F3CH
0047A19C: A1A0C14700               MOV EAX, [47C1A0H]
0047A1A1: 8B00                     MOV EAX, [EAX]
0047A1A3: E87851FEFF               CALL 0045F320H
0047A1A8: 8B0D9CC24700             MOV ECX, [0047C29CH]
0047A1AE: A1A0C14700               MOV EAX, [47C1A0H]
0047A1B3: 8B00                     MOV EAX, [EAX]
0047A1B5: 8B15787C4600             MOV EDX, [00467C78H]
0047A1BB: E87851FEFF               CALL 0045F338H
0047A1C0: A1A0C14700               MOV EAX, [47C1A0H]
0047A1C5: 8B00                     MOV EAX, [EAX]
0047A1C7: E8EC51FEFF               CALL 0045F3B8H
0047A1CC: E85F9EF8FF               CALL 00404030H
0047A1D1: 8D4000                   LEA EAX, [EAX]
0047A1D4: 0000                     ADD [EAX], AL
0047A1D6: 0000                     ADD [EAX], AL
0047A1D8: 0000                     ADD [EAX], AL
0047A1DA: 0000                     ADD [EAX], AL
0047A1DC: 0000                     ADD [EAX], AL
0047A1DE: 0000                     ADD [EAX], AL
0047A1E0: 0000                     ADD [EAX], AL
0047A1E2: 0000                     ADD [EAX], AL
0047A1E4: 0000                     ADD [EAX], AL
0047A1E6: 0000                     ADD [EAX], AL
0047A1E8: 0000                     ADD [EAX], AL
0047A1EA: 0000                     ADD [EAX], AL
0047A1EC: 0000                     ADD [EAX], AL
0047A1EE: 0000                     ADD [EAX], AL
0047A1F0: 0000                     ADD [EAX], AL
0047A1F2: 0000                     ADD [EAX], AL
0047A1F4: 0000                     ADD [EAX], AL
0047A1F6: 0000                     ADD [EAX], AL
0047A1F8: 0000                     ADD [EAX], AL
0047A1FA: 0000                     ADD [EAX], AL
0047A1FC: 0000                     ADD [EAX], AL
0047A1FE: 0000                     ADD [EAX], AL
0047A200: 0000                     ADD [EAX], AL
0047A202: 0000                     ADD [EAX], AL
0047A204: 0000                     ADD [EAX], AL
0047A206: 0000                     ADD [EAX], AL
0047A208: 028D40000000             ADD CL, [EBP+00000040H]
0047A20E: 0000                     ADD [EAX], AL
0047A210: 0000                     ADD [EAX], AL
0047A212: 0000                     ADD [EAX], AL
0047A214: 0000                     ADD [EAX], AL
0047A216: 0000                     ADD [EAX], AL
0047A218: 0000                     ADD [EAX], AL
0047A21A: 0000                     ADD [EAX], AL
0047A21C: 0000                     ADD [EAX], AL
0047A21E: 0000                     ADD [EAX], AL
0047A220: 3213                     XOR DL, [EBX]
0047A222: 8BC0                     MOV EAX, EAX
0047A224: 0200                     ADD AL, [EAX]
0047A226: 8BC0                     MOV EAX, EAX
0047A228: 008D4000008D             ADD [EBP-72FFFFC0H], CL
0047A22E: 40                       INC EAX
0047A22F: 0000                     ADD [EAX], AL
0047A231: 8D4000                   LEA EAX, [EAX]
0047A234: 0000                     ADD [EAX], AL
0047A236: 0000                     ADD [EAX], AL
0047A238: 0000                     ADD [EAX], AL
0047A23A: 0000                     ADD [EAX], AL
0047A23C: 0021                     ADD [ECX], AH
0047A23E: 40                       INC EAX
0047A23F: 009022400010             ADD [EAX+10004022H], DL
0047A245: 2640                     INC EAX
0047A247: 0000                     ADD [EAX], AL
0047A249: CB                       RETF 
0047A24A: CC                       INT 3 
0047A24B: C8C9D7CF                 ENTER D7C9H, CFH
0047A24F: C8CDCEDB                 ENTER CECDH, DBH
0047A253: D8DA                     FCOMP ST(2)
0047A255: D9CA                     FXCH ST(2)
0047A257: DCDD                     FCOMP 
0047A259: DEDF                     INVALID
0047A25B: E0E1                     LOOPNZ 47A23EH
0047A25D: E300                     JECXZ 47A25FH
0047A25F: E4E5                     IN AL, E5H
0047A261: 8D4000                   LEA EAX, [EAX]
0047A264: 45                       INC EBP
0047A265: 7272                     JB 47A2D9H
0047A267: 6F                       OUTSD 
0047A268: 7200                     JB 47A26AH
0047A26A: 8BC0                     MOV EAX, EAX
0047A26C: 52                       PUSH EDX
0047A26D: 756E                     JNZ 47A2DDH
0047A26F: 7469                     JZ 47A2DAH
0047A271: 6D                       INSD 
0047A272: 65206572                 AND GS:[EBP+72H], AH
0047A276: 726F                     JB 47A2E7H
0047A278: 7220                     JB 47A29AH
0047A27A: 2020                     AND [EAX], AH
0047A27C: 2020                     AND [EAX], AH
0047A27E: 61                       POPAD 
0047A27F: 7420                     JZ 47A2A1H
0047A281: 3030                     XOR [EAX], DH
0047A283: 3030                     XOR [EAX], DH
0047A285: 3030                     XOR [EAX], DH
0047A287: 3030                     XOR [EAX], DH
0047A289: 008BC0303132             ADD [EBX+323130C0H], CL
0047A28F: 33343536373839           XOR ESI, [ESI+39383736H]
0047A296: 41                       INC ECX
0047A297: 42                       INC EDX
0047A298: 43                       INC EBX
0047A299: 44                       INC ESP
0047A29A: 45                       INC EBP
0047A29B: 46                       INC ESI
0047A29C: FFFF                     INVALID
0047A29E: FFFF                     INVALID
0047A2A0: 0000                     ADD [EAX], AL
0047A2A2: 0000                     ADD [EAX], AL
0047A2A4: 0000                     ADD [EAX], AL
0047A2A6: 0000                     ADD [EAX], AL
0047A2A8: 0000                     ADD [EAX], AL
0047A2AA: 0000                     ADD [EAX], AL
0047A2AC: 0000                     ADD [EAX], AL
0047A2AE: 0000                     ADD [EAX], AL
0047A2B0: 0000                     ADD [EAX], AL
0047A2B2: 0000                     ADD [EAX], AL
0047A2B4: 0000                     ADD [EAX], AL
0047A2B6: 0000                     ADD [EAX], AL
0047A2B8: 0000                     ADD [EAX], AL
0047A2BA: 0000                     ADD [EAX], AL
0047A2BC: 0000                     ADD [EAX], AL
0047A2BE: 0000                     ADD [EAX], AL
0047A2C0: 0000                     ADD [EAX], AL
0047A2C2: 0000                     ADD [EAX], AL
0047A2C4: 0000                     ADD [EAX], AL
0047A2C6: 0000                     ADD [EAX], AL
0047A2C8: 0000                     ADD [EAX], AL
0047A2CA: 0000                     ADD [EAX], AL
0047A2CC: 0000                     ADD [EAX], AL
0047A2CE: 0000                     ADD [EAX], AL
0047A2D0: 0000                     ADD [EAX], AL
0047A2D2: 0000                     ADD [EAX], AL
0047A2D4: 0000                     ADD [EAX], AL
0047A2D6: 0000                     ADD [EAX], AL
0047A2D8: 3200                     XOR AL, [EAX]
0047A2DA: 8BC0                     MOV EAX, EAX
0047A2DC: 1F                       POP DS
0047A2DD: 001C00                   ADD [EAX+EAX], BL
0047A2E0: 1F                       POP DS
0047A2E1: 001E                     ADD [ESI], BL
0047A2E3: 001F                     ADD [EDI], BL
0047A2E5: 001E                     ADD [ESI], BL
0047A2E7: 001F                     ADD [EDI], BL
0047A2E9: 001F                     ADD [EDI], BL
0047A2EB: 001E                     ADD [ESI], BL
0047A2ED: 001F                     ADD [EDI], BL
0047A2EF: 001E                     ADD [ESI], BL
0047A2F1: 001F                     ADD [EDI], BL
0047A2F3: 001F                     ADD [EDI], BL
0047A2F5: 001D001F001E             ADD [1E001F00H], BL
0047A2FB: 001F                     ADD [EDI], BL
0047A2FD: 001E                     ADD [ESI], BL
0047A2FF: 001F                     ADD [EDI], BL
0047A301: 001F                     ADD [EDI], BL
0047A303: 001E                     ADD [ESI], BL
0047A305: 001F                     ADD [EDI], BL
0047A307: 001E                     ADD [ESI], BL
0047A309: 001F                     ADD [EDI], BL
0047A30B: 0000                     ADD [EAX], AL
0047A30D: 0000                     ADD [EAX], AL
0047A30F: 0000                     ADD [EAX], AL
0047A311: 0000                     ADD [EAX], AL
0047A313: 0000                     ADD [EAX], AL
0047A315: 0000                     ADD [EAX], AL
0047A317: 0000                     ADD [EAX], AL
0047A319: 0000                     ADD [EAX], AL
0047A31B: 0000                     ADD [EAX], AL
0047A31D: 0000                     ADD [EAX], AL
0047A31F: 0000                     ADD [EAX], AL
0047A321: 0000                     ADD [EAX], AL
0047A323: 0000                     ADD [EAX], AL
0047A325: 0000                     ADD [EAX], AL
0047A327: 0000                     ADD [EAX], AL
0047A329: 0000                     ADD [EAX], AL
0047A32B: 00F4                     ADD AH, DH
0047A32D: 7A40                     JPE 47A36FH
0047A32F: 0000                     ADD [EAX], AL
0047A331: 0000                     ADD [EAX], AL
0047A333: 0000                     ADD [EAX], AL
0047A335: 0000                     ADD [EAX], AL
0047A337: 00648340                 ADD [EBX+EAX*4+40H], AH
0047A33B: 007083                   ADD [EAX-7DH], DH
0047A33E: 40                       INC EAX
0047A33F: 0000                     ADD [EAX], AL
0047A341: 0000                     ADD [EAX], AL
0047A343: 800000                   ADD BYTE PTR [EAX], 00H
0047A346: 004000                   ADD [EAX], AL
0047A349: 0000                     ADD [EAX], AL
0047A34B: C00000                   ROL BYTE PTR [EAX], 00H
0047A34E: 0000                     ADD [EAX], AL
0047A350: 0000                     ADD [EAX], AL
0047A352: 0000                     ADD [EAX], AL
0047A354: 0100                     ADD [EAX], EAX
0047A356: 0000                     ADD [EAX], AL
0047A358: 0200                     ADD AL, [EAX]
0047A35A: 0000                     ADD [EAX], AL
0047A35C: 0300                     ADD EAX, [EAX]
0047A35E: 0000                     ADD [EAX], AL
0047A360: 3C6E                     CMP AL, 6EH
0047A362: 40                       INC EAX
0047A363: 00446E40                 ADD [ESI+EBP*2+40H], AL
0047A367: 0000                     ADD [EAX], AL
0047A369: 004076                   ADD [EAX+76H], AL
0047A36C: 3A6B0B                   CMP CH, [EBX+0BH]
0047A36F: DE3A                     FIDIVR WORD PTR [EDX]
0047A371: 40                       INC EAX
0047A372: 8BC0                     MOV EAX, EAX
0047A374: 0A00                     OR AL, [EAX]
0047A376: 0000                     ADD [EAX], AL
0047A378: 3F                       AAS 
0047A379: 138BC080CBA4             ADC ECX, [EBX-5B347F40H]
0047A37F: 4C                       DEC ESP
0047A380: 005C2605                 ADD [ESI++05H], BL
0047A384: 252E2A6414               AND EAX, 14642A2EH
0047A389: 6F                       OUTSD 
0047A38A: 40                       INC EAX
0047A38B: 001C6F                   ADD [EDI+EBP*2], BL
0047A38E: 40                       INC EAX
0047A38F: 00246F                   ADD [EDI+EBP*2], AH
0047A392: 40                       INC EAX
0047A393: 002C6F                   ADD [EDI+EBP*2], CH
0047A396: 40                       INC EAX
0047A397: 00346F                   ADD [EDI+EBP*2], DH
0047A39A: 40                       INC EAX
0047A39B: 003C6F                   ADD [EDI+EBP*2], BH
0047A39E: 40                       INC EAX
0047A39F: 00446F40                 ADD [EDI+EBP*2+40H], AL
0047A3A3: 004C6F40                 ADD [EDI+EBP*2+40H], CL
0047A3A7: 00546F40                 ADD [EDI+EBP*2+40H], DL
0047A3AB: 005C6F40                 ADD [EDI+EBP*2+40H], BL
0047A3AF: 00646F40                 ADD [EDI+EBP*2+40H], AH
0047A3B3: 006C6F40                 ADD [EDI+EBP*2+40H], CH
0047A3B7: 00746F40                 ADD [EDI+EBP*2+40H], DH
0047A3BB: 007C6F40                 ADD [EDI+EBP*2+40H], BH
0047A3BF: 00846F40008C6F           ADD [EDI+EBP*2+6F8C0040H], AL
0047A3C6: 40                       INC EAX
0047A3C7: 00946F40009C6F           ADD [EDI+EBP*2+6F9C0040H], DL
0047A3CE: 40                       INC EAX
0047A3CF: 00A46F4000AC6F           ADD [EDI+EBP*2+6FAC0040H], AH
0047A3D6: 40                       INC EAX
0047A3D7: 00B46F4000BC6F           ADD [EDI+EBP*2+6FBC0040H], DH
0047A3DE: 40                       INC EAX
0047A3DF: 00C4                     ADD AH, AL
0047A3E1: 6F                       OUTSD 
0047A3E2: 40                       INC EAX
0047A3E3: 00CC                     ADD AH, CL
0047A3E5: 6F                       OUTSD 
0047A3E6: 40                       INC EAX
0047A3E7: 00D4                     ADD AH, DL
0047A3E9: 6F                       OUTSD 
0047A3EA: 40                       INC EAX
0047A3EB: 00DC                     ADD AH, BL
0047A3ED: 6F                       OUTSD 
0047A3EE: 40                       INC EAX
0047A3EF: 00E4                     ADD AH, AH
0047A3F1: 6F                       OUTSD 
0047A3F2: 40                       INC EAX
0047A3F3: 00EC                     ADD AH, CH
0047A3F5: 6F                       OUTSD 
0047A3F6: 40                       INC EAX
0047A3F7: 00F4                     ADD AH, DH
0047A3F9: 6F                       OUTSD 
0047A3FA: 40                       INC EAX
0047A3FB: 00FC                     ADD AH, BH
0047A3FD: 6F                       OUTSD 
0047A3FE: 40                       INC EAX
0047A3FF: 000470                   ADD [EAX+ESI*2], AL
0047A402: 40                       INC EAX
0047A403: 000C70                   ADD [EAX+ESI*2], CL
0047A406: 40                       INC EAX
0047A407: 001470                   ADD [EAX+ESI*2], DL
0047A40A: 40                       INC EAX
0047A40B: 001C70                   ADD [EAX+ESI*2], BL
0047A40E: 40                       INC EAX
0047A40F: 002470                   ADD [EAX+ESI*2], AH
0047A412: 40                       INC EAX
0047A413: 002C70                   ADD [EAX+ESI*2], CH
0047A416: 40                       INC EAX
0047A417: 003470                   ADD [EAX+ESI*2], DH
0047A41A: 40                       INC EAX
0047A41B: 003C70                   ADD [EAX+ESI*2], BH
0047A41E: 40                       INC EAX
0047A41F: 0002                     ADD [EDX], AL
0047A421: 0000                     ADD [EAX], AL
0047A423: 0000                     ADD [EAX], AL
0047A425: 0000                     ADD [EAX], AL
0047A427: 0003                     ADD [EBX], AL
0047A429: 0000                     ADD [EAX], AL
0047A42B: 0000                     ADD [EAX], AL
0047A42D: 0000                     ADD [EAX], AL
0047A42F: 000400                   ADD [EAX+EAX], AL
0047A432: 0000                     ADD [EAX], AL
0047A434: 0000                     ADD [EAX], AL
0047A436: 0000                     ADD [EAX], AL
0047A438: 0500000000               ADD EAX, 00000000H
0047A43D: 0000                     ADD [EAX], AL
0047A43F: 00640000                 ADD [EAX+EAX], AH
0047A443: 0000                     ADD [EAX], AL
0047A445: 0000                     ADD [EAX], AL
0047A447: 006500                   ADD [EBP], AH
0047A44A: 0000                     ADD [EAX], AL
0047A44C: 0000                     ADD [EAX], AL
0047A44E: 0000                     ADD [EAX], AL
0047A450: 6A00                     PUSH 00000000H
0047A452: 0000                     ADD [EAX], AL
0047A454: 0000                     ADD [EAX], AL
0047A456: 0000                     ADD [EAX], AL
0047A458: 80734000                 XOR BYTE PTR [EBX+40H], 00H
0047A45C: 0000                     ADD [EAX], AL
0047A45E: 0000                     ADD [EAX], AL
0047A460: D87340                   FDIV REAL4 PTR [EBX+40H]
0047A463: 0000                     ADD [EAX], AL
0047A465: 0000                     ADD [EAX], AL
0047A467: 0030                     ADD [EAX], DH
0047A469: 7440                     JZ 47A4ABH
0047A46B: 0000                     ADD [EAX], AL
0047A46D: 0000                     ADD [EAX], AL
0047A46F: 00E4                     ADD AH, AH
0047A471: 7440                     JZ 47A4B3H
0047A473: 0000                     ADD [EAX], AL
0047A475: 0000                     ADD [EAX], AL
0047A477: 003C7540000000           ADD [ESI*2+00000040H], BH
0047A47E: 0000                     ADD [EAX], AL
0047A480: 94                       XCHG ESP, EAX
0047A481: 7540                     JNZ 47A4C3H
0047A483: 0000                     ADD [EAX], AL
0047A485: 0000                     ADD [EAX], AL
0047A487: 00EC                     ADD AH, CH
0047A489: 7540                     JNZ 47A4CBH
0047A48B: 0000                     ADD [EAX], AL
0047A48D: 0000                     ADD [EAX], AL
0047A48F: 00A076400000             ADD [EAX+00004076H], AH
0047A495: 0000                     ADD [EAX], AL
0047A497: 005877                   ADD [EAX+77H], BL
0047A49A: 40                       INC EAX
0047A49B: 0000                     ADD [EAX], AL
0047A49D: 0000                     ADD [EAX], AL
0047A49F: 00B877400000             ADD [EAX+00004077H], BH
0047A4A5: 0000                     ADD [EAX], AL
0047A4A7: 006C7840                 ADD [EAX+EDI*2+40H], CH
0047A4AB: 0000                     ADD [EAX], AL
0047A4AD: 0000                     ADD [EAX], AL
0047A4AF: 0010                     ADD [EAX], DL
0047A4B1: 7840                     JS 47A4F3H
0047A4B3: 0000                     ADD [EAX], AL
0047A4B5: 0000                     ADD [EAX], AL
0047A4B7: 00C4                     ADD AH, AL
0047A4B9: 7840                     JS 47A4FBH
0047A4BB: 0000                     ADD [EAX], AL
0047A4BD: 0000                     ADD [EAX], AL
0047A4BF: 00C4                     ADD AH, AL
0047A4C1: 7840                     JS 47A503H
0047A4C3: 0000                     ADD [EAX], AL
0047A4C5: 0000                     ADD [EAX], AL
0047A4C7: 00C4                     ADD AH, AL
0047A4C9: 7840                     JS 47A50BH
0047A4CB: 0000                     ADD [EAX], AL
0047A4CD: 0000                     ADD [EAX], AL
0047A4CF: 00C4                     ADD AH, AL
0047A4D1: 7840                     JS 47A513H
0047A4D3: 0000                     ADD [EAX], AL
0047A4D5: 0000                     ADD [EAX], AL
0047A4D7: 00C4                     ADD AH, AL
0047A4D9: 7840                     JS 47A51BH
0047A4DB: 0000                     ADD [EAX], AL
0047A4DD: 0000                     ADD [EAX], AL
0047A4DF: 00C4                     ADD AH, AL
0047A4E1: 7840                     JS 47A523H
0047A4E3: 0000                     ADD [EAX], AL
0047A4E5: 0000                     ADD [EAX], AL
0047A4E7: 0020                     ADD [EAX], AH
0047A4E9: 7940                     JNS 47A52BH
0047A4EB: 0000                     ADD [EAX], AL
0047A4ED: 0000                     ADD [EAX], AL
0047A4EF: 00C8                     ADD AL, CL
0047A4F1: 7240                     JB 47A533H
0047A4F3: 0000                     ADD [EAX], AL
0047A4F5: 0000                     ADD [EAX], AL
0047A4F7: 00DC                     ADD AH, BL
0047A4F9: 7940                     JNS 47A53BH
0047A4FB: 0000                     ADD [EAX], AL
0047A4FD: 0000                     ADD [EAX], AL
0047A4FF: 00907A400000             ADD [EAX+0000407AH], DL
0047A505: 0000                     ADD [EAX], AL
0047A507: 00C1                     ADD CL, AL
0047A509: 1E                       PUSH DS
0047A50A: 59                       POP ECX
0047A50B: 2000                     AND [EAX], AL
0047A50D: 0000                     ADD [EAX], AL
0047A50F: 005700                   ADD [EDI], DL
0047A512: 07                       POP ES
0047A513: 800000                   ADD BYTE PTR [EAX], 00H
0047A516: 0000                     ADD [EAX], AL
0047A518: 018D40000000             ADD [EBP+00000040H], ECX
0047A51E: 0000                     ADD [EAX], AL
0047A520: 018D4000008D             ADD [EBP-72FFFFC0H], ECX
0047A526: 40                       INC EAX
0047A527: 00FF                     ADD BH, BH
0047A529: FFFF                     INVALID
0047A52B: FF03                     INC [EBX]
0047A52D: 000A                     ADD [EDX], CL
0047A52F: 0002                     ADD [EDX], AL
0047A531: 0010                     ADD [EAX], DL
0047A533: 000A                     ADD [EDX], CL
0047A535: 0011                     ADD [ECX], DL
0047A537: 0012                     ADD [EDX], DL
0047A539: 000A                     ADD [EDX], CL
0047A53B: 0013                     ADD [EBX], DL
0047A53D: 008BC0DC0341             ADD [EBX+4103DCC0H], CL
0047A543: 00EC                     ADD AH, CH
0047A545: 034100                   ADD EAX, [ECX]
0047A548: FC                       CLD 
0047A549: 034100                   ADD EAX, [ECX]
0047A54C: 100441                   ADC [ECX+EAX*2], AL
0047A54F: 0020                     ADD [EAX], AH
0047A551: 0441                     ADD AL, 41H
0047A553: 0030                     ADD [EAX], DH
0047A555: 0441                     ADD AL, 41H
0047A557: 004004                   ADD [EAX+04H], AL
0047A55A: 41                       INC ECX
0047A55B: 00540441                 ADD [ESP+EAX+41H], DL
0047A55F: 00640441                 ADD [ESP+EAX+41H], AH
0047A563: 00740441                 ADD [ESP+EAX+41H], DH
0047A567: 008804410098             ADD [EAX-67FFBEFCH], CL
0047A56D: 0441                     ADD AL, 41H
0047A56F: 00A8044100B8             ADD [EAX-47FFBEFCH], CH
0047A575: 0441                     ADD AL, 41H
0047A577: 00C8                     ADD AL, CL
0047A579: 0441                     ADD AL, 41H
0047A57B: 00D8                     ADD AL, BL
0047A57D: 0441                     ADD AL, 41H
0047A57F: 00E4                     ADD AH, AH
0047A581: 0441                     ADD AL, 41H
0047A583: 00F8                     ADD AL, BH
0047A585: 0441                     ADD AL, 41H
0047A587: 0008                     ADD [EAX], CL
0047A589: 0541001805               ADD EAX, 05180041H
0047A58E: 41                       INC ECX
0047A58F: 002C0541000001           ADD [EAX+01000041H], CH
0047A596: 0001                     ADD [ECX], AL
0047A598: 0001                     ADD [ECX], AL
0047A59A: 0100                     ADD [EAX], EAX
0047A59C: 0001                     ADD [ECX], AL
0047A59E: 0100                     ADD [EAX], EAX
0047A5A0: 0000                     ADD [EAX], AL
0047A5A2: 0100                     ADD [EAX], EAX
0047A5A4: 0101                     ADD [ECX], EAX
0047A5A6: 8BC0                     MOV EAX, EAX
0047A5A8: 8C0D41009C0D             MOV [0D9C0041H], CS
0047A5AE: 41                       INC ECX
0047A5AF: 00AC0D41000000           ADD [EBP+ECX+00000041H], CH
0047A5B6: 0000                     ADD [EAX], AL
0047A5B8: 0000                     ADD [EAX], AL
0047A5BA: 0000                     ADD [EAX], AL
0047A5BC: 0000                     ADD [EAX], AL
0047A5BE: 0000                     ADD [EAX], AL
0047A5C0: 0000                     ADD [EAX], AL
0047A5C2: 0000                     ADD [EAX], AL
0047A5C4: 0000                     ADD [EAX], AL
0047A5C6: 0000                     ADD [EAX], AL
0047A5C8: 0000                     ADD [EAX], AL
0047A5CA: 0000                     ADD [EAX], AL
0047A5CC: 0000                     ADD [EAX], AL
0047A5CE: 0000                     ADD [EAX], AL
0047A5D0: 0000                     ADD [EAX], AL
0047A5D2: 0000                     ADD [EAX], AL
0047A5D4: 0000                     ADD [EAX], AL
0047A5D6: 0000                     ADD [EAX], AL
0047A5D8: 0000                     ADD [EAX], AL
0047A5DA: 0000                     ADD [EAX], AL
0047A5DC: 54                       PUSH ESP
0047A5DD: 50                       PUSH EAX
0047A5DE: 46                       INC ESI
0047A5DF: 3000                     XOR [EAX], AL
0047A5E1: 0000                     ADD [EAX], AL
0047A5E3: 0000                     ADD [EAX], AL
0047A5E5: 0000                     ADD [EAX], AL
0047A5E7: 0000                     ADD [EAX], AL
0047A5E9: 0000                     ADD [EAX], AL
0047A5EB: 0059E9                   ADD [ECX-17H], BL
0047A5EE: 8BC0                     MOV EAX, EAX
0047A5F0: 0000                     ADD [EAX], AL
0047A5F2: 0000                     ADD [EAX], AL
0047A5F4: 2C66                     SUB AL, 66H
0047A5F6: 40                       INC EAX
0047A5F7: 0000                     ADD [EAX], AL
0047A5F9: 0000                     ADD [EAX], AL
0047A5FB: 0000                     ADD [EAX], AL
0047A5FD: 0000                     ADD [EAX], AL
0047A5FF: 0000                     ADD [EAX], AL
0047A601: 0000                     ADD [EAX], AL
0047A603: 0000                     ADD [EAX], AL
0047A605: 0000                     ADD [EAX], AL
0047A607: 0000                     ADD [EAX], AL
0047A609: 0000                     ADD [EAX], AL
0047A60B: 0000                     ADD [EAX], AL
0047A60D: 0000                     ADD [EAX], AL
0047A60F: 0000                     ADD [EAX], AL
0047A611: 0000                     ADD [EAX], AL
0047A613: 0040AB                   ADD [EAX-55H], AL
0047A616: 41                       INC ECX
0047A617: 0000                     ADD [EAX], AL
0047A619: 0000                     ADD [EAX], AL
0047A61B: 0000                     ADD [EAX], AL
0047A61D: 0000                     ADD [EAX], AL
0047A61F: 0000                     ADD [EAX], AL
0047A621: 0001                     ADD [ECX], AL
0047A623: 0D4D532053               OR EAX, 5320534DH
0047A628: 61                       POPAD 
0047A629: 6E                       OUTSB 
0047A62A: 7320                     JNB 47A64CH
0047A62C: 53                       PUSH EBX
0047A62D: 657269                   JB 47A699H
0047A630: 660000                   ADD [EAX], AL
0047A633: 0000                     ADD [EAX], AL
0047A635: 0000                     ADD [EAX], AL
0047A637: 0000                     ADD [EAX], AL
0047A639: 0000                     ADD [EAX], AL
0047A63B: 0000                     ADD [EAX], AL
0047A63D: 0000                     ADD [EAX], AL
0047A63F: 0000                     ADD [EAX], AL
0047A641: 0000                     ADD [EAX], AL
0047A643: 0000                     ADD [EAX], AL
0047A645: 8D4000                   LEA EAX, [EAX]
0047A648: 0000                     ADD [EAX], AL
0047A64A: 0000                     ADD [EAX], AL
0047A64C: 18C5                     SBB CH, AL
0047A64E: 41                       INC ECX
0047A64F: 008000000028             ADD [EAX+28000000H], AL
0047A655: C54100                   LDS EAX, [ECX]
0047A658: 008000003CC5             ADD [EAX-3AC40000H], AL
0047A65E: 41                       INC ECX
0047A65F: 00808000004C             ADD [EAX+4C000080H], AL
0047A665: C54100                   LDS EAX, [ECX]
0047A668: 0000                     ADD [EAX], AL
0047A66A: 80005C                   ADD BYTE PTR [EAX], 5CH
0047A66D: C54100                   LDS EAX, [ECX]
0047A670: 800080                   ADD BYTE PTR [EAX], FFFFFF80H
0047A673: 006CC541                 ADD [EBP+EAX*8+41H], CH
0047A677: 0000                     ADD [EAX], AL
0047A679: 80800080C54100           ADD BYTE PTR [EAX+41C58000H], 00H
0047A680: 8080800090C541           ADD BYTE PTR [EAX-3A6FFF80H], 41H
0047A687: 00C0                     ADD AL, AL
0047A689: C0C000                   ROL AL, 00H
0047A68C: A0C54100FF               MOV AL, [FF0041C5H]
0047A691: 0000                     ADD [EAX], AL
0047A693: 00B4C5410000FF           ADD [EBP+EAX*8-00FFFFBFH], DH
0047A69A: 0000                     ADD [EAX], AL
0047A69C: C4C5                     LES EAX, EBP
0047A69E: 41                       INC ECX
0047A69F: 00FF                     ADD BH, BH
0047A6A1: FF00                     INC [EAX]
0047A6A3: 00D4                     ADD AH, DL
0047A6A5: C54100                   LDS EAX, [ECX]
0047A6A8: 0000                     ADD [EAX], AL
0047A6AA: FF00                     INC [EAX]
0047A6AC: E8C54100FF               CALL FF47E876H
0047A6B1: 00FF                     ADD BH, BH
0047A6B3: 00F8                     ADD AL, BH
0047A6B5: C54100                   LDS EAX, [ECX]
0047A6B8: 00FF                     ADD BH, BH
0047A6BA: FF00                     INC [EAX]
0047A6BC: 0CC6                     OR AL, C6H
0047A6BE: 41                       INC ECX
0047A6BF: 00FF                     ADD BH, BH
0047A6C1: FFFF                     INVALID
0047A6C3: 001CC6                   ADD [ESI+EAX*8], BL
0047A6C6: 41                       INC ECX
0047A6C7: 00C0                     ADD AL, AL
0047A6C9: DCC0                     FADD ST(0), ST(0)
0047A6CB: 002CC6                   ADD [ESI+EAX*8], CH
0047A6CE: 41                       INC ECX
0047A6CF: 00A6CAF00044             ADD [ESI+4400F0CAH], AH
0047A6D5: C64100FF                 MOV BYTE PTR [ECX], FFH
0047A6D9: FB                       STI 
0047A6DA: F00058C6                 LOCK ADD [EAX-3AH], BL
0047A6DE: 41                       INC ECX
0047A6DF: 00A0A0A40068             ADD [EAX+6800A4A0H], AH
0047A6E5: C641000A                 MOV BYTE PTR [ECX], 0AH
0047A6E9: 0000                     ADD [EAX], AL
0047A6EB: FF7CC641                 INVALID
0047A6EF: 0002                     ADD [EDX], AL
0047A6F1: 0000                     ADD [EAX], AL
0047A6F3: FF94C641000C00           CALL [ESI+EAX*8+000C0041H]
0047A6FA: 00FF                     ADD BH, BH
0047A6FC: AC                       LODSB 
0047A6FD: C6410001                 MOV BYTE PTR [ECX], 01H
0047A701: 0000                     ADD [EAX], AL
0047A703: FFC4                     INC ESP
0047A705: C641000F                 MOV BYTE PTR [ECX], 0FH
0047A709: 0000                     ADD [EAX], AL
0047A70B: FFDC                     CALL FAR ESP
0047A70D: C6410014                 MOV BYTE PTR [ECX], 14H
0047A711: 0000                     ADD [EAX], AL
0047A713: FFF0                     PUSH EAX
0047A715: C6410010                 MOV BYTE PTR [ECX], 10H
0047A719: 0000                     ADD [EAX], AL
0047A71B: FF08                     DEC [EAX]
0047A71D: C74100120000FF           MOV [ECX], FF000012H
0047A724: 1CC7                     SBB AL, C7H
0047A726: 41                       INC ECX
0047A727: 0009                     ADD [ECX], CL
0047A729: 0000                     ADD [EAX], AL
0047A72B: FF30                     PUSH [EAX]
0047A72D: C7410000000020           MOV [ECX], 20000000H
0047A734: 48                       DEC EAX
0047A735: C741001B0000FF           MOV [ECX], FF00001BH
0047A73C: 5C                       POP ESP
0047A73D: C741001C0000FF           MOV [ECX], FF00001CH
0047A744: 7CC7                     JL 47A70DH
0047A746: 41                       INC ECX
0047A747: 0011                     ADD [ECX], DL
0047A749: 0000                     ADD [EAX], AL
0047A74B: FFA0C741000D             JMP [EAX+0D0041C7H]
0047A751: 0000                     ADD [EAX], AL
0047A753: FFB4C741000E00           PUSH [EDI+EAX*8+000E0041H]
0047A75A: 00FF                     ADD BH, BH
0047A75C: C8C74100                 ENTER 41C7H, 00H
0047A760: 1A00                     SBB AL, [EAX]
0047A762: 00FF                     ADD BH, BH
0047A764: E0C7                     LOOPNZ 47A72DH
0047A766: 41                       INC ECX
0047A767: 000B                     ADD [EBX], CL
0047A769: 0000                     ADD [EAX], AL
0047A76B: FFF4                     PUSH ESP
0047A76D: C74100030000FF           MOV [ECX], FF000003H
0047A774: 10C8                     ADC AL, CL
0047A776: 41                       INC ECX
0047A777: 0013                     ADD [EBX], DL
0047A779: 0000                     ADD [EAX], AL
0047A77B: FF2CC8                   JMP FAR [EAX+ECX*8]
0047A77E: 41                       INC ECX
0047A77F: 0018                     ADD [EAX], BL
0047A781: 0000                     ADD [EAX], AL
0047A783: FF4CC841                 DEC [EAX+ECX*8+41H]
0047A787: 0017                     ADD [EDI], DL
0047A789: 0000                     ADD [EAX], AL
0047A78B: FF60C8                   JMP [EAX-38H]
0047A78E: 41                       INC ECX
0047A78F: 000400                   ADD [EAX+EAX], AL
0047A792: 00FF                     ADD BH, BH
0047A794: 74C8                     JZ 47A75EH
0047A796: 41                       INC ECX
0047A797: 001E                     ADD [ESI], BL
0047A799: 0000                     ADD [EAX], AL
0047A79B: FF84C841001D00           INC [EAX+ECX*8+001D0041H]
0047A7A2: 00FF                     ADD BH, BH
0047A7A4: 98                       CWDE 
0047A7A5: C8410007                 ENTER 41H, 07H
0047A7A9: 0000                     ADD [EAX], AL
0047A7AB: FFB0C84100FF             PUSH [EAX-00FFBE38H]
0047A7B1: FFFF                     INVALID
0047A7B3: 1F                       POP DS
0047A7B4: C4C8                     LES ECX, EAX
0047A7B6: 41                       INC ECX
0047A7B7: 0000                     ADD [EAX], AL
0047A7B9: 0000                     ADD [EAX], AL
0047A7BB: FFD4                     CALL ESP
0047A7BD: C8410015                 ENTER 41H, 15H
0047A7C1: 0000                     ADD [EAX], AL
0047A7C3: FFE8                     JMP FAR EAX
0047A7C5: C8410016                 ENTER 41H, 16H
0047A7C9: 0000                     ADD [EAX], AL
0047A7CB: FF00                     INC [EAX]
0047A7CD: C9                       LEAVE 
0047A7CE: 41                       INC ECX
0047A7CF: 00050000FF14             ADD [14FF0000H], AL
0047A7D5: C9                       LEAVE 
0047A7D6: 41                       INC ECX
0047A7D7: 0006                     ADD [ESI], AL
0047A7D9: 0000                     ADD [EAX], AL
0047A7DB: FF28                     JMP FAR [EAX]
0047A7DD: C9                       LEAVE 
0047A7DE: 41                       INC ECX
0047A7DF: 0008                     ADD [EAX], CL
0047A7E1: 0000                     ADD [EAX], AL
0047A7E3: FF40C9                   INC [EAX-37H]
0047A7E6: 41                       INC ECX
0047A7E7: 0000                     ADD [EAX], AL
0047A7E9: 0000                     ADD [EAX], AL
0047A7EB: 00BCC941000100           ADD [ECX+ECX*8+00010041H], BH
0047A7F2: 0000                     ADD [EAX], AL
0047A7F4: D4C9                     AAM C9H
0047A7F6: 41                       INC ECX
0047A7F7: 0002                     ADD [EDX], AL
0047A7F9: 0000                     ADD [EAX], AL
0047A7FB: 00EC                     ADD AH, CH
0047A7FD: C9                       LEAVE 
0047A7FE: 41                       INC ECX
0047A7FF: 004D00                   ADD [EBP], CL
0047A802: 0000                     ADD [EAX], AL
0047A804: 04CA                     ADD AL, CAH
0047A806: 41                       INC ECX
0047A807: 008000000018             ADD [EAX+18000000H], AL
0047A80D: CA4100                   RETF 0041H
0047A810: 8100000034CA             ADD [EAX], CA340000H
0047A816: 41                       INC ECX
0047A817: 00820000004C             ADD [EDX+4C000000H], AL
0047A81D: CA4100                   RETF 0041H
0047A820: 8600                     XCHG AL, [EAX]
0047A822: 0000                     ADD [EAX], AL
0047A824: 64CA4100                 RETF 0041H
0047A828: 8800                     MOV [EAX], AL
0047A82A: 0000                     ADD [EAX], AL
0047A82C: 7CCA                     JL 47A7F8H
0047A82E: 41                       INC ECX
0047A82F: 00A100000098             ADD [ECX-68000000H], AH
0047A835: CA4100                   RETF 0041H
0047A838: A2000000B0               MOV [B0000000H], AL
0047A83D: CA4100                   RETF 0041H
0047A840: B100                     MOV CL, 00H
0047A842: 0000                     ADD [EAX], AL
0047A844: C8CA4100                 ENTER 41CAH, 00H
0047A848: B200                     MOV DL, 00H
0047A84A: 0000                     ADD [EAX], AL
0047A84C: E0CA                     LOOPNZ 47A818H
0047A84E: 41                       INC ECX
0047A84F: 00BA000000F8             ADD [EDX-08000000H], BH
0047A855: CA4100                   RETF 0041H
0047A858: CC                       INT 3 
0047A859: 0000                     ADD [EAX], AL
0047A85B: 0010                     ADD [EAX], DL
0047A85D: CB                       RETF 
0047A85E: 41                       INC ECX
0047A85F: 00DE                     ADD DH, BL
0047A861: 0000                     ADD [EAX], AL
0047A863: 0028                     ADD [EAX], CH
0047A865: CB                       RETF 
0047A866: 41                       INC ECX
0047A867: 00EE                     ADD DH, CH
0047A869: 0000                     ADD [EAX], AL
0047A86B: 0040CB                   ADD [EAX-35H], AL
0047A86E: 41                       INC ECX
0047A86F: 00FF                     ADD BH, BH
0047A871: 0000                     ADD [EAX], AL
0047A873: 005CCB41                 ADD [EBX+ECX*8+41H], BL
0047A877: 0000                     ADD [EAX], AL
0047A879: 0000                     ADD [EAX], AL
0047A87B: 0000                     ADD [EAX], AL
0047A87D: 0000                     ADD [EAX], AL
0047A87F: 0001                     ADD [ECX], AL
0047A881: 0000                     ADD [EAX], AL
0047A883: 0000                     ADD [EAX], AL
0047A885: 0000                     ADD [EAX], AL
0047A887: 0000                     ADD [EAX], AL
0047A889: 0001                     ADD [ECX], AL
0047A88B: 0002                     ADD [EDX], AL
0047A88D: 0003                     ADD [EBX], AL
0047A88F: 000400                   ADD [EAX+EAX], AL
0047A892: 050006008B               ADD EAX, 8B000600H
0047A897: C00000                   ROL BYTE PTR [EAX], 00H
0047A89A: 0000                     ADD [EAX], AL
0047A89C: FFFF                     INVALID
0047A89E: FF00                     INC [EAX]
0047A8A0: 0000                     ADD [EAX], AL
0047A8A2: 0000                     ADD [EAX], AL
0047A8A4: 0000                     ADD [EAX], AL
0047A8A6: 0000                     ADD [EAX], AL
0047A8A8: 0100                     ADD [EAX], EAX
0047A8AA: 1000                     ADC [EAX], AL
0047A8AC: 0B00                     OR EAX, [EAX]
0047A8AE: 06                       PUSH ES
0047A8AF: 000D0004000E             ADD [0E000400H], CL
0047A8B5: 0005000C0003             ADD [03000C00H], AL
0047A8BB: 000F                     ADD [EDI], CL
0047A8BD: 0002                     ADD [EDX], AL
0047A8BF: 0009                     ADD [ECX], CL
0047A8C1: 0008                     ADD [EAX], CL
0047A8C3: 0007                     ADD [EDI], AL
0047A8C5: 000A                     ADD [EDX], CL
0047A8C7: 0000                     ADD [EAX], AL
0047A8C9: 0000                     ADD [EAX], AL
0047A8CB: 0000                     ADD [EAX], AL
0047A8CD: 0000                     ADD [EAX], AL
0047A8CF: 0000                     ADD [EAX], AL
0047A8D1: 0000                     ADD [EAX], AL
0047A8D3: 000403                   ADD [EBX+EAX], AL
0047A8D6: 8BC0                     MOV EAX, EAX
0047A8D8: 0403                     ADD AL, 03H
0047A8DA: 8BC0                     MOV EAX, EAX
0047A8DC: 0000                     ADD [EAX], AL
0047A8DE: 0000                     ADD [EAX], AL
0047A8E0: 800000                   ADD BYTE PTR [EAX], 00H
0047A8E3: 0000                     ADD [EAX], AL
0047A8E5: 800000                   ADD BYTE PTR [EAX], 00H
0047A8E8: 80800000000080           ADD BYTE PTR [EAX], FFFFFF80H
0047A8EF: 008000800000             ADD [EAX+00008000H], AL
0047A8F5: 80800080808000           ADD BYTE PTR [EAX-7F7F8000H], 00H
0047A8FC: C0C0C0                   ROL AL, C0H
0047A8FF: 00FF                     ADD BH, BH
0047A901: 0000                     ADD [EAX], AL
0047A903: 0000                     ADD [EAX], AL
0047A905: FF00                     INC [EAX]
0047A907: 00FF                     ADD BH, BH
0047A909: FF00                     INC [EAX]
0047A90B: 0000                     ADD [EAX], AL
0047A90D: 00FF                     ADD BH, BH
0047A90F: 00FF                     ADD BH, BH
0047A911: 00FF                     ADD BH, BH
0047A913: 0000                     ADD [EAX], AL
0047A915: FFFF                     INVALID
0047A917: 00FF                     ADD BH, BH
0047A919: FFFF                     INVALID
0047A91B: 0000                     ADD [EAX], AL
0047A91D: 0000                     ADD [EAX], AL
0047A91F: 0000                     ADD [EAX], AL
0047A921: 8D4000                   LEA EAX, [EAX]
0047A924: 0000                     ADD [EAX], AL
0047A926: 0000                     ADD [EAX], AL
0047A928: 0000                     ADD [EAX], AL
0047A92A: 8BC0                     MOV EAX, EAX
0047A92C: 0100                     ADD [EAX], EAX
0047A92E: 0000                     ADD [EAX], AL
0047A930: 0200                     ADD AL, [EAX]
0047A932: 0000                     ADD [EAX], AL
0047A934: 0400                     ADD AL, 00H
0047A936: 0000                     ADD [EAX], AL
0047A938: 0800                     OR [EAX], AL
0047A93A: 0000                     ADD [EAX], AL
0047A93C: 1000                     ADC [EAX], AL
0047A93E: 0000                     ADD [EAX], AL
0047A940: 0001                     ADD [ECX], AL
0047A942: 0000                     ADD [EAX], AL
0047A944: 0002                     ADD [EDX], AL
0047A946: 0000                     ADD [EAX], AL
0047A948: 000400                   ADD [EAX+EAX], AL
0047A94B: 0000                     ADD [EAX], AL
0047A94D: 0800                     OR [EAX], AL
0047A94F: 0000                     ADD [EAX], AL
0047A951: 1000                     ADC [EAX], AL
0047A953: 0000                     ADD [EAX], AL
0047A955: 2000                     AND [EAX], AL
0047A957: 0000                     ADD [EAX], AL
0047A959: 40                       INC EAX
0047A95A: 0000                     ADD [EAX], AL
0047A95C: 008000000000             ADD [EAX], AL
0047A962: 0100                     ADD [EAX], EAX
0047A964: 0000                     ADD [EAX], AL
0047A966: 0200                     ADD AL, [EAX]
0047A968: 0000                     ADD [EAX], AL
0047A96A: 0400                     ADD AL, 00H
0047A96C: 0000                     ADD [EAX], AL
0047A96E: 0800                     OR [EAX], AL
0047A970: 0000                     ADD [EAX], AL
0047A972: 1000                     ADC [EAX], AL
0047A974: 0000                     ADD [EAX], AL
0047A976: 40                       INC EAX
0047A977: 0000                     ADD [EAX], AL
0047A979: 008000000000             ADD [EAX], AL
0047A97F: 0200                     ADD AL, [EAX]
0047A981: 0000                     ADD [EAX], AL
0047A983: 1001                     ADC [ECX], AL
0047A985: 0000                     ADD [EAX], AL
0047A987: 00F0                     ADD AL, DH
0047A989: AE                       SCASB 
0047A98A: 41                       INC ECX
0047A98B: 00F8                     ADD AL, BH
0047A98D: AE                       SCASB 
0047A98E: 41                       INC ECX
0047A98F: 0000                     ADD [EAX], AL
0047A991: AF                       SCASD 
0047A992: 41                       INC ECX
0047A993: 0008                     ADD [EAX], CL
0047A995: AF                       SCASD 
0047A996: 41                       INC ECX
0047A997: 0000                     ADD [EAX], AL
0047A999: 0000                     ADD [EAX], AL
0047A99B: 00F4                     ADD AH, DH
0047A99D: 874200                   XCHG EAX, [EDX]
0047A9A0: 008842000C88             ADD [EAX-77F3FFBEH], CL
0047A9A6: 42                       INC EDX
0047A9A7: 0018                     ADD [EAX], BL
0047A9A9: 884200                   MOV [EDX], AL
0047A9AC: 288842003888             SUB [EAX-77C7FFBEH], CL
0047A9B2: 42                       INC EDX
0047A9B3: 004888                   ADD [EAX-78H], CL
0047A9B6: 42                       INC EDX
0047A9B7: 005888                   ADD [EAX-78H], BL
0047A9BA: 42                       INC EDX
0047A9BB: 00648842                 ADD [EAX+ECX*4+42H], AH
0047A9BF: 00748842                 ADD [EAX+ECX*4+42H], DH
0047A9C3: 008888420010             ADD [EAX+10004288H], CL
0047A9C9: AF                       SCASD 
0047A9CA: 41                       INC ECX
0047A9CB: 0018                     ADD [EAX], BL
0047A9CD: AF                       SCASD 
0047A9CE: 41                       INC ECX
0047A9CF: 0020                     ADD [EAX], AH
0047A9D1: AF                       SCASD 
0047A9D2: 41                       INC ECX
0047A9D3: 0028                     ADD [EAX], CH
0047A9D5: AF                       SCASD 
0047A9D6: 41                       INC ECX
0047A9D7: 0038                     ADD [EAX], BH
0047A9D9: AF                       SCASD 
0047A9DA: 41                       INC ECX
0047A9DB: 0040AF                   ADD [EAX-51H], AL
0047A9DE: 41                       INC ECX
0047A9DF: 0048AF                   ADD [EAX-51H], CL
0047A9E2: 41                       INC ECX
0047A9E3: 0050AF                   ADD [EAX-51H], DL
0047A9E6: 41                       INC ECX
0047A9E7: 0058AF                   ADD [EAX-51H], BL
0047A9EA: 41                       INC ECX
0047A9EB: 0060AF                   ADD [EAX-51H], AH
0047A9EE: 41                       INC ECX
0047A9EF: 0030                     ADD [EAX], DH
0047A9F1: AF                       SCASD 
0047A9F2: 41                       INC ECX
0047A9F3: 0000                     ADD [EAX], AL
0047A9F5: 0000                     ADD [EAX], AL
0047A9F7: 0000                     ADD [EAX], AL
0047A9F9: 008000000000             ADD [EAX], AL
0047A9FF: 0002                     ADD [EDX], AL
0047AA01: 0000                     ADD [EAX], AL
0047AA03: 0001                     ADD [ECX], AL
0047AA05: 0000                     ADD [EAX], AL
0047AA07: 0000                     ADD [EAX], AL
0047AA09: 0000                     ADD [EAX], AL
0047AA0B: 0000                     ADD [EAX], AL
0047AA0D: 0000                     ADD [EAX], AL
0047AA0F: 008000000000             ADD [EAX], AL
0047AA15: 0000                     ADD [EAX], AL
0047AA17: 0000                     ADD [EAX], AL
0047AA19: 800000                   ADD BYTE PTR [EAX], 00H
0047AA1C: 0000                     ADD [EAX], AL
0047AA1E: 0000                     ADD [EAX], AL
0047AA20: 80800000000000           ADD BYTE PTR [EAX], 00H
0047AA27: 0000                     ADD [EAX], AL
0047AA29: 008000000000             ADD [EAX], AL
0047AA2F: 008000800000             ADD [EAX+00008000H], AL
0047AA35: 0000                     ADD [EAX], AL
0047AA37: 0000                     ADD [EAX], AL
0047AA39: 80800000000000           ADD BYTE PTR [EAX], 00H
0047AA40: 80808000000000           ADD BYTE PTR [EAX+00000080H], 00H
0047AA47: 00C0                     ADD AL, AL
0047AA49: C0C000                   ROL AL, 00H
0047AA4C: 0000                     ADD [EAX], AL
0047AA4E: 0000                     ADD [EAX], AL
0047AA50: FF00                     INC [EAX]
0047AA52: 0000                     ADD [EAX], AL
0047AA54: 0000                     ADD [EAX], AL
0047AA56: 0000                     ADD [EAX], AL
0047AA58: 00FF                     ADD BH, BH
0047AA5A: 0000                     ADD [EAX], AL
0047AA5C: 0000                     ADD [EAX], AL
0047AA5E: 0000                     ADD [EAX], AL
0047AA60: FFFF                     INVALID
0047AA62: 0000                     ADD [EAX], AL
0047AA64: 0000                     ADD [EAX], AL
0047AA66: 0000                     ADD [EAX], AL
0047AA68: 0000                     ADD [EAX], AL
0047AA6A: FF00                     INC [EAX]
0047AA6C: 0000                     ADD [EAX], AL
0047AA6E: 0000                     ADD [EAX], AL
0047AA70: FF00                     INC [EAX]
0047AA72: FF00                     INC [EAX]
0047AA74: 0000                     ADD [EAX], AL
0047AA76: 0000                     ADD [EAX], AL
0047AA78: 00FF                     ADD BH, BH
0047AA7A: FF00                     INC [EAX]
0047AA7C: 0000                     ADD [EAX], AL
0047AA7E: 0000                     ADD [EAX], AL
0047AA80: FFFF                     INVALID
0047AA82: FF00                     INC [EAX]
0047AA84: 0000                     ADD [EAX], AL
0047AA86: 0000                     ADD [EAX], AL
0047AA88: C0DCC0                   RCR AH, C0H
0047AA8B: 0000                     ADD [EAX], AL
0047AA8D: 0000                     ADD [EAX], AL
0047AA8F: 00A6CAF00000             ADD [ESI+0000F0CAH], AH
0047AA95: 0000                     ADD [EAX], AL
0047AA97: 00FF                     ADD BH, BH
0047AA99: FB                       STI 
0047AA9A: F00000                   LOCK ADD [EAX], AL
0047AA9D: 0000                     ADD [EAX], AL
0047AA9F: 00A0A0A40000             ADD [EAX+0000A4A0H], AH
0047AAA5: 0000                     ADD [EAX], AL
0047AAA7: 000A                     ADD [EDX], CL
0047AAA9: 0000                     ADD [EAX], AL
0047AAAB: FF00                     INC [EAX]
0047AAAD: 0000                     ADD [EAX], AL
0047AAAF: 0002                     ADD [EDX], AL
0047AAB1: 0000                     ADD [EAX], AL
0047AAB3: FF00                     INC [EAX]
0047AAB5: 0000                     ADD [EAX], AL
0047AAB7: 000C00                   ADD [EAX+EAX], CL
0047AABA: 00FF                     ADD BH, BH
0047AABC: 0000                     ADD [EAX], AL
0047AABE: 0000                     ADD [EAX], AL
0047AAC0: 0100                     ADD [EAX], EAX
0047AAC2: 00FF                     ADD BH, BH
0047AAC4: 0000                     ADD [EAX], AL
0047AAC6: 0000                     ADD [EAX], AL
0047AAC8: 0F0000                   SLDT WORD PTR [EAX]
0047AACB: FF00                     INC [EAX]
0047AACD: 0000                     ADD [EAX], AL
0047AACF: 001400                   ADD [EAX+EAX], DL
0047AAD2: 00FF                     ADD BH, BH
0047AAD4: 0000                     ADD [EAX], AL
0047AAD6: 0000                     ADD [EAX], AL
0047AAD8: 1000                     ADC [EAX], AL
0047AADA: 00FF                     ADD BH, BH
0047AADC: 0000                     ADD [EAX], AL
0047AADE: 0000                     ADD [EAX], AL
0047AAE0: 1200                     ADC AL, [EAX]
0047AAE2: 00FF                     ADD BH, BH
0047AAE4: 0000                     ADD [EAX], AL
0047AAE6: 0000                     ADD [EAX], AL
0047AAE8: 0900                     OR [EAX], EAX
0047AAEA: 00FF                     ADD BH, BH
0047AAEC: 0000                     ADD [EAX], AL
0047AAEE: 0000                     ADD [EAX], AL
0047AAF0: 0000                     ADD [EAX], AL
0047AAF2: 0020                     ADD [EAX], AH
0047AAF4: 0000                     ADD [EAX], AL
0047AAF6: 0000                     ADD [EAX], AL
0047AAF8: 1100                     ADC [EAX], EAX
0047AAFA: 00FF                     ADD BH, BH
0047AAFC: 0000                     ADD [EAX], AL
0047AAFE: 0000                     ADD [EAX], AL
0047AB00: 0D0000FF00               OR EAX, 00FF0000H
0047AB05: 0000                     ADD [EAX], AL
0047AB07: 000E                     ADD [ESI], CL
0047AB09: 0000                     ADD [EAX], AL
0047AB0B: FF00                     INC [EAX]
0047AB0D: 0000                     ADD [EAX], AL
0047AB0F: 000B                     ADD [EBX], CL
0047AB11: 0000                     ADD [EAX], AL
0047AB13: FF00                     INC [EAX]
0047AB15: 0000                     ADD [EAX], AL
0047AB17: 0003                     ADD [EBX], AL
0047AB19: 0000                     ADD [EAX], AL
0047AB1B: FF00                     INC [EAX]
0047AB1D: 0000                     ADD [EAX], AL
0047AB1F: 0013                     ADD [EBX], DL
0047AB21: 0000                     ADD [EAX], AL
0047AB23: FF00                     INC [EAX]
0047AB25: 0000                     ADD [EAX], AL
0047AB27: 0018                     ADD [EAX], BL
0047AB29: 0000                     ADD [EAX], AL
0047AB2B: FF00                     INC [EAX]
0047AB2D: 0000                     ADD [EAX], AL
0047AB2F: 0017                     ADD [EDI], DL
0047AB31: 0000                     ADD [EAX], AL
0047AB33: FF00                     INC [EAX]
0047AB35: 0000                     ADD [EAX], AL
0047AB37: 000400                   ADD [EAX+EAX], AL
0047AB3A: 00FF                     ADD BH, BH
0047AB3C: 0000                     ADD [EAX], AL
0047AB3E: 0000                     ADD [EAX], AL
0047AB40: 07                       POP ES
0047AB41: 0000                     ADD [EAX], AL
0047AB43: FF00                     INC [EAX]
0047AB45: 0000                     ADD [EAX], AL
0047AB47: 00FF                     ADD BH, BH
0047AB49: FFFF                     INVALID
0047AB4B: 1F                       POP DS
0047AB4C: 0000                     ADD [EAX], AL
0047AB4E: 0000                     ADD [EAX], AL
0047AB50: 0000                     ADD [EAX], AL
0047AB52: 00FF                     ADD BH, BH
0047AB54: 0000                     ADD [EAX], AL
0047AB56: 0000                     ADD [EAX], AL
0047AB58: 150000FF00               ADC EAX, 00FF0000H
0047AB5D: 0000                     ADD [EAX], AL
0047AB5F: 0016                     ADD [ESI], DL
0047AB61: 0000                     ADD [EAX], AL
0047AB63: FF00                     INC [EAX]
0047AB65: 0000                     ADD [EAX], AL
0047AB67: 00050000FF00             ADD [00FF0000H], AL
0047AB6D: 0000                     ADD [EAX], AL
0047AB6F: 0006                     ADD [ESI], AL
0047AB71: 0000                     ADD [EAX], AL
0047AB73: FF00                     INC [EAX]
0047AB75: 0000                     ADD [EAX], AL
0047AB77: 0008                     ADD [EAX], CL
0047AB79: 0000                     ADD [EAX], AL
0047AB7B: FF00                     INC [EAX]
0047AB7D: 0000                     ADD [EAX], AL
0047AB7F: 0000                     ADD [EAX], AL
0047AB81: 0000                     ADD [EAX], AL
0047AB83: 0058AE                   ADD [EAX-52H], BL
0047AB86: 41                       INC ECX
0047AB87: 0060AE                   ADD [EAX-52H], AH
0047AB8A: 41                       INC ECX
0047AB8B: 0078AE                   ADD [EAX-52H], BH
0047AB8E: 41                       INC ECX
0047AB8F: 0068AE                   ADD [EAX-52H], CH
0047AB92: 41                       INC ECX
0047AB93: 0070AE                   ADD [EAX-52H], DH
0047AB96: 41                       INC ECX
0047AB97: 0080AE410098             ADD [EAX-67FFBE52H], AL
0047AB9D: AE                       SCASB 
0047AB9E: 41                       INC ECX
0047AB9F: 0090AE410088             ADD [EAX-77FFBE52H], DL
0047ABA5: AE                       SCASB 
0047ABA6: 41                       INC ECX
0047ABA7: 00A0AE410000             ADD [EAX+000041AEH], AH
0047ABAD: 0000                     ADD [EAX], AL
0047ABAF: 0000                     ADD [EAX], AL
0047ABB1: 0000                     ADD [EAX], AL
0047ABB3: 000400                   ADD [EAX+EAX], AL
0047ABB6: 0000                     ADD [EAX], AL
0047ABB8: 0200                     ADD AL, [EAX]
0047ABBA: 0000                     ADD [EAX], AL
0047ABBC: 0008                     ADD [EAX], CL
0047ABBE: 0000                     ADD [EAX], AL
0047ABC0: 0000                     ADD [EAX], AL
0047ABC2: 0000                     ADD [EAX], AL
0047ABC4: 0100                     ADD [EAX], EAX
0047ABC6: 8BC0                     MOV EAX, EAX
0047ABC8: 20F2                     AND DL, DH
0047ABCA: 42                       INC EDX
0047ABCB: 002CF2                   ADD [EDX+ESI*8], CH
0047ABCE: 42                       INC EDX
0047ABCF: 0088F2420094             ADD [EAX-6BFFBD0EH], CL
0047ABD5: F242                     REPNZ INC EDX
0047ABD7: 00F0                     ADD AL, DH
0047ABD9: F242                     REPNZ INC EDX
0047ABDB: 0000                     ADD [EAX], AL
0047ABDD: 0000                     ADD [EAX], AL
0047ABDF: 0030                     ADD [EAX], DH
0047ABE1: F4                       HLT 
0047ABE2: 42                       INC EDX
0047ABE3: 0074F442                 ADD [ESP+ESI*8+42H], DH
0047ABE7: 0000                     ADD [EAX], AL
0047ABE9: 0000                     ADD [EAX], AL
0047ABEB: 0030                     ADD [EAX], DH
0047ABED: F4                       HLT 
0047ABEE: 42                       INC EDX
0047ABEF: 0080F44200E0             ADD [EAX-1FFFBD0CH], AL
0047ABF5: B94700B0F5               MOV ECX, F5B00047H
0047ABFA: 42                       INC EDX
0047ABFB: 00D0                     ADD AL, DL
0047ABFD: F5                       CMC 
0047ABFE: 42                       INC EDX
0047ABFF: 00F8                     ADD AL, BH
0047AC01: F5                       CMC 
0047AC02: 42                       INC EDX
0047AC03: 0008                     ADD [EAX], CL
0047AC05: F6420014                 TEST BYTE PTR [EDX], 14H
0047AC09: F6420028                 TEST BYTE PTR [EDX], 28H
0047AC0D: F6420034                 TEST BYTE PTR [EDX], 34H
0047AC11: F642004C                 TEST BYTE PTR [EDX], 4CH
0047AC15: F642005C                 TEST BYTE PTR [EDX], 5CH
0047AC19: F6420070                 TEST BYTE PTR [EDX], 70H
0047AC1D: F642007C                 TEST BYTE PTR [EDX], 7CH
0047AC21: F6420088                 TEST BYTE PTR [EDX], 88H
0047AC25: F642009C                 TEST BYTE PTR [EDX], 9CH
0047AC29: F64200A8                 TEST BYTE PTR [EDX], A8H
0047AC2D: F64200BC                 TEST BYTE PTR [EDX], BCH
0047AC31: F64200C8                 TEST BYTE PTR [EDX], C8H
0047AC35: F64200E0                 TEST BYTE PTR [EDX], E0H
0047AC39: F64200F0                 TEST BYTE PTR [EDX], F0H
0047AC3D: F64200F8                 TEST BYTE PTR [EDX], F8H
0047AC41: F642000C                 TEST BYTE PTR [EDX], 0CH
0047AC45: F742001CF74200           TEST [EDX], 0042F71CH
0047AC4C: 2CF7                     SUB AL, F7H
0047AC4E: 42                       INC EDX
0047AC4F: 003CF7                   ADD [EDI+ESI*8], BH
0047AC52: 42                       INC EDX
0047AC53: 0050F7                   ADD [EAX-09H], DL
0047AC56: 42                       INC EDX
0047AC57: 0068F7                   ADD [EAX-09H], CH
0047AC5A: 42                       INC EDX
0047AC5B: 007CF742                 ADD [EDI+ESI*8+42H], BH
0047AC5F: 0000                     ADD [EAX], AL
0047AC61: 0000                     ADD [EAX], AL
0047AC63: 0000                     ADD [EAX], AL
0047AC65: 008000000002             ADD [EAX+02000000H], AL
0047AC6B: 0001                     ADD [ECX], AL
0047AC6D: 008BC0000010             ADD [EBX+100000C0H], CL
0047AC73: 0000                     ADD [EAX], AL
0047AC75: 0010                     ADD [EAX], DL
0047AC77: 0000                     ADD [EAX], AL
0047AC79: 0000                     ADD [EAX], AL
0047AC7B: 0020                     ADD [EAX], AH
0047AC7D: 0000                     ADD [EAX], AL
0047AC7F: 0000                     ADD [EAX], AL
0047AC81: 0000                     ADD [EAX], AL
0047AC83: 0000                     ADD [EAX], AL
0047AC85: 0800                     OR [EAX], AL
0047AC87: 0000                     ADD [EAX], AL
0047AC89: 0000                     ADD [EAX], AL
0047AC8B: 0008                     ADD [EAX], CL
0047AC8D: 0000                     ADD [EAX], AL
0047AC8F: 0010                     ADD [EAX], DL
0047AC91: 0000                     ADD [EAX], AL
0047AC93: 0000                     ADD [EAX], AL
0047AC95: 0100                     ADD [EAX], EAX
0047AC97: 0000                     ADD [EAX], AL
0047AC99: 0000                     ADD [EAX], AL
0047AC9B: 0000                     ADD [EAX], AL
0047AC9D: 0000                     ADD [EAX], AL
0047AC9F: 0000                     ADD [EAX], AL
0047ACA1: 0400                     ADD AL, 00H
0047ACA3: 0002                     ADD [EDX], AL
0047ACA5: 0000                     ADD [EAX], AL
0047ACA7: 0001                     ADD [ECX], AL
0047ACA9: 0000                     ADD [EAX], AL
0047ACAB: 0003                     ADD [EBX], AL
0047ACAD: 0000                     ADD [EAX], AL
0047ACAF: 0013                     ADD [EBX], DL
0047ACB1: 0000                     ADD [EAX], AL
0047ACB3: 0023                     ADD [EBX], AH
0047ACB5: 0000                     ADD [EAX], AL
0047ACB7: 0000                     ADD [EAX], AL
0047ACB9: 0000                     ADD [EAX], AL
0047ACBB: 0000                     ADD [EAX], AL
0047ACBD: 2000                     AND [EAX], AL
0047ACBF: 0000                     ADD [EAX], AL
0047ACC1: 40                       INC EAX
0047ACC2: 0000                     ADD [EAX], AL
0047ACC4: 0000                     ADD [EAX], AL
0047ACC6: 0000                     ADD [EAX], AL
0047ACC8: 0001                     ADD [ECX], AL
0047ACCA: 0000                     ADD [EAX], AL
0047ACCC: 0000                     ADD [EAX], AL
0047ACCE: 0000                     ADD [EAX], AL
0047ACD0: 0800                     OR [EAX], AL
0047ACD2: 0000                     ADD [EAX], AL
0047ACD4: 0400                     ADD AL, 00H
0047ACD6: 0000                     ADD [EAX], AL
0047ACD8: 0000                     ADD [EAX], AL
0047ACDA: 0000                     ADD [EAX], AL
0047ACDC: 0000                     ADD [EAX], AL
0047ACDE: 0000                     ADD [EAX], AL
0047ACE0: 0200                     ADD AL, [EAX]
0047ACE2: 0000                     ADD [EAX], AL
0047ACE4: 0100                     ADD [EAX], EAX
0047ACE6: 0000                     ADD [EAX], AL
0047ACE8: 0000                     ADD [EAX], AL
0047ACEA: 0000                     ADD [EAX], AL
0047ACEC: 0000                     ADD [EAX], AL
0047ACEE: 0000                     ADD [EAX], AL
0047ACF0: 0000                     ADD [EAX], AL
0047ACF2: 0000                     ADD [EAX], AL
0047ACF4: 0010                     ADD [EAX], DL
0047ACF6: 0000                     ADD [EAX], AL
0047ACF8: 004000                   ADD [EAX], AL
0047ACFB: 0000                     ADD [EAX], AL
0047ACFD: 800000                   ADD BYTE PTR [EAX], 00H
0047AD00: 0000                     ADD [EAX], AL
0047AD02: 0000                     ADD [EAX], AL
0047AD04: 2000                     AND [EAX], AL
0047AD06: 0000                     ADD [EAX], AL
0047AD08: 0000                     ADD [EAX], AL
0047AD0A: 0000                     ADD [EAX], AL
0047AD0C: 0000                     ADD [EAX], AL
0047AD0E: 0000                     ADD [EAX], AL
0047AD10: 2000                     AND [EAX], AL
0047AD12: 0000                     ADD [EAX], AL
0047AD14: 0000                     ADD [EAX], AL
0047AD16: 0000                     ADD [EAX], AL
0047AD18: 1000                     ADC [EAX], AL
0047AD1A: 0000                     ADD [EAX], AL
0047AD1C: 2000                     AND [EAX], AL
0047AD1E: 0000                     ADD [EAX], AL
0047AD20: 1000                     ADC [EAX], AL
0047AD22: 0000                     ADD [EAX], AL
0047AD24: 1000                     ADC [EAX], AL
0047AD26: 0000                     ADD [EAX], AL
0047AD28: 0000                     ADD [EAX], AL
0047AD2A: 0000                     ADD [EAX], AL
0047AD2C: 0200                     ADD AL, [EAX]
0047AD2E: 0000                     ADD [EAX], AL
0047AD30: 0000                     ADD [EAX], AL
0047AD32: 0000                     ADD [EAX], AL
0047AD34: 0800                     OR [EAX], AL
0047AD36: 0000                     ADD [EAX], AL
0047AD38: 0000                     ADD [EAX], AL
0047AD3A: 0000                     ADD [EAX], AL
0047AD3C: 0008                     ADD [EAX], CL
0047AD3E: 0000                     ADD [EAX], AL
0047AD40: 0001                     ADD [ECX], AL
0047AD42: 0000                     ADD [EAX], AL
0047AD44: 0000                     ADD [EAX], AL
0047AD46: 0000                     ADD [EAX], AL
0047AD48: 0000                     ADD [EAX], AL
0047AD4A: 0000                     ADD [EAX], AL
0047AD4C: 0002                     ADD [EDX], AL
0047AD4E: 0000                     ADD [EAX], AL
0047AD50: 0000                     ADD [EAX], AL
0047AD52: 0000                     ADD [EAX], AL
0047AD54: 800000                   ADD BYTE PTR [EAX], 00H
0047AD57: 0002                     ADD [EDX], AL
0047AD59: 0000                     ADD [EAX], AL
0047AD5B: 0000                     ADD [EAX], AL
0047AD5D: 0000                     ADD [EAX], AL
0047AD5F: 004000                   ADD [EAX], AL
0047AD62: 0000                     ADD [EAX], AL
0047AD64: 0020                     ADD [EAX], AH
0047AD66: 0000                     ADD [EAX], AL
0047AD68: 0000                     ADD [EAX], AL
0047AD6A: 0000                     ADD [EAX], AL
0047AD6C: 0000                     ADD [EAX], AL
0047AD6E: 0000                     ADD [EAX], AL
0047AD70: 4C                       DEC ESP
0047AD71: B743                     MOV BH, 43H
0047AD73: 0003                     ADD [EBX], AL
0047AD75: 07                       POP ES
0047AD76: 0D0B0E0F03               OR EAX, 030F0E0BH
0047AD7B: 90                       NOP 
0047AD7C: 0000                     ADD [EAX], AL
0047AD7E: 0000                     ADD [EAX], AL
0047AD80: 80BC4300FEFFFFFF         CMP BYTE PTR [EBX+EAX*2-00000200H], FFFFFFFFH
0047AD88: 94                       XCHG ESP, EAX
0047AD89: BC4300FDFF               MOV ESP, FFFD0043H
0047AD8E: FFFF                     INVALID
0047AD90: A4                       MOVSB 
0047AD91: BC4300FCFF               MOV ESP, FFFC0043H
0047AD96: FFFF                     INVALID
0047AD98: B4BC                     MOV AH, BCH
0047AD9A: 43                       INC EBX
0047AD9B: 00FA                     ADD DL, BH
0047AD9D: FFFF                     INVALID
0047AD9F: FFC4                     INC ESP
0047ADA1: BC4300F9FF               MOV ESP, FFF90043H
0047ADA6: FFFF                     INVALID
0047ADA8: D8BC4300F8FFFF           FDIVR REAL4 PTR [EBX+EAX*2-00000800H]
0047ADAF: FFEC                     JMP FAR ESP
0047ADB1: BC4300F7FF               MOV ESP, FFF70043H
0047ADB6: FFFF                     INVALID
0047ADB8: 00BD4300F6FF             ADD [EBP-0009FFBDH], BH
0047ADBE: FFFF                     INVALID
0047ADC0: 14BD                     ADC AL, BDH
0047ADC2: 43                       INC EBX
0047ADC3: 00F5                     ADD CH, DH
0047ADC5: FFFF                     INVALID
0047ADC7: FF28                     JMP FAR [EAX]
0047ADC9: BD4300F4FF               MOV EBP, FFF40043H
0047ADCE: FFFF                     INVALID
0047ADD0: 3CBD                     CMP AL, BDH
0047ADD2: 43                       INC EBX
0047ADD3: 00F3                     ADD BL, DH
0047ADD5: FFFF                     INVALID
0047ADD7: FF4CBD43                 DEC [EBP+EDI*4+43H]
0047ADDB: 00F2                     ADD DL, DH
0047ADDD: FFFF                     INVALID
0047ADDF: FF60BD                   JMP [EAX-43H]
0047ADE2: 43                       INC EBX
0047ADE3: 00F1                     ADD CL, DH
0047ADE5: FFFF                     INVALID
0047ADE7: FF74BD43                 PUSH [EBP+EDI*4+43H]
0047ADEB: 00F0                     ADD AL, DH
0047ADED: FFFF                     INVALID
0047ADEF: FF88BD4300EF             DEC [EAX-10FFBC43H]
0047ADF5: FFFF                     INVALID
0047ADF7: FF9CBD4300EEFF           CALL FAR [EBP+EDI*4-0011FFBDH]
0047ADFE: FFFF                     INVALID
0047AE00: B0BD                     MOV AL, BDH
0047AE02: 43                       INC EBX
0047AE03: 00ED                     ADD CH, CH
0047AE05: FFFF                     INVALID
0047AE07: FFC0                     INC EAX
0047AE09: BD4300ECFF               MOV EBP, FFEC0043H
0047AE0E: FFFF                     INVALID
0047AE10: D4BD                     AAM BDH
0047AE12: 43                       INC EBX
0047AE13: 00EB                     ADD BL, CH
0047AE15: FFFF                     INVALID
0047AE17: FFE4                     JMP ESP
0047AE19: BD4300EAFF               MOV EBP, FFEA0043H
0047AE1E: FFFF                     INVALID
0047AE20: F8                       CLC 
0047AE21: BD4300EAFF               MOV EBP, FFEA0043H
0047AE26: FFFF                     INVALID
0047AE28: 0CBE                     OR AL, BEH
0047AE2A: 43                       INC EBX
0047AE2B: 0000                     ADD [EAX], AL
0047AE2D: 0000                     ADD [EAX], AL
0047AE2F: 009700570001             ADD [EDI+01005700H], DL
0047AE35: 0000                     ADD [EAX], AL
0047AE37: 0000                     ADD [EAX], AL
0047AE39: 0000                     ADD [EAX], AL
0047AE3B: 0008                     ADD [EAX], CL
0047AE3D: 0000                     ADD [EAX], AL
0047AE3F: 000400                   ADD [EAX+EAX], AL
0047AE42: 0000                     ADD [EAX], AL
0047AE44: 0000                     ADD [EAX], AL
0047AE46: 0000                     ADD [EAX], AL
0047AE48: 0000                     ADD [EAX], AL
0047AE4A: 0000                     ADD [EAX], AL
0047AE4C: 0200                     ADD AL, [EAX]
0047AE4E: 0000                     ADD [EAX], AL
0047AE50: 0100                     ADD [EAX], EAX
0047AE52: 0000                     ADD [EAX], AL
0047AE54: 0000                     ADD [EAX], AL
0047AE56: 0000                     ADD [EAX], AL
0047AE58: 0000                     ADD [EAX], AL
0047AE5A: 0000                     ADD [EAX], AL
0047AE5C: 0000                     ADD [EAX], AL
0047AE5E: 0000                     ADD [EAX], AL
0047AE60: 0010                     ADD [EAX], DL
0047AE62: 0000                     ADD [EAX], AL
0047AE64: 004000                   ADD [EAX], AL
0047AE67: 0000                     ADD [EAX], AL
0047AE69: 800000                   ADD BYTE PTR [EAX], 00H
0047AE6C: 0000                     ADD [EAX], AL
0047AE6E: 0000                     ADD [EAX], AL
0047AE70: 0800                     OR [EAX], AL
0047AE72: 0000                     ADD [EAX], AL
0047AE74: 0400                     ADD AL, 00H
0047AE76: 0000                     ADD [EAX], AL
0047AE78: 0000                     ADD [EAX], AL
0047AE7A: 0800                     OR [EAX], AL
0047AE7C: 0001                     ADD [ECX], AL
0047AE7E: 0102                     ADD [EDX], EAX
0047AE80: 0200                     ADD AL, [EAX]
0047AE82: 009000000100             ADD [EAX+00010000H], DL
0047AE88: 0100                     ADD [EAX], EAX
0047AE8A: 0090FFFFFFFF             ADD [EAX-00000001H], DL
0047AE90: 0000                     ADD [EAX], AL
0047AE92: F1                       ICEBP 
0047AE93: FFF2                     PUSH EDX
0047AE95: FF8BC0000000             DEC [EBX+000000C0H]
0047AE9B: 0000                     ADD [EAX], AL
0047AE9D: 0809                     OR [ECX], CL
0047AE9F: 030B                     ADD ECX, [EBX]
0047AEA1: 0901                     OR [ECX], EAX
0047AEA3: 0902                     OR [EDX], EAX
0047AEA5: 0000                     ADD [EAX], AL
0047AEA7: 000400                   ADD [EAX+EAX], AL
0047AEAA: 0000                     ADD [EAX], AL
0047AEAC: 0000                     ADD [EAX], AL
0047AEAE: 0000                     ADD [EAX], AL
0047AEB0: 0100                     ADD [EAX], EAX
0047AEB2: 0000                     ADD [EAX], AL
0047AEB4: 0000                     ADD [EAX], AL
0047AEB6: 0000                     ADD [EAX], AL
0047AEB8: 1000                     ADC [EAX], AL
0047AEBA: 0000                     ADD [EAX], AL
0047AEBC: 0000                     ADD [EAX], AL
0047AEBE: 0000                     ADD [EAX], AL
0047AEC0: 0100                     ADD [EAX], EAX
0047AEC2: 0000                     ADD [EAX], AL
0047AEC4: 40                       INC EAX
0047AEC5: E344                     JECXZ 47AF0BH
0047AEC7: 0000                     ADD [EAX], AL
0047AEC9: 018BC0000100             ADD [EBX+000100C0H], ECX
0047AECF: 90                       NOP 
0047AED0: 0100                     ADD [EAX], EAX
0047AED2: 8BC0                     MOV EAX, EAX
0047AED4: 0100                     ADD [EAX], EAX
0047AED6: 019000000000             ADD [EAX], EDX
0047AEDC: 0000                     ADD [EAX], AL
0047AEDE: 0000                     ADD [EAX], AL
0047AEE0: 0000                     ADD [EAX], AL
0047AEE2: 0000                     ADD [EAX], AL
0047AEE4: 0000                     ADD [EAX], AL
0047AEE6: 0000                     ADD [EAX], AL
0047AEE8: 0000                     ADD [EAX], AL
0047AEEA: 0000                     ADD [EAX], AL
0047AEEC: 0000                     ADD [EAX], AL
0047AEEE: 0000                     ADD [EAX], AL
0047AEF0: 0000                     ADD [EAX], AL
0047AEF2: 0000                     ADD [EAX], AL
0047AEF4: 0000                     ADD [EAX], AL
0047AEF6: 0000                     ADD [EAX], AL
0047AEF8: 0000                     ADD [EAX], AL
0047AEFA: 0000                     ADD [EAX], AL
0047AEFC: 0000                     ADD [EAX], AL
0047AEFE: 0000                     ADD [EAX], AL
0047AF00: 0000                     ADD [EAX], AL
0047AF02: 0000                     ADD [EAX], AL
0047AF04: 0000                     ADD [EAX], AL
0047AF06: 0000                     ADD [EAX], AL
0047AF08: 0000                     ADD [EAX], AL
0047AF0A: 0000                     ADD [EAX], AL
0047AF0C: 0000                     ADD [EAX], AL
0047AF0E: 0000                     ADD [EAX], AL
0047AF10: 0000                     ADD [EAX], AL
0047AF12: 0000                     ADD [EAX], AL
0047AF14: 0000                     ADD [EAX], AL
0047AF16: 0000                     ADD [EAX], AL
0047AF18: 0000                     ADD [EAX], AL
0047AF1A: 0000                     ADD [EAX], AL
0047AF1C: 0000                     ADD [EAX], AL
0047AF1E: 0000                     ADD [EAX], AL
0047AF20: 0000                     ADD [EAX], AL
0047AF22: 0000                     ADD [EAX], AL
0047AF24: 0800                     OR [EAX], AL
0047AF26: 0000                     ADD [EAX], AL
0047AF28: 0300                     ADD EAX, [EAX]
0047AF2A: 0000                     ADD [EAX], AL
0047AF2C: 0000                     ADD [EAX], AL
0047AF2E: 0000                     ADD [EAX], AL
0047AF30: 0000                     ADD [EAX], AL
0047AF32: 0000                     ADD [EAX], AL
0047AF34: 40                       INC EAX
0047AF35: 0000                     ADD [EAX], AL
0047AF37: 0020                     ADD [EAX], AH
0047AF39: 0000                     ADD [EAX], AL
0047AF3B: 0000                     ADD [EAX], AL
0047AF3D: 0000                     ADD [EAX], AL
0047AF3F: 0000                     ADD [EAX], AL
0047AF41: 0800                     OR [EAX], AL
0047AF43: 0000                     ADD [EAX], AL
0047AF45: 0000                     ADD [EAX], AL
0047AF47: 004000                   ADD [EAX], AL
0047AF4A: 0000                     ADD [EAX], AL
0047AF4C: 2000                     AND [EAX], AL
0047AF4E: 0000                     ADD [EAX], AL
0047AF50: 0000                     ADD [EAX], AL
0047AF52: 0000                     ADD [EAX], AL
0047AF54: 0800                     OR [EAX], AL
0047AF56: 0000                     ADD [EAX], AL
0047AF58: 0000                     ADD [EAX], AL
0047AF5A: 0000                     ADD [EAX], AL
0047AF5C: 0010                     ADD [EAX], DL
0047AF5E: 0000                     ADD [EAX], AL
0047AF60: 0300                     ADD EAX, [EAX]
0047AF62: 0000                     ADD [EAX], AL
0047AF64: 0000                     ADD [EAX], AL
0047AF66: 0000                     ADD [EAX], AL
0047AF68: 0000                     ADD [EAX], AL
0047AF6A: 0000                     ADD [EAX], AL
0047AF6C: 0002                     ADD [EDX], AL
0047AF6E: 0000                     ADD [EAX], AL
0047AF70: 0000                     ADD [EAX], AL
0047AF72: 0000                     ADD [EAX], AL
0047AF74: 0008                     ADD [EAX], CL
0047AF76: 0000                     ADD [EAX], AL
0047AF78: 0000                     ADD [EAX], AL
0047AF7A: 0000                     ADD [EAX], AL
0047AF7C: 006000                   ADD [EAX], AH
0047AF7F: 0000                     ADD [EAX], AL
0047AF81: 0000                     ADD [EAX], AL
0047AF83: 0000                     ADD [EAX], AL
0047AF85: 0100                     ADD [EAX], EAX
0047AF87: 0000                     ADD [EAX], AL
0047AF89: 0002                     ADD [EDX], AL
0047AF8B: 0001                     ADD [ECX], AL
0047AF8D: 008BC0040000             ADD [EBX+000004C0H], CL
0047AF93: 0002                     ADD [EDX], AL
0047AF95: 0000                     ADD [EAX], AL
0047AF97: 0000                     ADD [EAX], AL
0047AF99: 0002                     ADD [EDX], AL
0047AF9B: 0001                     ADD [ECX], AL
0047AF9D: 008BC0000008             ADD [EBX+080000C0H], CL
0047AFA3: 000400                   ADD [EAX+EAX], AL
0047AFA6: 0800                     OR [EAX], AL
0047AFA8: 0000                     ADD [EAX], AL
0047AFAA: 0400                     ADD AL, 00H
0047AFAC: 0200                     ADD AL, [EAX]
0047AFAE: 0000                     ADD [EAX], AL
0047AFB0: 98                       CWDE 
0047AFB1: B143                     MOV CL, 43H
0047AFB3: 0000                     ADD [EAX], AL
0047AFB5: 0000                     ADD [EAX], AL
0047AFB7: 0001                     ADD [ECX], AL
0047AFB9: 8D4000                   LEA EAX, [EAX]
0047AFBC: 0000                     ADD [EAX], AL
0047AFBE: 0000                     ADD [EAX], AL
0047AFC0: 0000                     ADD [EAX], AL
0047AFC2: 0000                     ADD [EAX], AL
0047AFC4: 0000                     ADD [EAX], AL
0047AFC6: 0000                     ADD [EAX], AL
0047AFC8: 0000                     ADD [EAX], AL
0047AFCA: 0000                     ADD [EAX], AL
0047AFCC: 0000                     ADD [EAX], AL
0047AFCE: 0000                     ADD [EAX], AL
0047AFD0: 1500000002               ADC EAX, 02000000H
0047AFD5: 0000                     ADD [EAX], AL
0047AFD7: 0003                     ADD [EBX], AL
0047AFD9: 0000                     ADD [EAX], AL
0047AFDB: 001400                   ADD [EAX+EAX], DL
0047AFDE: 0000                     ADD [EAX], AL
0047AFE0: 0002                     ADD [EDX], AL
0047AFE2: 0000                     ADD [EAX], AL
0047AFE4: 0200                     ADD AL, [EAX]
0047AFE6: 0000                     ADD [EAX], AL
0047AFE8: 1000                     ADC [EAX], AL
0047AFEA: 0000                     ADD [EAX], AL
0047AFEC: 0400                     ADD AL, 00H
0047AFEE: 0000                     ADD [EAX], AL
0047AFF0: 800000                   ADD BYTE PTR [EAX], 00H
0047AFF3: 0000                     ADD [EAX], AL
0047AFF5: 0100                     ADD [EAX], EAX
0047AFF7: 0001                     ADD [ECX], AL
0047AFF9: 0000                     ADD [EAX], AL
0047AFFB: 0020                     ADD [EAX], AH
0047AFFD: 0000                     ADD [EAX], AL
0047AFFF: 0008                     ADD [EAX], CL
0047B001: 0000                     ADD [EAX], AL
0047B003: 004000                   ADD [EAX], AL
0047B006: 0000                     ADD [EAX], AL
0047B008: 0000                     ADD [EAX], AL
0047B00A: 0000                     ADD [EAX], AL
0047B00C: 0100                     ADD [EAX], EAX
0047B00E: 0000                     ADD [EAX], AL
0047B010: 0200                     ADD AL, [EAX]
0047B012: 0000                     ADD [EAX], AL
0047B014: 0000                     ADD [EAX], AL
0047B016: 0000                     ADD [EAX], AL
0047B018: 0000                     ADD [EAX], AL
0047B01A: 800001                   ADD BYTE PTR [EAX], 01H
0047B01D: 0000                     ADD [EAX], AL
0047B01F: 0006                     ADD [ESI], AL
0047B021: 0000                     ADD [EAX], AL
0047B023: 0003                     ADD [EBX], AL
0047B025: 0000                     ADD [EAX], AL
0047B027: 000400                   ADD [EAX+EAX], AL
0047B02A: 0000                     ADD [EAX], AL
0047B02C: 07                       POP ES
0047B02D: 0000                     ADD [EAX], AL
0047B02F: 0003                     ADD [EBX], AL
0047B031: 0000                     ADD [EAX], AL
0047B033: 0001                     ADD [ECX], AL
0047B035: 0000                     ADD [EAX], AL
0047B037: 0007                     ADD [EDI], AL
0047B039: 0000                     ADD [EAX], AL
0047B03B: 0003                     ADD [EBX], AL
0047B03D: 0000                     ADD [EAX], AL
0047B03F: 0000                     ADD [EAX], AL
0047B041: 0000                     ADD [EAX], AL
0047B043: 0002                     ADD [EDX], AL
0047B045: 0000                     ADD [EAX], AL
0047B047: 0000                     ADD [EAX], AL
0047B049: 0000                     ADD [EAX], AL
0047B04B: 0001                     ADD [ECX], AL
0047B04D: 0000                     ADD [EAX], AL
0047B04F: 00867F0000F9             ADD [ESI-06FFFF81H], AL
0047B055: 7F00                     JNLE 47B057H
0047B057: 008B7F00008A             ADD [EBX-75FFFF81H], CL
0047B05D: 7F00                     JNLE 47B05FH
0047B05F: 00887F0000FA             ADD [EAX-05FFFF81H], CL
0047B065: 7F00                     JNLE 47B067H
0047B067: 00FB                     ADD BL, BH
0047B069: 7F00                     JNLE 47B06BH
0047B06B: 00FC                     ADD AH, BH
0047B06D: 7F00                     JNLE 47B06FH
0047B06F: 00FD                     ADD CH, BH
0047B071: 7F00                     JNLE 47B073H
0047B073: 00FF                     ADD BH, BH
0047B075: 7F00                     JNLE 47B077H
0047B077: 00FE                     ADD DH, BH
0047B079: 7F00                     JNLE 47B07BH
0047B07B: 0002                     ADD [EDX], AL
0047B07D: 7F00                     JNLE 47B07FH
0047B07F: 00047F                   ADD [EDI+EDI*2], AL
0047B082: 0000                     ADD [EAX], AL
0047B084: 847F00                   TEST BH, [EDI]
0047B087: 00827F000085             ADD [EDX-7AFFFF81H], AL
0047B08D: 7F00                     JNLE 47B08FH
0047B08F: 00837F000086             ADD [EBX-79FFFF81H], AL
0047B095: 7F00                     JNLE 47B097H
0047B097: 0001                     ADD [ECX], AL
0047B099: 7F00                     JNLE 47B09BH
0047B09B: 0003                     ADD [EBX], AL
0047B09D: 7F00                     JNLE 47B09FH
0047B09F: 0000                     ADD [EAX], AL
0047B0A1: 7F00                     JNLE 47B0A3H
0047B0A3: 0000                     ADD [EAX], AL
0047B0A5: 0000                     ADD [EAX], AL
0047B0A7: 002C66                   ADD CH, [ESI+*2]
0047B0AA: 40                       INC EAX
0047B0AB: 0000                     ADD [EAX], AL
0047B0AD: 0000                     ADD [EAX], AL
0047B0AF: 0000                     ADD [EAX], AL
0047B0B1: 0000                     ADD [EAX], AL
0047B0B3: 0000                     ADD [EAX], AL
0047B0B5: 0000                     ADD [EAX], AL
0047B0B7: 0000                     ADD [EAX], AL
0047B0B9: 0000                     ADD [EAX], AL
0047B0BB: 0000                     ADD [EAX], AL
0047B0BD: 0000                     ADD [EAX], AL
0047B0BF: 0000                     ADD [EAX], AL
0047B0C1: 0000                     ADD [EAX], AL
0047B0C3: 0000                     ADD [EAX], AL
0047B0C5: 0000                     ADD [EAX], AL
0047B0C7: 00D0                     ADD AL, DL
0047B0C9: DD4500                   FLD REAL8 PTR [EBP]
0047B0CC: 008D40009700             ADD [EBP+00970040H], CL
0047B0D2: 57                       PUSH EDI
0047B0D3: 0001                     ADD [ECX], AL
0047B0D5: 0002                     ADD [EDX], AL
0047B0D7: 000400                   ADD [EAX+EAX], AL
0047B0DA: 0800                     OR [EAX], AL
0047B0DC: 1000                     ADC [EAX], AL
0047B0DE: 2000                     AND [EAX], AL
0047B0E0: 0000                     ADD [EAX], AL
0047B0E2: 8BC0                     MOV EAX, EAX
0047B0E4: 2C6F                     SUB AL, 6FH
0047B0E6: 40                       INC EAX
0047B0E7: 004C6E40                 ADD [ESI+EBP*2+40H], CL
0047B0EB: 00B40C4100946E           ADD [ESP+ECX+6E940041H], DH
0047B0F2: 40                       INC EAX
0047B0F3: 00946D40007C6F           ADD [EBP+EBP*2+6F7C0040H], DL
0047B0FA: 40                       INC EAX
0047B0FB: 00BC6F40002470           ADD [EDI+EBP*2+70240040H], BH
0047B102: 40                       INC EAX
0047B103: 0058AF                   ADD [EAX-51H], BL
0047B106: 41                       INC ECX
0047B107: 0034D0                   ADD [EAX+EDX*8], DH
0047B10A: 47                       INC EDI
0047B10B: 004C6F40                 ADD [EDI+EBP*2+40H], CL
0047B10F: 00F8                     ADD AL, BH
0047B111: AF                       SCASD 
0047B112: 41                       INC ECX
0047B113: 0028                     ADD [EAX], CH
0047B115: B041                     MOV AL, 41H
0047B117: 00E0                     ADD AL, AH
0047B119: AF                       SCASD 
0047B11A: 41                       INC ECX
0047B11B: 0010                     ADD [EAX], DL
0047B11D: B041                     MOV AL, 41H
0047B11F: 0090AE410028             ADD [EAX+280041AEH], DL
0047B125: D04700                   ROL BYTE PTR [EDI], 01H
0047B128: 30B04100CC6E             XOR [EAX+6ECC0041H], DH
0047B12E: 40                       INC EAX
0047B12F: 0030                     ADD [EAX], DH
0047B131: AF                       SCASD 
0047B132: 41                       INC ECX
0047B133: 0010                     ADD [EAX], DL
0047B135: B047                     MOV AL, 47H
0047B137: 003470                   ADD [EAX+ESI*2], DH
0047B13A: 40                       INC EAX
0047B13B: 0044D047                 ADD [EAX+EDX*8+47H], AL
0047B13F: 0008                     ADD [EAX], CL
0047B141: D04700                   ROL BYTE PTR [EDI], 01H
0047B144: 58                       POP EAX
0047B145: AE                       SCASB 
0047B146: 41                       INC ECX
0047B147: 004CD947                 ADD [ECX+EBX*8+47H], CL
0047B14B: 00D8                     ADD AL, BL
0047B14D: AF                       SCASD 
0047B14E: 41                       INC ECX
0047B14F: 000C70                   ADD [EAX+ESI*2], CL
0047B152: 40                       INC EAX
0047B153: 00C8                     ADD AL, CL
0047B155: AF                       SCASD 
0047B156: 41                       INC ECX
0047B157: 00346F                   ADD [EDI+EBP*2], DH
0047B15A: 40                       INC EAX
0047B15B: 0008                     ADD [EAX], CL
0047B15D: AE                       SCASB 
0047B15E: 41                       INC ECX
0047B15F: 0048B0                   ADD [EAX-50H], CL
0047B162: 41                       INC ECX
0047B163: 00E8                     ADD AL, CH
0047B165: AF                       SCASD 
0047B166: 41                       INC ECX
0047B167: 00C4                     ADD AH, AL
0047B169: 6E                       OUTSB 
0047B16A: 40                       INC EAX
0047B16B: 00A46E400008AF           ADD [ESI+EBP*2-50F7FFC0H], AH
0047B172: 41                       INC ECX
0047B173: 00A8AD410088             ADD [EAX-77FFBE53H], CH
0047B179: AE                       SCASB 
0047B17A: 41                       INC ECX
0047B17B: 00EC                     ADD AH, CH
0047B17D: D7                       XLAT 
0047B17E: 47                       INC EDI
0047B17F: 00E8                     ADD AL, CH
0047B181: AE                       SCASB 
0047B182: 41                       INC ECX
0047B183: 00E0                     ADD AL, AH
0047B185: AE                       SCASB 
0047B186: 41                       INC ECX
0047B187: 00D8                     ADD AL, BL
0047B189: AE                       SCASB 
0047B18A: 41                       INC ECX
0047B18B: 00AC6D4000F0AD           ADD [EBP+EBP*2-520FFFC0H], CH