00401000: EB16                     JMP 401018H
00401002: 0C53                     OR AL, 53H
00401004: 0000                     ADD [EAX], AL
00401006: 42                       INC EDX
00401007: 48                       DEC EAX
00401008: 41                       INC ECX
00401009: 41                       INC ECX
0040100A: 4B                       DEC EBX
0040100B: 50                       PUSH EAX
0040100C: 4C                       DEC ESP
0040100D: 4B                       DEC EBX
0040100E: 0012                     ADD [EDX], DL
00401010: 0548594252               ADD EAX, 52425948H
00401015: 49                       DEC ECX
00401016: 53                       PUSH EBX
00401017: 00FC                     ADD AH, BH
00401019: 684C704000               PUSH 0040704CH -> KERNEL32.dll
0040101E: FF1500704000             CALL [00407000H] ; GetModuleHandleA
00401024: A30A234000               MOV [40230AH], EAX
00401029: 83C484                   ADD ESP, FFFFFF84H
0040102C: 8BCC                     MOV ECX, ESP
0040102E: 50                       PUSH EAX
0040102F: E87C000000               CALL 004010B0H
00401034: 5E                       POP ESI
00401035: A1350A27DA               MOV EAX, [DA270A35H]
0040103A: 1CFA                     SBB AL, FAH
0040103C: 37                       AAA 
0040103D: C890E748                 ENTER E790H, 48H
00401041: B5C9                     MOV CH, C9H
00401043: EE                       OUT DX, AL
00401044: DDC5                     FFREE ST(5)
00401046: 3B14ED38A46FF8           CMP EDX, [EBP*8-07905BC8H]
0040104D: 67D373EA                 INVALID
00401051: 51                       PUSH ECX
00401052: F4                       HLT 
00401053: EE                       OUT DX, AL
00401054: A2FC0B8934               MOV [34890BFCH], AL
00401059: E222                     LOOP 40107DH
0040105B: 3EBC42E02AB9             MOV ESP, B92AE042H
00401061: DC7E6C                   FDIVR REAL8 PTR [ESI+6CH]
00401064: 3577CC5E35               XOR EAX, 355ECC77H
00401069: 60                       PUSHAD 
0040106A: B85C09AC50               MOV EAX, 50AC095CH
0040106F: 18AC71E34A25CB           SBB [ECX+ESI*2-34DAB51DH], CH
00401076: 1B72EF                   SBB ESI, [EDX-11H]
00401079: FB                       STI 
0040107A: 07                       POP ES
0040107B: 4A                       DEC EDX
0040107C: 4F                       DEC EDI
0040107D: 58                       POP EAX
0040107E: 7072                     JO 4010F2H
00401080: B393                     MOV BL, 93H
00401082: 7C3E                     JL 4010C2H
00401084: EB76                     JMP 4010FCH
00401086: E180                     LOOPZ 401008H
00401088: 6392EFB1E27B             ARPL EDX, [EDX+7BE2B1EFH]
0040108E: 1444                     ADC AL, 44H
00401090: 18A414DB94EDBC           SBB [ESP+EDX-43126B25H], AH
00401097: 3E215D00                 AND DS:[EBP], EBX
0040109B: D3AD7EEFA738             SHR DWORD PTR [EBP+38A7EF7EH], CL
004010A1: 66C718252E               INVALID
004010A6: 3D5D607E92               CMP EAX, 927E605DH
004010AB: D520                     AAD 20H
004010AD: 2697                     XCHG EDI, EAX
004010AF: 4E                       DEC ESI
004010B0: 51                       PUSH ECX
004010B1: 6A1F                     PUSH 0000001FH
004010B3: E8D6080000               CALL 0040198EH
004010B8: 6A03                     PUSH 00000003H
004010BA: C744247C2083B8ED         MOV [ESP+7CH], EDB88320H
004010C2: 5D                       POP EBP
004010C3: 312D2B174000             XOR [0040172BH], EBP
004010C9: 312D51174000             XOR [00401751H], EBP
004010CF: 8B2D02104000             MOV EBP, [00401002H]
004010D5: 6A40                     PUSH 00000040H
004010D7: 6800300000               PUSH 00003000H
004010DC: 55                       PUSH EBP
004010DD: 6A00                     PUSH 00000000H
004010DF: FF542448                 CALL [ESP+48H]
004010E3: 85C0                     TEST EAX, EAX
004010E5: 0F84CA040000             JZ 004015B5H
004010EB: 50                       PUSH EAX
004010EC: 55                       PUSH EBP
004010ED: 50                       PUSH EAX
004010EE: FF542448                 CALL [ESP+48H]
004010F2: 012C24                   ADD [ESP], EBP
004010F5: 5F                       POP EDI
004010F6: 85C0                     TEST EAX, EAX
004010F8: 8DB500104000             LEA ESI, [EBP+00401000H]
004010FE: 0F85B1040000             JNZ 004015B5H
00401104: 684C4C0000               PUSH 00004C4CH
00401109: 6833322E44               PUSH 442E3233H
0040110E: 685753325F               PUSH 5F325357H
00401113: 54                       PUSH ESP
00401114: FF542430                 CALL [ESP+30H]
00401118: 85C0                     TEST EAX, EAX
0040111A: 58                       POP EAX
0040111B: 58                       POP EAX
0040111C: 58                       POP EAX
0040111D: 0F8492040000             JZ 004015B5H
00401123: 50                       PUSH EAX
00401124: FF542428                 CALL [ESP+28H]
00401128: FD                       STD 
00401129: 87E9                     XCHG EBP, ECX
0040112B: F3A4                     REP MOVSB 
0040112D: C607EB                   MOV BYTE PTR [EDI], EBH
00401130: 81C738010000             ADD EDI, 00000138H
00401136: FFE7                     JMP EDI
00401138: FC                       CLD 
00401139: E8BF070000               CALL 004018FDH
0040113E: C6859C050000EB           MOV BYTE PTR [EBP+0000059CH], EBH
00401145: C685F40100003C           MOV BYTE PTR [EBP+000001F4H], 3CH
0040114C: 898D98050000             MOV [EBP+00000598H], ECX
00401152: 81EC04010000             SUB ESP, 00000104H
00401158: 8BF4                     MOV ESI, ESP
0040115A: 81C4C0FEFFFF             ADD ESP, FFFFFEC0H
00401160: 6804010000               PUSH 00000104H
00401165: 56                       PUSH ESI
00401166: FF942490020000           CALL [ESP+00000290H]
0040116D: 85C0                     TEST EAX, EAX
0040116F: 0F8422040000             JZ 00401597H
00401175: 8D3C06                   LEA EDI, [ESI+EAX]
00401178: B85C57534F               MOV EAX, 4F53575CH
0040117D: AB                       STOSD 
0040117E: 351F1C607D               XOR EAX, 7D601C1FH
00401183: AB                       STOSD 
00401184: 356D0F7F7E               XOR EAX, 7E7F0F6DH
00401189: AB                       STOSD 
0040118A: 2BC0                     SUB EAX, EAX
0040118C: AB                       STOSD 
0040118D: 54                       PUSH ESP
0040118E: 56                       PUSH ESI
0040118F: FF94248C020000           CALL [ESP+0000028CH]
00401196: 8BD8                     MOV EBX, EAX
00401198: 43                       INC EBX
00401199: 0F84F8030000             JZ 00401597H
0040119F: 2BED                     SUB EBP, EBP
004011A1: 50                       PUSH EAX
004011A2: FF94249C020000           CALL [ESP+0000029CH]
004011A9: 396C241C                 CMP [ESP+1CH], EBP
004011AD: 0F85E4030000             JNZ 00401597H
004011B3: 6A12                     PUSH 00000012H
004011B5: 8B442424                 MOV EAX, [ESP+24H]
004011B9: 2BD2                     SUB EDX, EDX
004011BB: 59                       POP ECX
004011BC: F7F1                     DIV ECX
004011BE: 83FA10                   CMP EDX, 00000010H
004011C1: 0F84C5030000             JZ 0040158CH
004011C7: 6880000000               PUSH 00000080H
004011CC: 56                       PUSH ESI
004011CD: FF94247C020000           CALL [ESP+0000027CH]
004011D4: 85C0                     TEST EAX, EAX
004011D6: 741C                     JZ 4011F4H
004011D8: 55                       PUSH EBP
004011D9: 6880000000               PUSH 00000080H
004011DE: 6A03                     PUSH 00000003H
004011E0: 55                       PUSH EBP
004011E1: 55                       PUSH EBP
004011E2: 68000000C0               PUSH C0000000H
004011E7: 56                       PUSH ESI
004011E8: FF942478020000           CALL [ESP+00000278H]
004011EF: 8BD8                     MOV EBX, EAX
004011F1: 40                       INC EAX
004011F2: 756E                     JNZ 401262H
004011F4: EB67                     JMP 40125DH
004011F6: 6804010000               PUSH 00000104H
004011FB: 6A40                     PUSH 00000040H
004011FD: FF9424B4020000           CALL [ESP+000002B4H]
00401204: 85C0                     TEST EAX, EAX
00401206: 7455                     JZ 40125DH
00401208: E8F0060000               CALL 004018FDH
0040120D: C685F4010000EB           MOV BYTE PTR [EBP+000001F4H], EBH
00401214: 898598050000             MOV [EBP+00000598H], EAX
0040121A: C6859C0500003C           MOV BYTE PTR [EBP+0000059CH], 3CH
00401221: 33FF                     XOR EDI, EDI
00401223: 97                       XCHG EDI, EAX
00401224: E894080000               CALL 00401ABDH
00401229: 57                       PUSH EDI
0040122A: 56                       PUSH ESI
0040122B: F3A4                     REP MOVSB 
0040122D: 83EF0B                   SUB EDI, 0000000BH
00401230: 8D7506                   LEA ESI, [EBP+06H]
00401233: A5                       MOVSD 
00401234: A5                       MOVSD 
00401235: AB                       STOSD 
00401236: 5F                       POP EDI
00401237: 5E                       POP ESI
00401238: 6A01                     PUSH 00000001H
0040123A: 56                       PUSH ESI
0040123B: 57                       PUSH EDI
0040123C: FF9424C0020000           CALL [ESP+000002C0H]
00401243: 85C0                     TEST EAX, EAX
00401245: 0F8542FFFFFF             JNZ 0040118DH
0040124B: C78424BC02000000000000   MOV [ESP+000002BCH], 00000000H
00401256: C6859C050000EB           MOV BYTE PTR [EBP+0000059CH], EBH
0040125D: E916030000               JMP 00401578H
00401262: 53                       PUSH EBX
00401263: 8B742424                 MOV ESI, [ESP+24H]
00401267: 81C600000100             ADD ESI, 00010000H
0040126D: 55                       PUSH EBP
0040126E: 56                       PUSH ESI
0040126F: 55                       PUSH EBP
00401270: 6A04                     PUSH 00000004H
00401272: 55                       PUSH EBP
00401273: 53                       PUSH EBX
00401274: FF942474020000           CALL [ESP+00000274H]
0040127B: 85C0                     TEST EAX, EAX
0040127D: 0F84D6020000             JZ 00401559H
00401283: 50                       PUSH EAX
00401284: 56                       PUSH ESI
00401285: 55                       PUSH EBP
00401286: 55                       PUSH EBP
00401287: 6A02                     PUSH 00000002H
00401289: 50                       PUSH EAX
0040128A: FF942470020000           CALL [ESP+00000270H]
00401291: 85C0                     TEST EAX, EAX
00401293: 0F849C020000             JZ 00401535H
00401299: 50                       PUSH EAX
0040129A: FF74242C                 PUSH [ESP+2CH]
0040129E: 50                       PUSH EAX
0040129F: FF942494020000           CALL [ESP+00000294H]
004012A6: 85C0                     TEST EAX, EAX
004012A8: 8B0424                   MOV EAX, [ESP]
004012AB: 0F857D020000             JNZ 0040152EH
004012B1: 60                       PUSHAD 
004012B2: 0FB718                   MOVZX EBX, WORD PTR [EAX]
004012B5: 03403C                   ADD EAX, [EAX+3CH]
004012B8: 50                       PUSH EAX
004012B9: 68F8000000               PUSH 000000F8H
004012BE: 50                       PUSH EAX
004012BF: FF9424B8020000           CALL [ESP+000002B8H]
004012C6: 85C0                     TEST EAX, EAX
004012C8: 58                       POP EAX
004012C9: 0F855E020000             JNZ 0040152DH
004012CF: 3318                     XOR EBX, [EAX]
004012D1: E827060000               CALL 004018FDH
004012D6: 81F31D1F0000             XOR EBX, 00001F1DH
004012DC: 8B4D02                   MOV ECX, [EBP+02H]
004012DF: 0F8548020000             JNZ 0040152DH
004012E5: 66F7401600213140         TEST WORD PTR [EAX+16H], 40312100H
004012ED: 080F                     OR [EDI], CL
004012EF: B758                     MOV BH, 58H
004012F1: 06                       PUSH ES
004012F2: 0F8435020000             JZ 0040152DH
004012F8: 6BDB28                   IMUL EBX, 28H
004012FB: 8D9418F8000000           LEA EDX, [EAX+EBX+000000F8H]
00401302: 8B7AEC                   MOV EDI, [EDX-14H]
00401305: 8B6AE4                   MOV EBP, [EDX-1CH]
00401308: 8B5AE8                   MOV EBX, [EDX-18H]
0040130B: 014AE8                   ADD [EDX-18H], ECX
0040130E: 014AE0                   ADD [EDX-20H], ECX
00401311: C742FC400000C0           MOV [EDX-04H], C0000040H
00401318: 8B7038                   MOV ESI, [EAX+38H]
0040131B: 4E                       DEC ESI
0040131C: 0172E0                   ADD [EDX-20H], ESI
0040131F: F7D6                     NOT ESI
00401321: 2172E0                   AND [EDX-20H], ESI
00401324: 8B72E8                   MOV ESI, [EDX-18H]
00401327: 3972E0                   CMP [EDX-20H], ESI
0040132A: 7305                     JNB 401331H
0040132C: 8972E0                   MOV [EDX-20H], ESI
0040132F: EBE7                     JMP 401318H
00401331: 51                       PUSH ECX
00401332: 8B4AE0                   MOV ECX, [EDX-20H]
00401335: 034AE4                   ADD ECX, [EDX-1CH]
00401338: 894850                   MOV [EAX+50H], ECX
0040133B: 59                       POP ECX
0040133C: 03FB                     ADD EDI, EBX
0040133E: 8D541D00                 LEA EDX, [EBP+EBX]
00401342: 8DAAD0120000             LEA EBP, [EDX+000012D0H]
00401348: 037C241C                 ADD EDI, [ESP+1CH]
0040134C: 52                       PUSH EDX
0040134D: 55                       PUSH EBP
0040134E: E8AA050000               CALL 004018FDH
00401353: 8BF5                     MOV ESI, EBP
00401355: 51                       PUSH ECX
00401356: F3A4                     REP MOVSB 
00401358: 5D                       POP EBP
00401359: 2BFD                     SUB EDI, EBP
0040135B: 8997F7120000             MOV [EDI+000012F7H], EDX
00401361: 2BF5                     SUB ESI, EBP
00401363: 5D                       POP EBP
00401364: 876828                   XCHG EBP, [EAX+28H]
00401367: 89BEE1030000             MOV [ESI+000003E1H], EDI
0040136D: 89AFE3120000             MOV [EDI+000012E3H], EBP
00401373: 95                       XCHG EBP, EAX
00401374: 8B442450                 MOV EAX, [ESP+50H]
00401378: 6A12                     PUSH 00000012H
0040137A: 034D3C                   ADD ECX, [EBP+3CH]
0040137D: 49                       DEC ECX
0040137E: 03C1                     ADD EAX, ECX
00401380: F7D1                     NOT ECX
00401382: 55                       PUSH EBP
00401383: E875050000               CALL 004018FDH
00401388: 034502                   ADD EAX, [EBP+02H]
0040138B: 23C1                     AND EAX, ECX
0040138D: 2BD2                     SUB EDX, EDX
0040138F: 5D                       POP EBP
00401390: 59                       POP ECX
00401391: F7F1                     DIV ECX
00401393: 99                       CDQ 
00401394: 40                       INC EAX
00401395: 40                       INC EAX
00401396: F7E1                     MUL ECX
00401398: 48                       DEC EAX
00401399: 48                       DEC EAX
0040139A: 89442450                 MOV [ESP+50H], EAX
0040139E: FF742424                 PUSH [ESP+24H]
004013A2: 8DB504010000             LEA ESI, [EBP+00000104H]
004013A8: 0FB74D06                 MOVZX ECX, WORD PTR [EBP+06H]
004013AC: 8B7D78                   MOV EDI, [EBP+78H]
004013AF: 8BDF                     MOV EBX, EDI
004013B1: AD                       LODSD 
004013B2: 50                       PUSH EAX
004013B3: 2BD8                     SUB EBX, EAX
004013B5: AD                       LODSD 
004013B6: 2BD8                     SUB EBX, EAX
004013B8: 7206                     JB 4013C0H
004013BA: 58                       POP EAX
004013BB: 83EEE0                   SUB ESI, FFFFFFE0H
004013BE: E2EF                     LOOP 4013AFH
004013C0: AD                       LODSD 
004013C1: 50                       PUSH EAX
004013C2: E82E040000               CALL 004017F5H
004013C7: 317F04                   XOR [EDI+04H], EDI
004013CA: 8B7F1C                   MOV EDI, [EDI+1CH]
004013CD: E823040000               CALL 004017F5H
004013D2: 5E                       POP ESI
004013D3: 5E                       POP ESI
004013D4: 87CD                     XCHG ECX, EBP
004013D6: E822050000               CALL 004018FDH
004013DB: 5B                       POP EBX
004013DC: 5E                       POP ESI
004013DD: 53                       PUSH EBX
004013DE: 6A03                     PUSH 00000003H
004013E0: BB2083B8ED               MOV EBX, EDB88320H
004013E5: 5D                       POP EBP
004013E6: 8D866E0B0000             LEA EAX, [ESI+00000B6EH]
004013EC: 8BD0                     MOV EDX, EAX
004013EE: 8704AF                   XCHG EAX, [EDI+EBP*4]
004013F1: 83EDF4                   SUB EBP, FFFFFFF4H
004013F4: 2BC2                     SUB EAX, EDX
004013F6: 83E85D                   SUB EAX, 0000005DH
004013F9: 8983C70B0000             MOV [EBX+00000BC7H], EAX
004013FF: 8D86361E0000             LEA EAX, [ESI+00001E36H]
00401405: 8BD0                     MOV EDX, EAX
00401407: 8704AF                   XCHG EAX, [EDI+EBP*4]
0040140A: 45                       INC EBP
0040140B: 2BC2                     SUB EAX, EDX
0040140D: 2DDE000000               SUB EAX, 000000DEH
00401412: 8983101F0000             MOV [EBX+00001F10H], EAX
00401418: 8D86EF110000             LEA EAX, [ESI+000011EFH]
0040141E: 45                       INC EBP
0040141F: 8BD0                     MOV EDX, EAX
00401421: 45                       INC EBP
00401422: 8704AF                   XCHG EAX, [EDI+EBP*4]
00401425: 2BC2                     SUB EAX, EDX
00401427: 2D81000000               SUB EAX, 00000081H
0040142C: 89836C120000             MOV [EBX+0000126CH], EAX
00401432: 8D86E7120000             LEA EAX, [ESI+000012E7H]
00401438: 8B93E3120000             MOV EDX, [EBX+000012E3H]
0040143E: 2983E3120000             SUB [EBX+000012E3H], EAX
00401444: 85D2                     TEST EDX, EDX
00401446: 7506                     JNZ 40144EH
00401448: 8993E3120000             MOV [EBX+000012E3H], EDX
0040144E: 6800010000               PUSH 00000100H
00401453: E873070000               CALL 00401BCBH
00401458: FEC4                     INC AH
0040145A: 81EB70ECFFFF             SUB EBX, FFFFEC70H
00401460: 898374FFFFFF             MOV [EBX-0000008CH], EAX
00401466: 96                       XCHG ESI, EAX
00401467: 52                       PUSH EDX
00401468: 89936FFFFFFF             MOV [EBX-00000091H], EDX
0040146E: 5F                       POP EDI
0040146F: 85FF                     TEST EDI, EDI
00401471: 750A                     JNZ 40147DH
00401473: 8BF2                     MOV ESI, EDX
00401475: 89B374FFFFFF             MOV [EBX-0000008CH], ESI
0040147B: EB1D                     JMP 40149AH
0040147D: 03B90C010000             ADD EDI, [ECX+0000010CH]
00401483: 2BB904010000             SUB EDI, [ECX+00000104H]
00401489: 033C24                   ADD EDI, [ESP]
0040148C: 8B07                     MOV EAX, [EDI]
0040148E: 8943CC                   MOV [EBX-34H], EAX
00401491: 6AFF                     PUSH FFFFFFFFH
00401493: E833070000               CALL 00401BCBH
00401498: 8903                     MOV [EBX], EAX
0040149A: 87F1                     XCHG ESI, ECX
0040149C: E308                     JECXZ 4014A6H
0040149E: 0007                     ADD [EDI], AL
004014A0: AE                       SCASB 
004014A1: C1C808                   ROR EAX, 08H
004014A4: E2F8                     LOOP 40149EH
004014A6: 87F1                     XCHG ESI, ECX
004014A8: 5B                       POP EBX
004014A9: 897158                   MOV [ECX+58H], ESI
004014AC: 89B424E8020000           MOV [ESP+000002E8H], ESI
004014B3: 8B6C244C                 MOV EBP, [ESP+4CH]
004014B7: 87F3                     XCHG ESI, EBX
004014B9: 55                       PUSH EBP
004014BA: 87CD                     XCHG ECX, EBP
004014BC: D1E9                     SHR ECX, 01H
004014BE: 66AD                     LODSW 
004014C0: 6603D0                   ADD DX, AX
004014C3: 6683D200                 ADC DX, 0000H
004014C7: E2F5                     LOOP 4014BEH
004014C9: 58                       POP EAX
004014CA: 03C2                     ADD EAX, EDX
004014CC: 894558                   MOV [EBP+58H], EAX
004014CF: E829040000               CALL 004018FDH
004014D4: 80BDF40100003C           CMP BYTE PTR [EBP+000001F4H], 3CH
004014DB: 7450                     JZ 40152DH
004014DD: 8DB4246C010000           LEA ESI, [ESP+0000016CH]
004014E4: 6A04                     PUSH 00000004H
004014E6: 56                       PUSH ESI
004014E7: FFB598050000             PUSH [EBP+00000598H]
004014ED: FF9424D8020000           CALL [ESP+000002D8H]
004014F4: 85C0                     TEST EAX, EAX
004014F6: 752E                     JNZ 401526H
004014F8: 686D650000               PUSH 0000656DH
004014FD: 6852656E61               PUSH 616E6552H
00401502: 8BCC                     MOV ECX, ESP
00401504: 68494E4900               PUSH 00494E49H
00401509: 684E49542E               PUSH 2E54494EH
0040150E: 6857494E49               PUSH 494E4957H
00401513: 54                       PUSH ESP
00401514: FFB598050000             PUSH [EBP+00000598H]
0040151A: 56                       PUSH ESI
0040151B: 51                       PUSH ECX
0040151C: FF9424EC020000           CALL [ESP+000002ECH]
00401523: 83C414                   ADD ESP, 00000014H
00401526: C6859C050000EB           MOV BYTE PTR [EBP+0000059CH], EBH
0040152D: 61                       POPAD 
0040152E: FF9424BC020000           CALL [ESP+000002BCH]
00401535: FF942468020000           CALL [ESP+00000268H]
0040153C: 2BED                     SUB EBP, EBP
0040153E: 55                       PUSH EBP
0040153F: 55                       PUSH EBP
00401540: FF74242C                 PUSH [ESP+2CH]
00401544: FF74240C                 PUSH [ESP+0CH]
00401548: FF942484020000           CALL [ESP+00000284H]
0040154F: FF3424                   PUSH [ESP]
00401552: FF942494020000           CALL [ESP+00000294H]
00401559: 8D442418                 LEA EAX, [ESP+18H]
0040155D: 50                       PUSH EAX
0040155E: 83E808                   SUB EAX, 00000008H
00401561: 50                       PUSH EAX
00401562: 83E808                   SUB EAX, 00000008H
00401565: 50                       PUSH EAX
00401566: FF74240C                 PUSH [ESP+0CH]
0040156A: FF94248C020000           CALL [ESP+0000028CH]
00401571: FF942464020000           CALL [ESP+00000264H]
00401578: 8D9C2440010000           LEA EBX, [ESP+00000140H]
0040157F: FF3424                   PUSH [ESP]
00401582: 53                       PUSH EBX
00401583: FF94247C020000           CALL [ESP+0000027CH]
0040158A: EB0B                     JMP 401597H
0040158C: C78424BC02000000000000   MOV [ESP+000002BCH], 00000000H
00401597: 68E8005100               PUSH 005100E8H
0040159C: 3C0A                     CMP AL, 0AH
0040159E: FF3424                   PUSH [ESP]
004015A1: FF9424C0020000           CALL [ESP+000002C0H]
004015A8: FF942470020000           CALL [ESP+00000270H]
004015AF: 81C444020000             ADD ESP, 00000244H
004015B5: BF04010000               MOV EDI, 00000104H
004015BA: 2BE7                     SUB ESP, EDI
004015BC: 8BDC                     MOV EBX, ESP
004015BE: 2BE7                     SUB ESP, EDI
004015C0: 8BEC                     MOV EBP, ESP
004015C2: 57                       PUSH EDI
004015C3: 55                       PUSH EBP
004015C4: 6A00                     PUSH 00000000H
004015C6: FF942478020000           CALL [ESP+00000278H]
004015CD: 57                       PUSH EDI
004015CE: 53                       PUSH EBX
004015CF: FF942454020000           CALL [ESP+00000254H]
004015D6: 8BC8                     MOV ECX, EAX
004015D8: 8BD1                     MOV EDX, ECX
004015DA: 8BFB                     MOV EDI, EBX
004015DC: 8BF5                     MOV ESI, EBP
004015DE: AC                       LODSB 
004015DF: 3A07                     CMP AL, [EDI]
004015E1: 7406                     JZ 4015E9H
004015E3: 3420                     XOR AL, 20H
004015E5: 3807                     CMP [EDI], AL
004015E7: 7503                     JNZ 4015ECH
004015E9: 47                       INC EDI
004015EA: E2F2                     LOOP 4015DEH
004015EC: 8D3C13                   LEA EDI, [EBX+EDX]
004015EF: B05C                     MOV AL, 5CH
004015F1: AA                       STOSB 
004015F2: B84450434C               MOV EAX, 4C435044H
004015F7: AB                       STOSD 
004015F8: B84549504F               MOV EAX, 4F504945H
004015FD: AB                       STOSD 
004015FE: B8D1BAA7BA               MOV EAX, BAA7BAD1H
00401603: F7D0                     NOT EAX
00401605: AB                       STOSD 
00401606: 2BC0                     SUB EAX, EAX
00401608: AB                       STOSD 
00401609: 83BC248002000000         CMP [ESP+00000280H], 00000000H
00401611: 0F8468010000             JZ 0040177FH
00401617: 85C9                     TEST ECX, ECX
00401619: 0F84B9000000             JZ 004016D8H
0040161F: 6A03                     PUSH 00000003H
00401621: 6800000080               PUSH 80000000H
00401626: 55                       PUSH EBP
00401627: E8A8010000               CALL 004017D4H
0040162C: 8BF0                     MOV ESI, EAX
0040162E: 40                       INC EAX
0040162F: 0F8490010000             JZ 004017C5H
00401635: 6800000200               PUSH 00020000H
0040163A: 6A40                     PUSH 00000040H
0040163C: FF942478020000           CALL [ESP+00000278H]
00401643: 8BF8                     MOV EDI, EAX
00401645: 6A00                     PUSH 00000000H
00401647: E8B1020000               CALL 004018FDH
0040164C: 81ED7AF9FFFF             SUB EBP, FFFFF97AH
00401652: 55                       PUSH EBP
00401653: 6800000200               PUSH 00020000H
00401658: 57                       PUSH EDI
00401659: 56                       PUSH ESI
0040165A: FF942468020000           CALL [ESP+00000268H]
00401661: 56                       PUSH ESI
00401662: FF942428020000           CALL [ESP+00000228H]
00401669: 6A02                     PUSH 00000002H
0040166B: 6800000040               PUSH 40000000H
00401670: 53                       PUSH EBX
00401671: E85E010000               CALL 004017D4H
00401676: 8BE8                     MOV EBP, EAX
00401678: 40                       INC EAX
00401679: 7455                     JZ 4016D0H
0040167B: 8DB42400010000           LEA ESI, [ESP+00000100H]
00401682: 6A00                     PUSH 00000000H
00401684: 56                       PUSH ESI
00401685: 682083B8ED               PUSH EDB88320H
0040168A: 57                       PUSH EDI
0040168B: 55                       PUSH EBP
0040168C: FF94246C020000           CALL [ESP+0000026CH]
00401693: 50                       PUSH EAX
00401694: 50                       PUSH EAX
00401695: 6AFF                     PUSH FFFFFFFFH
00401697: 6AFF                     PUSH FFFFFFFFH
00401699: E82D050000               CALL 00401BCBH
0040169E: 0FB7D0                   MOVZX EDX, AX
004016A1: E825050000               CALL 00401BCBH
004016A6: 0FB7C0                   MOVZX EAX, AX
004016A9: 80E40F                   AND AH, 0FH
004016AC: 80C41E                   ADD AH, 1EH
004016AF: 54                       PUSH ESP
004016B0: 52                       PUSH EDX
004016B1: 50                       PUSH EAX
004016B2: FF94247C020000           CALL [ESP+0000027CH]
004016B9: 8BC4                     MOV EAX, ESP
004016BB: 50                       PUSH EAX
004016BC: 50                       PUSH EAX
004016BD: 50                       PUSH EAX
004016BE: 55                       PUSH EBP
004016BF: FF942454020000           CALL [ESP+00000254H]
004016C6: 58                       POP EAX
004016C7: 58                       POP EAX
004016C8: 55                       PUSH EBP
004016C9: FF942428020000           CALL [ESP+00000228H]
004016D0: 57                       PUSH EDI
004016D1: FF942434020000           CALL [ESP+00000234H]
004016D8: 6A00                     PUSH 00000000H
004016DA: 6850493332               PUSH 32334950H
004016DF: 6841445641               PUSH 41564441H
004016E4: 54                       PUSH ESP
004016E5: FF942438020000           CALL [ESP+00000238H]
004016EC: 59                       POP ECX
004016ED: 59                       POP ECX
004016EE: 59                       POP ECX
004016EF: 68513C4ECE               PUSH CE4E3C51H
004016F4: 685ED2B69E               PUSH 9EB6D25EH
004016F9: 68D9B0AEC2               PUSH C2AEB0D9H
004016FE: 8BCC                     MOV ECX, ESP
00401700: 83EC0C                   SUB ESP, 0000000CH
00401703: 8BD4                     MOV EDX, ESP
00401705: 50                       PUSH EAX
00401706: 51                       PUSH ECX
00401707: 52                       PUSH EDX
00401708: 6A03                     PUSH 00000003H
0040170A: E87F020000               CALL 0040198EH
0040170F: 5E                       POP ESI
00401710: 5B                       POP EBX
00401711: 5F                       POP EDI
00401712: 83C40C                   ADD ESP, 0000000CH
00401715: 54                       PUSH ESP
00401716: 54                       PUSH ESP
00401717: 6806000200               PUSH 00020006H
0040171C: 6A00                     PUSH 00000000H
0040171E: E8DA010000               CALL 004018FDH
00401723: 81EDFEF7FFFF             SUB EBP, FFFFF7FEH
00401729: 55                       PUSH EBP
0040172A: 6801000080               PUSH 80000001H
0040172F: 56                       PUSH ESI
00401730: 8BF5                     MOV ESI, EBP
00401732: 6A10                     PUSH 00000010H
00401734: 59                       POP ECX
00401735: 81362083B8ED             XOR [ESI], EDB88320H
0040173B: AD                       LODSD 
0040173C: E2F7                     LOOP 401735H
0040173E: 5E                       POP ESI
0040173F: FFD6                     CALL ESI
00401741: 5A                       POP EDX
00401742: 85C0                     TEST EAX, EAX
00401744: 7416                     JZ 40175CH
00401746: 50                       PUSH EAX
00401747: 54                       PUSH ESP
00401748: 6806000200               PUSH 00020006H
0040174D: 6A00                     PUSH 00000000H
0040174F: 55                       PUSH EBP
00401750: 6802000080               PUSH 80000002H
00401755: FFD6                     CALL ESI
00401757: 85C0                     TEST EAX, EAX
00401759: 5A                       POP EDX
0040175A: 7569                     JNZ 4017C5H
0040175C: 52                       PUSH EDX
0040175D: 8DB42408010000           LEA ESI, [ESP+00000108H]
00401764: 56                       PUSH ESI
00401765: E853030000               CALL 00401ABDH
0040176A: 870C24                   XCHG ECX, [ESP]
0040176D: 51                       PUSH ECX
0040176E: 6A01                     PUSH 00000001H
00401770: 6A00                     PUSH 00000000H
00401772: 6A00                     PUSH 00000000H
00401774: 52                       PUSH EDX
00401775: FFD3                     CALL EBX
00401777: FFD7                     CALL EDI
00401779: 81F12083B8ED             XOR ECX, EDB88320H
0040177F: 85C9                     TEST ECX, ECX
00401781: 7542                     JNZ 4017C5H
00401783: 8BEC                     MOV EBP, ESP
00401785: 6A04                     PUSH 00000004H
00401787: 6A00                     PUSH 00000000H
00401789: 55                       PUSH EBP
0040178A: FF942470020000           CALL [ESP+00000270H]
00401791: 85C0                     TEST EAX, EAX
00401793: 7530                     JNZ 4017C5H
00401795: 684E554C00               PUSH 004C554EH
0040179A: 8BCC                     MOV ECX, ESP
0040179C: 686D650000               PUSH 0000656DH
004017A1: 6852656E61               PUSH 616E6552H
004017A6: 8BD4                     MOV EDX, ESP
004017A8: 68494E4900               PUSH 00494E49H
004017AD: 684E49542E               PUSH 2E54494EH
004017B2: 6857494E49               PUSH 494E4957H
004017B7: 54                       PUSH ESP
004017B8: 55                       PUSH EBP
004017B9: 51                       PUSH ECX
004017BA: 52                       PUSH EDX
004017BB: FF942488020000           CALL [ESP+00000288H]
004017C2: 83C418                   ADD ESP, 00000018H
004017C5: 81C408020000             ADD ESP, 00000208H
004017CB: 680C634000               PUSH 0040630CH
004017D0: C3                       RET 
004017D1: C27400                   RETN 0074H
004017D4: 2BC0                     SUB EAX, EAX
004017D6: 50                       PUSH EAX
004017D7: 6880000000               PUSH 00000080H
004017DC: FF742414                 PUSH [ESP+14H]
004017E0: 50                       PUSH EAX
004017E1: 6A03                     PUSH 00000003H
004017E3: FF74241C                 PUSH [ESP+1CH]
004017E7: FF74241C                 PUSH [ESP+1CH]
004017EB: FF94244C020000           CALL [ESP+0000024CH]
004017F2: C20C00                   RETN 000CH
004017F5: 037C2404                 ADD EDI, [ESP+04H]
004017F9: 2B7C2408                 SUB EDI, [ESP+08H]
004017FD: 037C240C                 ADD EDI, [ESP+0CH]
00401801: C3                       RET 
00401802: 73EC                     JNB 4017F0H
00401804: DE9957E2CA88             FICOMP WORD PTR [ECX-77351DA9H]
0040180A: 7CCE                     JL 4017DAH
0040180C: D18E52ECCB82             ROR [ESI-7D3413AEH], 01H
00401812: 46                       INC ESI
00401813: F7E4                     MUL ESP
00401815: BA49EDDC82               MOV EDX, 82DCED49H
0040181A: 57                       PUSH EDI
0040181B: F0E4AE                   LOCK IN AL, AEH
0040181E: 55                       PUSH EBP
0040181F: F1                       ICEBP 
00401820: CA884E                   RETF 4E88H
00401823: F7EE                     IMUL ESI
00401825: 8852F0                   MOV [EDX-10H], DL
00401828: D1824EDFEA98             ROL [EDX-671520B2H], 01H
0040182E: 4E                       DEC ESI
0040182F: CC                       INT 3 
00401830: D6                       SETALC 
00401831: 8E4583                   MOV ES, [EBP-7DH]
00401834: B8ED08E091               MOV EAX, 91E008EDH
00401839: CD76                     INT 76H
0040183B: E6DB                     OUT DBH, AL
0040183D: 834183B8                 ADD [ECX-7DH], FFFFFFB8H
00401841: ED                       IN EAX, DX
00401842: 60                       PUSHAD 
00401843: 87FE                     XCHG EDI, ESI
00401845: 8BEE                     MOV EBP, ESI
00401847: 8B5D00                   MOV EBX, [EBP]
0040184A: 8B7504                   MOV ESI, [EBP+04H]
0040184D: 33C9                     XOR ECX, ECX
0040184F: 8BC6                     MOV EAX, ESI
00401851: C1E004                   SHL EAX, 04H
00401854: 8BD6                     MOV EDX, ESI
00401856: C1EA05                   SHR EDX, 05H
00401859: 33C2                     XOR EAX, EDX
0040185B: 8BD6                     MOV EDX, ESI
0040185D: 33D1                     XOR EDX, ECX
0040185F: 03C2                     ADD EAX, EDX
00401861: 8BD1                     MOV EDX, ECX
00401863: 83E203                   AND EDX, 00000003H
00401866: 030497                   ADD EAX, [EDI+EDX*4]
00401869: 03D8                     ADD EBX, EAX
0040186B: 81C1B979379E             ADD ECX, 9E3779B9H
00401871: 8BD3                     MOV EDX, EBX
00401873: C1E204                   SHL EDX, 04H
00401876: 8BC3                     MOV EAX, EBX
00401878: C1E805                   SHR EAX, 05H
0040187B: 33D0                     XOR EDX, EAX
0040187D: 8BC3                     MOV EAX, EBX
0040187F: 33C1                     XOR EAX, ECX
00401881: 03D0                     ADD EDX, EAX
00401883: 8BC1                     MOV EAX, ECX
00401885: C1E80B                   SHR EAX, 0BH
00401888: 83E003                   AND EAX, 00000003H
0040188B: 031487                   ADD EDX, [EDI+EAX*4]
0040188E: 03F2                     ADD ESI, EDX
00401890: 81F92037EFC6             CMP ECX, C6EF3720H
00401896: 75B7                     JNZ 40184FH
00401898: 895D00                   MOV [EBP], EBX
0040189B: 897504                   MOV [EBP+04H], ESI
0040189E: 61                       POPAD 
0040189F: C3                       RET 
004018A0: 60                       PUSHAD 
004018A1: 87FE                     XCHG EDI, ESI
004018A3: 8BEE                     MOV EBP, ESI
004018A5: 8B5D00                   MOV EBX, [EBP]
004018A8: 8B7504                   MOV ESI, [EBP+04H]
004018AB: B92037EFC6               MOV ECX, C6EF3720H
004018B0: 8BD3                     MOV EDX, EBX
004018B2: C1E204                   SHL EDX, 04H
004018B5: 8BC3                     MOV EAX, EBX
004018B7: C1E805                   SHR EAX, 05H
004018BA: 33D0                     XOR EDX, EAX
004018BC: 8BC3                     MOV EAX, EBX
004018BE: 33C1                     XOR EAX, ECX
004018C0: 03D0                     ADD EDX, EAX
004018C2: 8BC1                     MOV EAX, ECX
004018C4: C1E80B                   SHR EAX, 0BH
004018C7: 83E003                   AND EAX, 00000003H
004018CA: 031487                   ADD EDX, [EDI+EAX*4]
004018CD: 2BF2                     SUB ESI, EDX
004018CF: 81C14786C861             ADD ECX, 61C88647H
004018D5: 8BC6                     MOV EAX, ESI
004018D7: C1E004                   SHL EAX, 04H
004018DA: 8BD6                     MOV EDX, ESI
004018DC: C1EA05                   SHR EDX, 05H
004018DF: 33C2                     XOR EAX, EDX
004018E1: 8BD6                     MOV EDX, ESI
004018E3: 33D1                     XOR EDX, ECX
004018E5: 03C2                     ADD EAX, EDX
004018E7: 8BD1                     MOV EDX, ECX
004018E9: 83E203                   AND EDX, 00000003H
004018EC: 030497                   ADD EAX, [EDI+EDX*4]
004018EF: 2BD8                     SUB EBX, EAX
004018F1: 85C9                     TEST ECX, ECX
004018F3: 75BB                     JNZ 4018B0H
004018F5: 895D00                   MOV [EBP], EBX
004018F8: 897504                   MOV [EBP+04H], ESI
004018FB: 61                       POPAD 
004018FC: C3                       RET 
004018FD: E800000000               CALL 00401902H
00401902: 5D                       POP EBP
00401903: 81C5FEF6FFFF             ADD EBP, FFFFF6FEH
00401909: C3                       RET 
0040190A: 41                       INC ECX
0040190B: EB56                     JMP 401963H
0040190D: F3D0852EDF6B9A           REP ROL BYTE PTR [EBP-659420D2H], 01H
00401914: F348                     REP DEC EAX
00401916: 120E                     ADC CL, [ESI]
00401918: AA                       STOSB 
00401919: F7BDF01B7280             IDIV [EBP-7F8DE410H]
0040191F: BDA8B15094               MOV EBP, 9450B1A8H
00401924: D245E7                   ROL [EBP-19H], CL
00401927: 7445                     JZ 40196EH
00401929: C7BFE02119E59B224A8F     INVALID
00401933: F1                       ICEBP 
00401934: 0CD0                     OR AL, D0H
00401936: 36098BCC2C7233           OR SS:[EBX+33722CCCH], ECX
0040193D: 3247CF                   XOR AL, [EDI-31H]
00401940: B29A                     MOV DL, 9AH
00401942: 51                       PUSH ECX
00401943: 8B84E81C6B9808           MOV EAX, [EAX+EBP*8+08986B1CH]
0040194A: F8                       CLC 
0040194B: 3D846FFBB1               CMP EAX, B1FB6F84H
00401950: 7D33                     JNL 401985H
00401952: 0F0E                     INVALID
00401954: 7ABE                     JPE 401914H
00401956: 40                       INC EAX
00401957: 699E0D9726F7D7EEA5F9     IMUL EBX, [ESI-08D968F3H], F9A5EED7H
00401961: 768D                     JBE 4018F0H
00401963: A13C2011F9               MOV EAX, [F911203CH]
00401968: 2D65BAC3E5               SUB EAX, E5C3BA65H
0040196D: 41                       INC ECX
0040196E: 63A460B0386DEB           ARPL ESP, [EAX+*2]
00401975: F75287                   NOT [EDX-79H]
00401978: A9260A88E5               TEST EAX, E5880A26H
0040197D: 6D                       INSD 
0040197E: 3C17                     CMP AL, 17H
00401980: 4A                       DEC EDX
00401981: 95                       XCHG EBP, EAX
00401982: 777B                     JNBE 4019FFH
00401984: 43                       INC EBX
00401985: 1333                     ADC ESI, [EBX]
00401987: 8F876C000000             POP [EDI+0000006CH]
0040198D: 008B5424108B             ADD [EBX-74EFDBACH], CL
00401993: 723C                     JB 4019D1H
00401995: 8D743278                 LEA ESI, [EDX+ESI+78H]
00401999: 8B36                     MOV ESI, [ESI]
0040199B: 8D741618                 LEA ESI, [ESI+EDX+18H]
0040199F: AD                       LODSD 
004019A0: 50                       PUSH EAX
004019A1: AD                       LODSD 
004019A2: 50                       PUSH EAX
004019A3: AD                       LODSD 
004019A4: 93                       XCHG EBX, EAX
004019A5: 5D                       POP EBP
004019A6: 59                       POP ECX
004019A7: AD                       LODSD 
004019A8: 96                       XCHG ESI, EAX
004019A9: 87F3                     XCHG ESI, EBX
004019AB: F7DA                     NEG EDX
004019AD: 2BF2                     SUB ESI, EDX
004019AF: 2BEA                     SUB EBP, EDX
004019B1: 2BDA                     SUB EBX, EDX
004019B3: 2BFF                     SUB EDI, EDI
004019B5: 47                       INC EDI
004019B6: AD                       LODSD 
004019B7: 60                       PUSHAD 
004019B8: 2BC2                     SUB EAX, EDX
004019BA: 96                       XCHG ESI, EAX
004019BB: 6A00                     PUSH 00000000H
004019BD: 59                       POP ECX
004019BE: AC                       LODSB 
004019BF: 84C0                     TEST AL, AL
004019C1: 7414                     JZ 4019D7H
004019C3: 32C8                     XOR CL, AL
004019C5: B008                     MOV AL, 08H
004019C7: D1E9                     SHR ECX, 01H
004019C9: 7306                     JNB 4019D1H
004019CB: 81F12083B8ED             XOR ECX, EDB88320H
004019D1: FEC8                     DEC AL
004019D3: 75F2                     JNZ 4019C7H
004019D5: EBE7                     JMP 4019BEH
004019D7: 8B74242C                 MOV ESI, [ESP+2CH]
004019DB: 8B542424                 MOV EDX, [ESP+24H]
004019DF: 87D1                     XCHG EDX, ECX
004019E1: AD                       LODSD 
004019E2: 2BC2                     SUB EAX, EDX
004019E4: 7409                     JZ 4019EFH
004019E6: E2F9                     LOOP 4019E1H
004019E8: 61                       POPAD 
004019E9: 49                       DEC ECX
004019EA: 75C9                     JNZ 4019B5H
004019EC: C21000                   RETN 0010H
004019EF: 4F                       DEC EDI
004019F0: 0FB7047B                 MOVZX EAX, WORD PTR [EBX+EDI*2]
004019F4: 8B448500                 MOV EAX, [EBP+EAX*4]
004019F8: 03442430                 ADD EAX, [ESP+30H]
004019FC: 8B742428                 MOV ESI, [ESP+28H]
00401A00: 49                       DEC ECX
00401A01: 89048E                   MOV [ESI+ECX*4], EAX
00401A04: EBE2                     JMP 4019E8H
00401A06: 4D                       DEC EBP
00401A07: 385A90                   CMP [EDX-70H], BL
00401A0A: 3803                     CMP [EBX], AL
00401A0C: 66020409                 ADD AL, [ECX+ECX]
00401A10: 71FF                     JNO 401A11H
00401A12: 81B8C2910140C215C680     CMP [EAX+400191C2H], 80C615C2H
00401A1C: 090E                     OR [ESI], ECX
00401A1E: B44C                     MOV AH, 4CH
00401A20: CD21                     INT 21H
00401A22: 1501EB1850               ADC EAX, 5018EB01H
00401A27: 45                       INC EBP
00401A28: 084C0153                 OR [ECX+EAX+53H], CL
00401A2C: 0214CE                   ADD DL, [ESI+ECX*8]
00401A2F: E003                     LOOPNZ 401A34H
00401A31: 0F010B                   SIDT WORD PTR [EBX]
00401A34: 95                       XCHG EBP, EAX
00401A35: 6C                       INSB 
00401A36: 2910                     SUB [EAX], EDX
00401A38: A6                       CMPSB 
00401A39: 04A5                     ADD AL, A5H
00401A3B: 9E                       SAHF 
00401A3C: 280CC8                   SUB [EAX+ECX*8], CL
00401A3F: 6F                       OUTSD 
00401A40: 04EF                     ADD AL, EFH
00401A42: 142C                     ADC AL, 2CH
00401A44: E202                     LOOP 401A48H
00401A46: 9C                       PUSHFD 
00401A47: 07                       POP ES
00401A48: DC53E9                   FCOM REAL8 PTR [EBX-17H]
00401A4B: 08CA                     OR DL, CL
00401A4D: 47                       INC EDI
00401A4E: 5B                       POP EBX
00401A4F: 3E0308                   ADD ECX, DS:[EAX]
00401A52: E7D2                     OUT D2H, EAX
00401A54: 280A                     SUB [EDX], CL
00401A56: 01F5                     ADD EBP, ESI
00401A58: 40                       INC EAX
00401A59: 2E7465                   JZ 401AC1H
00401A5C: 78E7                     JS 401A45H
00401A5E: AB                       STOSD 
00401A5F: 0E                       PUSH CS
00401A60: 91                       XCHG ECX, EAX
00401A61: C9                       LEAVE 
00401A62: 3C07                     CMP AL, 07H
00401A64: E020                     LOOPNZ 401A86H
00401A66: 92                       XCHG EDX, EAX
00401A67: 0B07                     OR EAX, [EDI]
00401A69: 2E7264                   JB 401AD0H
00401A6C: 61                       POPAD 
00401A6D: 742A                     JZ 401A99H
00401A6F: 2451                     AND AL, 51H
00401A71: 5A                       POP EDX
00401A72: 4A                       DEC EDX
00401A73: 4C                       DEC ESP
00401A74: D24E0E                   ROR [ESI+0EH], CL
00401A77: C01501FFAAEFE0           RCL BYTE PTR [EFAAFF01H], E0H
00401A7E: CC                       INT 3 
00401A7F: FF25E0107041             JMP [417010E0H]
00401A85: 7438                     JZ 401ABFH
00401A87: 54                       PUSH ESP
00401A88: 010F                     ADD [EDI], ECX
00401A8A: 30D5                     XOR CH, DL
00401A8C: 101B                     ADC [EBX], BL
00401A8E: CA4C0C                   RETF 0C4CH
00401A91: 35202F3756               XOR EAX, 56372F20H
00401A96: 303B                     XOR [EBX], BH
00401A98: 11804765744D             ADC [EAX+4D746547H], EAX
00401A9E: 6F                       OUTSD 
00401A9F: 647577                   JNZ 401B19H
00401AA2: 6C                       INSB 
00401AA3: 1D48616EF6               SBB EAX, F66E6148H
00401AA8: 0C96                     OR AL, 96H
00401AAA: E04B                     LOOPNZ 401AF7H
00401AAC: 1C45                     SBB AL, 45H
00401AAE: 52                       PUSH EDX
00401AAF: 4E                       DEC ESI
00401AB0: C3                       RET 
00401AB1: 4C                       DEC ESP
00401AB2: 3332                     XOR ESI, [EDX]
00401AB4: 2E711E                   JNO 401AD5H
00401AB7: 9B                       WAIT 
00401AB8: 07                       POP ES
00401AB9: 7753                     JNBE 401B0EH
00401ABB: 0000                     ADD [EAX], AL
00401ABD: 56                       PUSH ESI
00401ABE: 50                       PUSH EAX
00401ABF: 2BC9                     SUB ECX, ECX
00401AC1: AC                       LODSB 
00401AC2: 84C0                     TEST AL, AL
00401AC4: 7403                     JZ 401AC9H
00401AC6: 41                       INC ECX
00401AC7: EBF8                     JMP 401AC1H
00401AC9: 58                       POP EAX
00401ACA: 5E                       POP ESI
00401ACB: C3                       RET 
00401ACC: 60                       PUSHAD 
00401ACD: 8B742424                 MOV ESI, [ESP+24H]
00401AD1: 8B7C2428                 MOV EDI, [ESP+28H]
00401AD5: FC                       CLD 
00401AD6: B280                     MOV DL, 80H
00401AD8: A4                       MOVSB 
00401AD9: E868000000               CALL 00401B46H
00401ADE: 73F8                     JNB 401AD8H
00401AE0: 33C9                     XOR ECX, ECX
00401AE2: E85F000000               CALL 00401B46H
00401AE7: 731A                     JNB 401B03H
00401AE9: 33C0                     XOR EAX, EAX
00401AEB: E856000000               CALL 00401B46H
00401AF0: 7320                     JNB 401B12H
00401AF2: 41                       INC ECX
00401AF3: B010                     MOV AL, 10H
00401AF5: E84C000000               CALL 00401B46H
00401AFA: 12C0                     ADC AL, AL
00401AFC: 73F7                     JNB 401AF5H
00401AFE: 753C                     JNZ 401B3CH
00401B00: AA                       STOSB 
00401B01: EBD6                     JMP 401AD9H
00401B03: E84A000000               CALL 00401B52H
00401B08: 49                       DEC ECX
00401B09: E210                     LOOP 401B1BH
00401B0B: E840000000               CALL 00401B50H
00401B10: EB28                     JMP 401B3AH
00401B12: AC                       LODSB 
00401B13: D1E8                     SHR EAX, 01H
00401B15: 744B                     JZ 401B62H
00401B17: 13C9                     ADC ECX, ECX
00401B19: EB1C                     JMP 401B37H
00401B1B: 91                       XCHG ECX, EAX
00401B1C: 48                       DEC EAX
00401B1D: C1E008                   SHL EAX, 08H
00401B20: AC                       LODSB 
00401B21: E82A000000               CALL 00401B50H
00401B26: 3D007D0000               CMP EAX, 00007D00H
00401B2B: 730A                     JNB 401B37H
00401B2D: 80FC05                   CMP AH, 05H
00401B30: 7306                     JNB 401B38H
00401B32: 83F87F                   CMP EAX, 0000007FH
00401B35: 7702                     JNBE 401B39H
00401B37: 41                       INC ECX
00401B38: 41                       INC ECX
00401B39: 95                       XCHG EBP, EAX
00401B3A: 8BC5                     MOV EAX, EBP
00401B3C: 56                       PUSH ESI
00401B3D: 8BF7                     MOV ESI, EDI
00401B3F: 2BF0                     SUB ESI, EAX
00401B41: F3A4                     REP MOVSB 
00401B43: 5E                       POP ESI
00401B44: EB93                     JMP 401AD9H
00401B46: 02D2                     ADD DL, DL
00401B48: 7505                     JNZ 401B4FH
00401B4A: 8A16                     MOV DL, [ESI]
00401B4C: 46                       INC ESI
00401B4D: 12D2                     ADC DL, DL
00401B4F: C3                       RET 
00401B50: 33C9                     XOR ECX, ECX
00401B52: 41                       INC ECX
00401B53: E8EEFFFFFF               CALL 00401B46H
00401B58: 13C9                     ADC ECX, ECX
00401B5A: E8E7FFFFFF               CALL 00401B46H
00401B5F: 72F2                     JB 401B53H
00401B61: C3                       RET 
00401B62: 2B7C2428                 SUB EDI, [ESP+28H]
00401B66: 897C241C                 MOV [ESP+1CH], EDI
00401B6A: 61                       POPAD 
00401B6B: C20800                   RETN 0008H
00401B6E: 60                       PUSHAD 
00401B6F: E823000000               CALL 00401B97H
00401B74: 8B642408                 MOV ESP, [ESP+08H]
00401B78: 64678F060000             POP FS:[0000H]
00401B7E: C704244C270000           MOV [ESP], 0000274CH
00401B85: E873FDFFFF               CALL 004018FDH
00401B8A: FF95CC120000             CALL [EBP+000012CCH]
00401B90: 61                       POPAD 
00401B91: F9                       STC 
00401B92: 1BC0                     SBB EAX, EAX
00401B94: C20C00                   RETN 000CH
00401B97: 2BDB                     SUB EBX, EBX
00401B99: 64FF33                   PUSH FS:[EBX]
00401B9C: 648923                   MOV FS:[EBX], ESP
00401B9F: 8B442430                 MOV EAX, [ESP+30H]
00401BA3: 668B5802                 MOV BX, [EAX+02H]
00401BA7: 53                       PUSH EBX
00401BA8: 8B4004                   MOV EAX, [EAX+04H]
00401BAB: 50                       PUSH EAX
00401BAC: 6A02                     PUSH 00000002H
00401BAE: E874100000               CALL 00402C27H
00401BB3: 58                       POP EAX
00401BB4: 5B                       POP EBX
00401BB5: 7207                     JB 401BBEH
00401BB7: A908000000               TEST EAX, 00000008H
00401BBC: 75BA                     JNZ 401B78H
00401BBE: 64678F060000             POP FS:[0000H]
00401BC4: 58                       POP EAX
00401BC5: 61                       POPAD 
00401BC6: E99768FFFF               JMP 003F8462H
00401BCB: 55                       PUSH EBP
00401BCC: 51                       PUSH ECX
00401BCD: 52                       PUSH EDX
00401BCE: B86804C403               MOV EAX, 03C40468H
00401BD3: B96D4EC641               MOV ECX, 41C64E6DH
00401BD8: F7E1                     MUL ECX
00401BDA: 0539300000               ADD EAX, 00003039H
00401BDF: 25FFFFFF07               AND EAX, 07FFFFFFH
00401BE4: E814FDFFFF               CALL 004018FDH
00401BE9: 8985CF0B0000             MOV [EBP+00000BCFH], EAX
00401BEF: 8B4C2410                 MOV ECX, [ESP+10H]
00401BF3: 2BD2                     SUB EDX, EDX
00401BF5: F7F1                     DIV ECX
00401BF7: 92                       XCHG EDX, EAX
00401BF8: 5A                       POP EDX
00401BF9: 59                       POP ECX
00401BFA: 5D                       POP EBP
00401BFB: C20400                   RETN 0004H
00401BFE: C8080100                 ENTER 108H, 00H
00401C02: 60                       PUSHAD 
00401C03: FC                       CLD 
00401C04: 8B7D10                   MOV EDI, [EBP+10H]
00401C07: 8BD7                     MOV EDX, EDI
00401C09: 33C0                     XOR EAX, EAX
00401C0B: B920000000               MOV ECX, 00000020H
00401C10: F3AB                     REP STOSD 
00401C12: FF02                     INC [EDX]
00401C14: 8B7514                   MOV ESI, [EBP+14H]
00401C17: 8DBDF8FEFFFF             LEA EDI, [EBP-00000108H]
00401C1D: B920000000               MOV ECX, 00000020H
00401C22: F3A5                     REP MOVSD 
00401C24: 8B450C                   MOV EAX, [EBP+0CH]
00401C27: E8AC020000               CALL 00401ED8H
00401C2C: 895DFC                   MOV [EBP-04H], EBX
00401C2F: C745F800000000           MOV [EBP-08H], 00000000H
00401C36: 87DB                     XCHG EBX, EBX
00401C38: 8B450C                   MOV EAX, [EBP+0CH]
00401C3B: 8B55F8                   MOV EDX, [EBP-08H]
00401C3E: 0FA310                   BT [EAX], EDX
00401C41: 7308                     JNB 401C4BH
00401C43: 8B5510                   MOV EDX, [EBP+10H]
00401C46: E819000000               CALL 00401C64H
00401C4B: 8D95F8FEFFFF             LEA EDX, [EBP-00000108H]
00401C51: E80E000000               CALL 00401C64H
00401C56: FF45F8                   INC [EBP-08H]
00401C59: FF4DFC                   DEC [EBP-04H]
00401C5C: 79DA                     JNS 401C38H
00401C5E: 61                       POPAD 
00401C5F: C9                       LEAVE 
00401C60: C21000                   RETN 0010H
00401C63: 90                       NOP 
00401C64: 8DBD78FFFFFF             LEA EDI, [EBP-00000088H]
00401C6A: 33C0                     XOR EAX, EAX
00401C6C: 8907                     MOV [EDI], EAX
00401C6E: 894704                   MOV [EDI+04H], EAX
00401C71: 894708                   MOV [EDI+08H], EAX
00401C74: 89470C                   MOV [EDI+0CH], EAX
00401C77: 894710                   MOV [EDI+10H], EAX
00401C7A: 894714                   MOV [EDI+14H], EAX
00401C7D: 894718                   MOV [EDI+18H], EAX
00401C80: 89471C                   MOV [EDI+1CH], EAX
00401C83: 894720                   MOV [EDI+20H], EAX
00401C86: 894724                   MOV [EDI+24H], EAX
00401C89: 894728                   MOV [EDI+28H], EAX
00401C8C: 89472C                   MOV [EDI+2CH], EAX
00401C8F: 894730                   MOV [EDI+30H], EAX
00401C92: 894734                   MOV [EDI+34H], EAX
00401C95: 894738                   MOV [EDI+38H], EAX
00401C98: 89473C                   MOV [EDI+3CH], EAX
00401C9B: 894740                   MOV [EDI+40H], EAX
00401C9E: 894744                   MOV [EDI+44H], EAX
00401CA1: 894748                   MOV [EDI+48H], EAX
00401CA4: 89474C                   MOV [EDI+4CH], EAX
00401CA7: 894750                   MOV [EDI+50H], EAX
00401CAA: 894754                   MOV [EDI+54H], EAX
00401CAD: 894758                   MOV [EDI+58H], EAX
00401CB0: 89475C                   MOV [EDI+5CH], EAX
00401CB3: 894760                   MOV [EDI+60H], EAX
00401CB6: 894764                   MOV [EDI+64H], EAX
00401CB9: 894768                   MOV [EDI+68H], EAX
00401CBC: 89476C                   MOV [EDI+6CH], EAX
00401CBF: 894770                   MOV [EDI+70H], EAX
00401CC2: 894774                   MOV [EDI+74H], EAX
00401CC5: 894778                   MOV [EDI+78H], EAX
00401CC8: 89477C                   MOV [EDI+7CH], EAX
00401CCB: 8D85F8FEFFFF             LEA EAX, [EBP-00000108H]
00401CD1: E802020000               CALL 00401ED8H
00401CD6: 87DB                     XCHG EBX, EBX
00401CD8: D127                     SHL [EDI], 01H
00401CDA: D15704                   RCL [EDI+04H], 01H
00401CDD: D15708                   RCL [EDI+08H], 01H
00401CE0: D1570C                   RCL [EDI+0CH], 01H
00401CE3: D15710                   RCL [EDI+10H], 01H
00401CE6: D15714                   RCL [EDI+14H], 01H
00401CE9: D15718                   RCL [EDI+18H], 01H
00401CEC: D1571C                   RCL [EDI+1CH], 01H
00401CEF: D15720                   RCL [EDI+20H], 01H
00401CF2: D15724                   RCL [EDI+24H], 01H
00401CF5: D15728                   RCL [EDI+28H], 01H
00401CF8: D1572C                   RCL [EDI+2CH], 01H
00401CFB: D15730                   RCL [EDI+30H], 01H
00401CFE: D15734                   RCL [EDI+34H], 01H
00401D01: D15738                   RCL [EDI+38H], 01H
00401D04: D1573C                   RCL [EDI+3CH], 01H
00401D07: D15740                   RCL [EDI+40H], 01H
00401D0A: D15744                   RCL [EDI+44H], 01H
00401D0D: D15748                   RCL [EDI+48H], 01H
00401D10: D1574C                   RCL [EDI+4CH], 01H
00401D13: D15750                   RCL [EDI+50H], 01H
00401D16: D15754                   RCL [EDI+54H], 01H
00401D19: D15758                   RCL [EDI+58H], 01H
00401D1C: D1575C                   RCL [EDI+5CH], 01H
00401D1F: D15760                   RCL [EDI+60H], 01H
00401D22: D15764                   RCL [EDI+64H], 01H
00401D25: D15768                   RCL [EDI+68H], 01H
00401D28: D1576C                   RCL [EDI+6CH], 01H
00401D2B: D15770                   RCL [EDI+70H], 01H
00401D2E: D15774                   RCL [EDI+74H], 01H
00401D31: D15778                   RCL [EDI+78H], 01H
00401D34: D1577C                   RCL [EDI+7CH], 01H
00401D37: E8AC010000               CALL 00401EE8H
00401D3C: 8D85F8FEFFFF             LEA EAX, [EBP-00000108H]
00401D42: 0FA318                   BT [EAX], EBX
00401D45: 0F83C5000000             JNB 00401E10H
00401D4B: 8B02                     MOV EAX, [EDX]
00401D4D: 8B4A04                   MOV ECX, [EDX+04H]
00401D50: 0107                     ADD [EDI], EAX
00401D52: 114F04                   ADC [EDI+04H], ECX
00401D55: 8B4208                   MOV EAX, [EDX+08H]
00401D58: 8B4A0C                   MOV ECX, [EDX+0CH]
00401D5B: 114708                   ADC [EDI+08H], EAX
00401D5E: 114F0C                   ADC [EDI+0CH], ECX
00401D61: 8B4210                   MOV EAX, [EDX+10H]
00401D64: 8B4A14                   MOV ECX, [EDX+14H]
00401D67: 114710                   ADC [EDI+10H], EAX
00401D6A: 114F14                   ADC [EDI+14H], ECX
00401D6D: 8B4218                   MOV EAX, [EDX+18H]
00401D70: 8B4A1C                   MOV ECX, [EDX+1CH]
00401D73: 114718                   ADC [EDI+18H], EAX
00401D76: 114F1C                   ADC [EDI+1CH], ECX
00401D79: 8B4220                   MOV EAX, [EDX+20H]
00401D7C: 8B4A24                   MOV ECX, [EDX+24H]
00401D7F: 114720                   ADC [EDI+20H], EAX
00401D82: 114F24                   ADC [EDI+24H], ECX
00401D85: 8B4228                   MOV EAX, [EDX+28H]
00401D88: 8B4A2C                   MOV ECX, [EDX+2CH]
00401D8B: 114728                   ADC [EDI+28H], EAX
00401D8E: 114F2C                   ADC [EDI+2CH], ECX
00401D91: 8B4230                   MOV EAX, [EDX+30H]
00401D94: 8B4A34                   MOV ECX, [EDX+34H]
00401D97: 114730                   ADC [EDI+30H], EAX
00401D9A: 114F34                   ADC [EDI+34H], ECX
00401D9D: 8B4238                   MOV EAX, [EDX+38H]
00401DA0: 8B4A3C                   MOV ECX, [EDX+3CH]
00401DA3: 114738                   ADC [EDI+38H], EAX
00401DA6: 114F3C                   ADC [EDI+3CH], ECX
00401DA9: 8B4240                   MOV EAX, [EDX+40H]
00401DAC: 8B4A44                   MOV ECX, [EDX+44H]
00401DAF: 114740                   ADC [EDI+40H], EAX
00401DB2: 114F44                   ADC [EDI+44H], ECX
00401DB5: 8B4248                   MOV EAX, [EDX+48H]
00401DB8: 8B4A4C                   MOV ECX, [EDX+4CH]
00401DBB: 114748                   ADC [EDI+48H], EAX
00401DBE: 114F4C                   ADC [EDI+4CH], ECX
00401DC1: 8B4250                   MOV EAX, [EDX+50H]
00401DC4: 8B4A54                   MOV ECX, [EDX+54H]
00401DC7: 114750                   ADC [EDI+50H], EAX
00401DCA: 114F54                   ADC [EDI+54H], ECX
00401DCD: 8B4258                   MOV EAX, [EDX+58H]
00401DD0: 8B4A5C                   MOV ECX, [EDX+5CH]
00401DD3: 114758                   ADC [EDI+58H], EAX
00401DD6: 114F5C                   ADC [EDI+5CH], ECX
00401DD9: 8B4260                   MOV EAX, [EDX+60H]
00401DDC: 8B4A64                   MOV ECX, [EDX+64H]
00401DDF: 114760                   ADC [EDI+60H], EAX
00401DE2: 114F64                   ADC [EDI+64H], ECX
00401DE5: 8B4268                   MOV EAX, [EDX+68H]
00401DE8: 8B4A6C                   MOV ECX, [EDX+6CH]
00401DEB: 114768                   ADC [EDI+68H], EAX
00401DEE: 114F6C                   ADC [EDI+6CH], ECX
00401DF1: 8B4270                   MOV EAX, [EDX+70H]
00401DF4: 8B4A74                   MOV ECX, [EDX+74H]
00401DF7: 114770                   ADC [EDI+70H], EAX
00401DFA: 114F74                   ADC [EDI+74H], ECX
00401DFD: 8B4278                   MOV EAX, [EDX+78H]
00401E00: 8B4A7C                   MOV ECX, [EDX+7CH]
00401E03: 114778                   ADC [EDI+78H], EAX
00401E06: 114F7C                   ADC [EDI+7CH], ECX
00401E09: E8DA000000               CALL 00401EE8H
00401E0E: 87DB                     XCHG EBX, EBX
00401E10: 4B                       DEC EBX
00401E11: 0F89C1FEFFFF             JNS 00401CD8H
00401E17: 8B07                     MOV EAX, [EDI]
00401E19: 8B5F04                   MOV EBX, [EDI+04H]
00401E1C: 8B4F08                   MOV ECX, [EDI+08H]
00401E1F: 8B770C                   MOV ESI, [EDI+0CH]
00401E22: 8902                     MOV [EDX], EAX
00401E24: 895A04                   MOV [EDX+04H], EBX
00401E27: 894A08                   MOV [EDX+08H], ECX
00401E2A: 89720C                   MOV [EDX+0CH], ESI
00401E2D: 8B4710                   MOV EAX, [EDI+10H]
00401E30: 8B5F14                   MOV EBX, [EDI+14H]
00401E33: 8B4F18                   MOV ECX, [EDI+18H]
00401E36: 8B771C                   MOV ESI, [EDI+1CH]
00401E39: 894210                   MOV [EDX+10H], EAX
00401E3C: 895A14                   MOV [EDX+14H], EBX
00401E3F: 894A18                   MOV [EDX+18H], ECX
00401E42: 89721C                   MOV [EDX+1CH], ESI
00401E45: 8B4720                   MOV EAX, [EDI+20H]
00401E48: 8B5F24                   MOV EBX, [EDI+24H]
00401E4B: 8B4F28                   MOV ECX, [EDI+28H]
00401E4E: 8B772C                   MOV ESI, [EDI+2CH]
00401E51: 894220                   MOV [EDX+20H], EAX
00401E54: 895A24                   MOV [EDX+24H], EBX
00401E57: 894A28                   MOV [EDX+28H], ECX
00401E5A: 89722C                   MOV [EDX+2CH], ESI
00401E5D: 8B4730                   MOV EAX, [EDI+30H]
00401E60: 8B5F34                   MOV EBX, [EDI+34H]
00401E63: 8B4F38                   MOV ECX, [EDI+38H]
00401E66: 8B773C                   MOV ESI, [EDI+3CH]
00401E69: 894230                   MOV [EDX+30H], EAX
00401E6C: 895A34                   MOV [EDX+34H], EBX
00401E6F: 894A38                   MOV [EDX+38H], ECX
00401E72: 89723C                   MOV [EDX+3CH], ESI
00401E75: 8B4740                   MOV EAX, [EDI+40H]
00401E78: 8B5F44                   MOV EBX, [EDI+44H]
00401E7B: 8B4F48                   MOV ECX, [EDI+48H]
00401E7E: 8B774C                   MOV ESI, [EDI+4CH]
00401E81: 894240                   MOV [EDX+40H], EAX
00401E84: 895A44                   MOV [EDX+44H], EBX
00401E87: 894A48                   MOV [EDX+48H], ECX
00401E8A: 89724C                   MOV [EDX+4CH], ESI
00401E8D: 8B4750                   MOV EAX, [EDI+50H]
00401E90: 8B5F54                   MOV EBX, [EDI+54H]
00401E93: 8B4F58                   MOV ECX, [EDI+58H]
00401E96: 8B775C                   MOV ESI, [EDI+5CH]
00401E99: 894250                   MOV [EDX+50H], EAX
00401E9C: 895A54                   MOV [EDX+54H], EBX
00401E9F: 894A58                   MOV [EDX+58H], ECX
00401EA2: 89725C                   MOV [EDX+5CH], ESI
00401EA5: 8B4760                   MOV EAX, [EDI+60H]
00401EA8: 8B5F64                   MOV EBX, [EDI+64H]
00401EAB: 8B4F68                   MOV ECX, [EDI+68H]
00401EAE: 8B776C                   MOV ESI, [EDI+6CH]
00401EB1: 894260                   MOV [EDX+60H], EAX
00401EB4: 895A64                   MOV [EDX+64H], EBX
00401EB7: 894A68                   MOV [EDX+68H], ECX
00401EBA: 89726C                   MOV [EDX+6CH], ESI
00401EBD: 8B4770                   MOV EAX, [EDI+70H]
00401EC0: 8B5F74                   MOV EBX, [EDI+74H]
00401EC3: 8B4F78                   MOV ECX, [EDI+78H]
00401EC6: 8B777C                   MOV ESI, [EDI+7CH]
00401EC9: 894270                   MOV [EDX+70H], EAX
00401ECC: 895A74                   MOV [EDX+74H], EBX
00401ECF: 894A78                   MOV [EDX+78H], ECX
00401ED2: 89727C                   MOV [EDX+7CH], ESI
00401ED5: C3                       RET 
00401ED6: 87DB                     XCHG EBX, EBX
00401ED8: BBFF030000               MOV EBX, 000003FFH
00401EDD: 0FA318                   BT [EAX], EBX
00401EE0: 7203                     JB 401EE5H
00401EE2: 4B                       DEC EBX
00401EE3: 75F8                     JNZ 401EDDH
00401EE5: C3                       RET 
00401EE6: 87DB                     XCHG EBX, EBX
00401EE8: 8B7508                   MOV ESI, [EBP+08H]
00401EEB: 8B477C                   MOV EAX, [EDI+7CH]
00401EEE: 8B4E7C                   MOV ECX, [ESI+7CH]
00401EF1: 3BC1                     CMP EAX, ECX
00401EF3: 72F0                     JB 401EE5H
00401EF5: 0F8735020000             JNBE 00402130H
00401EFB: 8B4778                   MOV EAX, [EDI+78H]
00401EFE: 8B4E78                   MOV ECX, [ESI+78H]
00401F01: 3BC1                     CMP EAX, ECX
00401F03: 72E0                     JB 401EE5H
00401F05: 0F8725020000             JNBE 00402130H
00401F0B: 8B4774                   MOV EAX, [EDI+74H]
00401F0E: 8B4E74                   MOV ECX, [ESI+74H]
00401F11: 3BC1                     CMP EAX, ECX
00401F13: 72D0                     JB 401EE5H
00401F15: 0F8715020000             JNBE 00402130H
00401F1B: 8B4770                   MOV EAX, [EDI+70H]
00401F1E: 8B4E70                   MOV ECX, [ESI+70H]
00401F21: 3BC1                     CMP EAX, ECX
00401F23: 72C0                     JB 401EE5H
00401F25: 0F8705020000             JNBE 00402130H
00401F2B: 8B476C                   MOV EAX, [EDI+6CH]
00401F2E: 8B4E6C                   MOV ECX, [ESI+6CH]
00401F31: 3BC1                     CMP EAX, ECX
00401F33: 72B0                     JB 401EE5H
00401F35: 0F87F5010000             JNBE 00402130H
00401F3B: 8B4768                   MOV EAX, [EDI+68H]
00401F3E: 8B4E68                   MOV ECX, [ESI+68H]
00401F41: 3BC1                     CMP EAX, ECX
00401F43: 72A0                     JB 401EE5H
00401F45: 0F87E5010000             JNBE 00402130H
00401F4B: 8B4764                   MOV EAX, [EDI+64H]
00401F4E: 8B4E64                   MOV ECX, [ESI+64H]
00401F51: 3BC1                     CMP EAX, ECX
00401F53: 7290                     JB 401EE5H
00401F55: 0F87D5010000             JNBE 00402130H
00401F5B: 8B4760                   MOV EAX, [EDI+60H]
00401F5E: 8B4E60                   MOV ECX, [ESI+60H]
00401F61: 3BC1                     CMP EAX, ECX
00401F63: 0F827CFFFFFF             JB 00401EE5H
00401F69: 0F87C1010000             JNBE 00402130H
00401F6F: 8B475C                   MOV EAX, [EDI+5CH]
00401F72: 8B4E5C                   MOV ECX, [ESI+5CH]
00401F75: 3BC1                     CMP EAX, ECX
00401F77: 0F8268FFFFFF             JB 00401EE5H
00401F7D: 0F87AD010000             JNBE 00402130H
00401F83: 8B4758                   MOV EAX, [EDI+58H]
00401F86: 8B4E58                   MOV ECX, [ESI+58H]
00401F89: 3BC1                     CMP EAX, ECX
00401F8B: 0F8254FFFFFF             JB 00401EE5H
00401F91: 0F8799010000             JNBE 00402130H
00401F97: 8B4754                   MOV EAX, [EDI+54H]
00401F9A: 8B4E54                   MOV ECX, [ESI+54H]
00401F9D: 3BC1                     CMP EAX, ECX
00401F9F: 0F8240FFFFFF             JB 00401EE5H
00401FA5: 0F8785010000             JNBE 00402130H
00401FAB: 8B4750                   MOV EAX, [EDI+50H]
00401FAE: 8B4E50                   MOV ECX, [ESI+50H]
00401FB1: 3BC1                     CMP EAX, ECX
00401FB3: 0F822CFFFFFF             JB 00401EE5H
00401FB9: 0F8771010000             JNBE 00402130H
00401FBF: 8B474C                   MOV EAX, [EDI+4CH]
00401FC2: 8B4E4C                   MOV ECX, [ESI+4CH]
00401FC5: 3BC1                     CMP EAX, ECX
00401FC7: 0F8218FFFFFF             JB 00401EE5H
00401FCD: 0F875D010000             JNBE 00402130H
00401FD3: 8B4748                   MOV EAX, [EDI+48H]
00401FD6: 8B4E48                   MOV ECX, [ESI+48H]
00401FD9: 3BC1                     CMP EAX, ECX
00401FDB: 0F8204FFFFFF             JB 00401EE5H
00401FE1: 0F8749010000             JNBE 00402130H
00401FE7: 8B4744                   MOV EAX, [EDI+44H]
00401FEA: 8B4E44                   MOV ECX, [ESI+44H]
00401FED: 3BC1                     CMP EAX, ECX
00401FEF: 0F82F0FEFFFF             JB 00401EE5H
00401FF5: 0F8735010000             JNBE 00402130H
00401FFB: 8B4740                   MOV EAX, [EDI+40H]
00401FFE: 8B4E40                   MOV ECX, [ESI+40H]