0048020E: FF2500204000             JMP [00402000H] ; _CorExeMain
00480214: 0000                     ADD [EAX], AL
00480216: 0000                     ADD [EAX], AL
00480218: 0000                     ADD [EAX], AL
0048021A: 0000                     ADD [EAX], AL
0048021C: 0000                     ADD [EAX], AL
0048021E: 0000                     ADD [EAX], AL
00480220: 0000                     ADD [EAX], AL
00480222: 0000                     ADD [EAX], AL
00480224: 0000                     ADD [EAX], AL
00480226: 0000                     ADD [EAX], AL
00480228: 0000                     ADD [EAX], AL
0048022A: 0000                     ADD [EAX], AL
0048022C: 0000                     ADD [EAX], AL
0048022E: 0000                     ADD [EAX], AL
00480230: 0000                     ADD [EAX], AL
00480232: 0000                     ADD [EAX], AL
00480234: 0000                     ADD [EAX], AL
00480236: 0000                     ADD [EAX], AL
00480238: 0000                     ADD [EAX], AL
0048023A: 0000                     ADD [EAX], AL
0048023C: 0000                     ADD [EAX], AL
0048023E: 0000                     ADD [EAX], AL
00480240: 0000                     ADD [EAX], AL
00480242: 0000                     ADD [EAX], AL
00480244: 0000                     ADD [EAX], AL
00480246: 0000                     ADD [EAX], AL
00480248: 0000                     ADD [EAX], AL
0048024A: 0000                     ADD [EAX], AL
0048024C: 0000                     ADD [EAX], AL
0048024E: 0000                     ADD [EAX], AL
00480250: 0000                     ADD [EAX], AL
00480252: 0000                     ADD [EAX], AL
00480254: 0000                     ADD [EAX], AL
00480256: 0000                     ADD [EAX], AL
00480258: 0000                     ADD [EAX], AL
0048025A: 0000                     ADD [EAX], AL
0048025C: 0000                     ADD [EAX], AL
0048025E: 0000                     ADD [EAX], AL
00480260: 0000                     ADD [EAX], AL
00480262: 0000                     ADD [EAX], AL
00480264: 0000                     ADD [EAX], AL
00480266: 0000                     ADD [EAX], AL
00480268: 0000                     ADD [EAX], AL
0048026A: 0000                     ADD [EAX], AL
0048026C: 0000                     ADD [EAX], AL
0048026E: 0000                     ADD [EAX], AL
00480270: 0000                     ADD [EAX], AL
00480272: 0000                     ADD [EAX], AL
00480274: 0000                     ADD [EAX], AL
00480276: 0000                     ADD [EAX], AL
00480278: 0000                     ADD [EAX], AL
0048027A: 0000                     ADD [EAX], AL
0048027C: 0000                     ADD [EAX], AL
0048027E: 0000                     ADD [EAX], AL
00480280: 0000                     ADD [EAX], AL
00480282: 0000                     ADD [EAX], AL
00480284: 0000                     ADD [EAX], AL
00480286: 0000                     ADD [EAX], AL
00480288: 0000                     ADD [EAX], AL
0048028A: 0000                     ADD [EAX], AL
0048028C: 0000                     ADD [EAX], AL
0048028E: 0000                     ADD [EAX], AL
00480290: 0000                     ADD [EAX], AL
00480292: 0000                     ADD [EAX], AL
00480294: 0000                     ADD [EAX], AL
00480296: 0000                     ADD [EAX], AL
00480298: 0000                     ADD [EAX], AL
0048029A: 0000                     ADD [EAX], AL
0048029C: 0000                     ADD [EAX], AL
0048029E: 0000                     ADD [EAX], AL
004802A0: 0000                     ADD [EAX], AL
004802A2: 0000                     ADD [EAX], AL
004802A4: 0000                     ADD [EAX], AL
004802A6: 0000                     ADD [EAX], AL
004802A8: 0000                     ADD [EAX], AL
004802AA: 0000                     ADD [EAX], AL
004802AC: 0000                     ADD [EAX], AL
004802AE: 0000                     ADD [EAX], AL
004802B0: 0000                     ADD [EAX], AL
004802B2: 0000                     ADD [EAX], AL
004802B4: 0000                     ADD [EAX], AL
004802B6: 0000                     ADD [EAX], AL
004802B8: 0000                     ADD [EAX], AL
004802BA: 0000                     ADD [EAX], AL
004802BC: 0000                     ADD [EAX], AL
004802BE: 0000                     ADD [EAX], AL
004802C0: 0000                     ADD [EAX], AL
004802C2: 0000                     ADD [EAX], AL
004802C4: 0000                     ADD [EAX], AL
004802C6: 0000                     ADD [EAX], AL
004802C8: 0000                     ADD [EAX], AL
004802CA: 0000                     ADD [EAX], AL
004802CC: 0000                     ADD [EAX], AL
004802CE: 0000                     ADD [EAX], AL
004802D0: 0000                     ADD [EAX], AL
004802D2: 0000                     ADD [EAX], AL
004802D4: 0000                     ADD [EAX], AL
004802D6: 0000                     ADD [EAX], AL
004802D8: 0000                     ADD [EAX], AL
004802DA: 0000                     ADD [EAX], AL
004802DC: 0000                     ADD [EAX], AL
004802DE: 0000                     ADD [EAX], AL
004802E0: 0000                     ADD [EAX], AL
004802E2: 0000                     ADD [EAX], AL
004802E4: 0000                     ADD [EAX], AL
004802E6: 0000                     ADD [EAX], AL
004802E8: 0000                     ADD [EAX], AL
004802EA: 0000                     ADD [EAX], AL
004802EC: 0000                     ADD [EAX], AL
004802EE: 0000                     ADD [EAX], AL
004802F0: 0000                     ADD [EAX], AL
004802F2: 0000                     ADD [EAX], AL
004802F4: 0000                     ADD [EAX], AL
004802F6: 0000                     ADD [EAX], AL
004802F8: 0000                     ADD [EAX], AL
004802FA: 0000                     ADD [EAX], AL
004802FC: 0000                     ADD [EAX], AL
004802FE: 0000                     ADD [EAX], AL
00480300: 0000                     ADD [EAX], AL
00480302: 0000                     ADD [EAX], AL
00480304: 0000                     ADD [EAX], AL
00480306: 0000                     ADD [EAX], AL
00480308: 0000                     ADD [EAX], AL
0048030A: 0000                     ADD [EAX], AL
0048030C: 0000                     ADD [EAX], AL
0048030E: 0000                     ADD [EAX], AL
00480310: 0000                     ADD [EAX], AL
00480312: 0000                     ADD [EAX], AL
00480314: 0000                     ADD [EAX], AL
00480316: 0000                     ADD [EAX], AL
00480318: 0000                     ADD [EAX], AL
0048031A: 0000                     ADD [EAX], AL
0048031C: 0000                     ADD [EAX], AL
0048031E: 0000                     ADD [EAX], AL
00480320: 0000                     ADD [EAX], AL
00480322: 0000                     ADD [EAX], AL
00480324: 0000                     ADD [EAX], AL
00480326: 0000                     ADD [EAX], AL
00480328: 0000                     ADD [EAX], AL
0048032A: 0000                     ADD [EAX], AL
0048032C: 0000                     ADD [EAX], AL
0048032E: 0000                     ADD [EAX], AL
00480330: 0000                     ADD [EAX], AL
00480332: 0000                     ADD [EAX], AL
00480334: 0000                     ADD [EAX], AL
00480336: 0000                     ADD [EAX], AL
00480338: 0000                     ADD [EAX], AL
0048033A: 0000                     ADD [EAX], AL
0048033C: 0000                     ADD [EAX], AL
0048033E: 0000                     ADD [EAX], AL
00480340: 0000                     ADD [EAX], AL
00480342: 0000                     ADD [EAX], AL
00480344: 0000                     ADD [EAX], AL
00480346: 0000                     ADD [EAX], AL
00480348: 0000                     ADD [EAX], AL
0048034A: 0000                     ADD [EAX], AL
0048034C: 0000                     ADD [EAX], AL
0048034E: 0000                     ADD [EAX], AL
00480350: 0000                     ADD [EAX], AL
00480352: 0000                     ADD [EAX], AL
00480354: 0000                     ADD [EAX], AL
00480356: 0000                     ADD [EAX], AL
00480358: 0000                     ADD [EAX], AL
0048035A: 0000                     ADD [EAX], AL
0048035C: 0000                     ADD [EAX], AL
0048035E: 0000                     ADD [EAX], AL
00480360: 0000                     ADD [EAX], AL
00480362: 0000                     ADD [EAX], AL
00480364: 0000                     ADD [EAX], AL
00480366: 0000                     ADD [EAX], AL
00480368: 0000                     ADD [EAX], AL
0048036A: 0000                     ADD [EAX], AL
0048036C: 0000                     ADD [EAX], AL
0048036E: 0000                     ADD [EAX], AL
00480370: 0000                     ADD [EAX], AL
00480372: 0000                     ADD [EAX], AL
00480374: 0000                     ADD [EAX], AL
00480376: 0000                     ADD [EAX], AL
00480378: 0000                     ADD [EAX], AL
0048037A: 0000                     ADD [EAX], AL
0048037C: 0000                     ADD [EAX], AL
0048037E: 0000                     ADD [EAX], AL
00480380: 0000                     ADD [EAX], AL
00480382: 0000                     ADD [EAX], AL
00480384: 0000                     ADD [EAX], AL
00480386: 0000                     ADD [EAX], AL
00480388: 0000                     ADD [EAX], AL
0048038A: 0000                     ADD [EAX], AL
0048038C: 0000                     ADD [EAX], AL
0048038E: 0000                     ADD [EAX], AL
00480390: 0000                     ADD [EAX], AL
00480392: 0000                     ADD [EAX], AL
00480394: 0000                     ADD [EAX], AL
00480396: 0000                     ADD [EAX], AL
00480398: 0000                     ADD [EAX], AL
0048039A: 0000                     ADD [EAX], AL
0048039C: 0000                     ADD [EAX], AL
0048039E: 0000                     ADD [EAX], AL
004803A0: 0000                     ADD [EAX], AL
004803A2: 0000                     ADD [EAX], AL
004803A4: 0000                     ADD [EAX], AL
004803A6: 0000                     ADD [EAX], AL
004803A8: 0000                     ADD [EAX], AL
004803AA: 0000                     ADD [EAX], AL
004803AC: 0000                     ADD [EAX], AL
004803AE: 0000                     ADD [EAX], AL
004803B0: 0000                     ADD [EAX], AL
004803B2: 0000                     ADD [EAX], AL
004803B4: 0000                     ADD [EAX], AL
004803B6: 0000                     ADD [EAX], AL
004803B8: 0000                     ADD [EAX], AL
004803BA: 0000                     ADD [EAX], AL
004803BC: 0000                     ADD [EAX], AL
004803BE: 0000                     ADD [EAX], AL
004803C0: 0000                     ADD [EAX], AL
004803C2: 0000                     ADD [EAX], AL
004803C4: 0000                     ADD [EAX], AL
004803C6: 0000                     ADD [EAX], AL
004803C8: 0000                     ADD [EAX], AL
004803CA: 0000                     ADD [EAX], AL
004803CC: 0000                     ADD [EAX], AL
004803CE: 0000                     ADD [EAX], AL
004803D0: 0000                     ADD [EAX], AL
004803D2: 0000                     ADD [EAX], AL
004803D4: 0000                     ADD [EAX], AL
004803D6: 0000                     ADD [EAX], AL
004803D8: 0000                     ADD [EAX], AL
004803DA: 0000                     ADD [EAX], AL
004803DC: 0000                     ADD [EAX], AL
004803DE: 0000                     ADD [EAX], AL
004803E0: 0000                     ADD [EAX], AL
004803E2: 0000                     ADD [EAX], AL
004803E4: 0000                     ADD [EAX], AL
004803E6: 0000                     ADD [EAX], AL
004803E8: 0000                     ADD [EAX], AL
004803EA: 0000                     ADD [EAX], AL
004803EC: 0000                     ADD [EAX], AL
004803EE: 0000                     ADD [EAX], AL
004803F0: 0000                     ADD [EAX], AL
004803F2: 0000                     ADD [EAX], AL
004803F4: 0000                     ADD [EAX], AL
004803F6: 0000                     ADD [EAX], AL
004803F8: 0000                     ADD [EAX], AL
004803FA: 0000                     ADD [EAX], AL
004803FC: 0000                     ADD [EAX], AL
004803FE: 0000                     ADD [EAX], AL
00480400: 0000                     ADD [EAX], AL
00480402: 0000                     ADD [EAX], AL
00480404: 0000                     ADD [EAX], AL
00480406: 0000                     ADD [EAX], AL
00480408: 0000                     ADD [EAX], AL
0048040A: 0000                     ADD [EAX], AL
0048040C: 0000                     ADD [EAX], AL
0048040E: 0300                     ADD EAX, [EAX]
00480410: 0300                     ADD EAX, [EAX]
00480412: 0000                     ADD [EAX], AL
00480414: 2800                     SUB [EAX], AL
00480416: 00800E000000             ADD [EAX+0000000EH], AL
0048041C: 98                       CWDE 
0048041D: 0000                     ADD [EAX], AL
0048041F: 801000                   ADC BYTE PTR [EAX], 00H
00480422: 0000                     ADD [EAX], AL
00480424: C8000080                 ENTER 00H, 80H
00480428: 0000                     ADD [EAX], AL
0048042A: 0000                     ADD [EAX], AL
0048042C: 0000                     ADD [EAX], AL
0048042E: 0000                     ADD [EAX], AL
00480430: 0000                     ADD [EAX], AL
00480432: 0000                     ADD [EAX], AL
00480434: 0000                     ADD [EAX], AL
00480436: 0300                     ADD EAX, [EAX]
00480438: 0100                     ADD [EAX], EAX
0048043A: 0000                     ADD [EAX], AL
0048043C: 50                       PUSH EAX
0048043D: 0000                     ADD [EAX], AL
0048043F: 800200                   ADD BYTE PTR [EDX], 00H
00480442: 0000                     ADD [EAX], AL
00480444: 6800008003               PUSH 03800000H
00480449: 0000                     ADD [EAX], AL
0048044B: 008000008000             ADD [EAX+00800000H], AL
00480451: 0000                     ADD [EAX], AL
00480453: 0000                     ADD [EAX], AL
00480455: 0000                     ADD [EAX], AL
00480457: 0000                     ADD [EAX], AL
00480459: 0000                     ADD [EAX], AL
0048045B: 0000                     ADD [EAX], AL
0048045D: 0001                     ADD [ECX], AL
0048045F: 0000                     ADD [EAX], AL
00480461: 0000                     ADD [EAX], AL
00480463: 00F8                     ADD AL, BH
00480465: 0000                     ADD [EAX], AL
00480467: 0000                     ADD [EAX], AL
00480469: 0000                     ADD [EAX], AL
0048046B: 0000                     ADD [EAX], AL
0048046D: 0000                     ADD [EAX], AL
0048046F: 0000                     ADD [EAX], AL
00480471: 0000                     ADD [EAX], AL
00480473: 0000                     ADD [EAX], AL
00480475: 0001                     ADD [ECX], AL
00480477: 0000                     ADD [EAX], AL
00480479: 0000                     ADD [EAX], AL
0048047B: 00B026000000             ADD [EAX+00000026H], DH
00480481: 0000                     ADD [EAX], AL
00480483: 0000                     ADD [EAX], AL
00480485: 0000                     ADD [EAX], AL
00480487: 0000                     ADD [EAX], AL
00480489: 0000                     ADD [EAX], AL
0048048B: 0000                     ADD [EAX], AL
0048048D: 0001                     ADD [ECX], AL
0048048F: 0000                     ADD [EAX], AL
00480491: 0000                     ADD [EAX], AL
00480493: 006837                   ADD [EAX+37H], CH
00480496: 0000                     ADD [EAX], AL
00480498: 0000                     ADD [EAX], AL
0048049A: 0000                     ADD [EAX], AL
0048049C: 0000                     ADD [EAX], AL
0048049E: 0000                     ADD [EAX], AL
004804A0: 0000                     ADD [EAX], AL
004804A2: 0000                     ADD [EAX], AL
004804A4: 0000                     ADD [EAX], AL
004804A6: 0100                     ADD [EAX], EAX
004804A8: 007F00                   ADD [EDI], BH
004804AB: 00B000008000             ADD [EAX+00800000H], DH
004804B1: 0000                     ADD [EAX], AL
004804B3: 0000                     ADD [EAX], AL
004804B5: 0000                     ADD [EAX], AL
004804B7: 0000                     ADD [EAX], AL
004804B9: 0000                     ADD [EAX], AL
004804BB: 0000                     ADD [EAX], AL
004804BD: 0001                     ADD [ECX], AL
004804BF: 0000                     ADD [EAX], AL
004804C1: 0000                     ADD [EAX], AL
004804C3: 00E0                     ADD AL, AH
004804C5: 3B00                     CMP EAX, [EAX]
004804C7: 0000                     ADD [EAX], AL
004804C9: 0000                     ADD [EAX], AL
004804CB: 0000                     ADD [EAX], AL
004804CD: 0000                     ADD [EAX], AL
004804CF: 0000                     ADD [EAX], AL
004804D1: 0000                     ADD [EAX], AL
004804D3: 0000                     ADD [EAX], AL
004804D5: 0001                     ADD [ECX], AL
004804D7: 0001                     ADD [ECX], AL
004804D9: 0000                     ADD [EAX], AL
004804DB: 00E0                     ADD AL, AH
004804DD: 0000                     ADD [EAX], AL
004804DF: 800000                   ADD BYTE PTR [EAX], 00H
004804E2: 0000                     ADD [EAX], AL
004804E4: 0000                     ADD [EAX], AL
004804E6: 0000                     ADD [EAX], AL
004804E8: 0000                     ADD [EAX], AL
004804EA: 0000                     ADD [EAX], AL
004804EC: 0000                     ADD [EAX], AL
004804EE: 0100                     ADD [EAX], EAX
004804F0: 0000                     ADD [EAX], AL
004804F2: 0000                     ADD [EAX], AL
004804F4: 203C00                   AND [EAX+EAX], BH
004804F7: 0008                     ADD [EAX], CL
004804F9: 2108                     AND [EAX], ECX
004804FB: 00A825000000             ADD [EAX+00000025H], CH
00480501: 0000                     ADD [EAX], AL
00480503: 0000                     ADD [EAX], AL
00480505: 0000                     ADD [EAX], AL
00480507: 0028                     ADD [EAX], CH
00480509: 0000                     ADD [EAX], AL
0048050B: 0030                     ADD [EAX], DH
0048050D: 0000                     ADD [EAX], AL
0048050F: 006000                   ADD [EAX], AH
00480512: 0000                     ADD [EAX], AL
00480514: 0100                     ADD [EAX], EAX
00480516: 2000                     AND [EAX], AL
00480518: 0000                     ADD [EAX], AL
0048051A: 0000                     ADD [EAX], AL
0048051C: 80250000000000           AND BYTE PTR [00000000H], 00H
00480523: 0000                     ADD [EAX], AL
00480525: 0000                     ADD [EAX], AL
00480527: 0000                     ADD [EAX], AL
00480529: 0000                     ADD [EAX], AL
0048052B: 0000                     ADD [EAX], AL
0048052D: 0000                     ADD [EAX], AL
0048052F: 0000                     ADD [EAX], AL
00480531: 0000                     ADD [EAX], AL
00480533: 0000                     ADD [EAX], AL
00480535: 0000                     ADD [EAX], AL
00480537: 0000                     ADD [EAX], AL
00480539: 0000                     ADD [EAX], AL
0048053B: 0000                     ADD [EAX], AL
0048053D: 0000                     ADD [EAX], AL
0048053F: 0000                     ADD [EAX], AL
00480541: 0000                     ADD [EAX], AL
00480543: 0000                     ADD [EAX], AL
00480545: 0000                     ADD [EAX], AL
00480547: 0000                     ADD [EAX], AL
00480549: 0000                     ADD [EAX], AL
0048054B: 0000                     ADD [EAX], AL
0048054D: 0000                     ADD [EAX], AL
0048054F: 0000                     ADD [EAX], AL
00480551: 0000                     ADD [EAX], AL
00480553: 0000                     ADD [EAX], AL
00480555: 0000                     ADD [EAX], AL
00480557: 0000                     ADD [EAX], AL
00480559: 0000                     ADD [EAX], AL
0048055B: 0000                     ADD [EAX], AL
0048055D: 0000                     ADD [EAX], AL
0048055F: 0000                     ADD [EAX], AL
00480561: 0000                     ADD [EAX], AL
00480563: 0000                     ADD [EAX], AL
00480565: 0000                     ADD [EAX], AL
00480567: 0000                     ADD [EAX], AL
00480569: 0000                     ADD [EAX], AL
0048056B: 0000                     ADD [EAX], AL
0048056D: 0000                     ADD [EAX], AL
0048056F: 0000                     ADD [EAX], AL
00480571: 0000                     ADD [EAX], AL
00480573: 0000                     ADD [EAX], AL
00480575: 0000                     ADD [EAX], AL
00480577: 0000                     ADD [EAX], AL
00480579: 0000                     ADD [EAX], AL
0048057B: 0000                     ADD [EAX], AL
0048057D: 0000                     ADD [EAX], AL
0048057F: 0000                     ADD [EAX], AL
00480581: 0000                     ADD [EAX], AL
00480583: 0000                     ADD [EAX], AL
00480585: 0000                     ADD [EAX], AL
00480587: 0000                     ADD [EAX], AL
00480589: 0000                     ADD [EAX], AL
0048058B: 0000                     ADD [EAX], AL
0048058D: 0000                     ADD [EAX], AL
0048058F: 0000                     ADD [EAX], AL
00480591: 0000                     ADD [EAX], AL
00480593: 0000                     ADD [EAX], AL
00480595: 0000                     ADD [EAX], AL
00480597: 0000                     ADD [EAX], AL
00480599: 0000                     ADD [EAX], AL
0048059B: 0000                     ADD [EAX], AL
0048059D: 0000                     ADD [EAX], AL
0048059F: 0000                     ADD [EAX], AL
004805A1: 0000                     ADD [EAX], AL
004805A3: 0000                     ADD [EAX], AL
004805A5: 0000                     ADD [EAX], AL
004805A7: 0000                     ADD [EAX], AL
004805A9: 0000                     ADD [EAX], AL
004805AB: 0000                     ADD [EAX], AL
004805AD: 0000                     ADD [EAX], AL
004805AF: 0000                     ADD [EAX], AL
004805B1: 0000                     ADD [EAX], AL
004805B3: 0000                     ADD [EAX], AL
004805B5: 0000                     ADD [EAX], AL
004805B7: 0000                     ADD [EAX], AL
004805B9: 0000                     ADD [EAX], AL
004805BB: 0000                     ADD [EAX], AL
004805BD: 0000                     ADD [EAX], AL
004805BF: 0000                     ADD [EAX], AL
004805C1: 0000                     ADD [EAX], AL
004805C3: 0000                     ADD [EAX], AL
004805C5: 0000                     ADD [EAX], AL
004805C7: 0000                     ADD [EAX], AL
004805C9: 0000                     ADD [EAX], AL
004805CB: 0000                     ADD [EAX], AL
004805CD: 0000                     ADD [EAX], AL
004805CF: 0000                     ADD [EAX], AL
004805D1: 0000                     ADD [EAX], AL
004805D3: 0000                     ADD [EAX], AL
004805D5: 0000                     ADD [EAX], AL
004805D7: 0000                     ADD [EAX], AL
004805D9: 0000                     ADD [EAX], AL
004805DB: 0000                     ADD [EAX], AL
004805DD: 0000                     ADD [EAX], AL
004805DF: 0000                     ADD [EAX], AL
004805E1: 0000                     ADD [EAX], AL
004805E3: 0000                     ADD [EAX], AL
004805E5: 0000                     ADD [EAX], AL
004805E7: 0000                     ADD [EAX], AL
004805E9: 0000                     ADD [EAX], AL
004805EB: 0000                     ADD [EAX], AL
004805ED: 0000                     ADD [EAX], AL
004805EF: 0000                     ADD [EAX], AL
004805F1: 0000                     ADD [EAX], AL
004805F3: 0000                     ADD [EAX], AL
004805F5: 0000                     ADD [EAX], AL
004805F7: 0000                     ADD [EAX], AL
004805F9: 0000                     ADD [EAX], AL
004805FB: 0000                     ADD [EAX], AL
004805FD: 0000                     ADD [EAX], AL
004805FF: 0000                     ADD [EAX], AL
00480601: 0000                     ADD [EAX], AL
00480603: 0000                     ADD [EAX], AL
00480605: 0000                     ADD [EAX], AL
00480607: 0000                     ADD [EAX], AL
00480609: 0000                     ADD [EAX], AL
0048060B: 0000                     ADD [EAX], AL
0048060D: 0000                     ADD [EAX], AL
0048060F: 0000                     ADD [EAX], AL
00480611: 0000                     ADD [EAX], AL
00480613: 0000                     ADD [EAX], AL
00480615: 0000                     ADD [EAX], AL
00480617: 0000                     ADD [EAX], AL
00480619: 0000                     ADD [EAX], AL
0048061B: 0000                     ADD [EAX], AL
0048061D: 0000                     ADD [EAX], AL
0048061F: 0000                     ADD [EAX], AL
00480621: 0000                     ADD [EAX], AL
00480623: 0000                     ADD [EAX], AL
00480625: 0000                     ADD [EAX], AL
00480627: 0000                     ADD [EAX], AL
00480629: 0000                     ADD [EAX], AL
0048062B: 0000                     ADD [EAX], AL
0048062D: 0000                     ADD [EAX], AL
0048062F: 0000                     ADD [EAX], AL
00480631: 0000                     ADD [EAX], AL
00480633: 0000                     ADD [EAX], AL
00480635: 0000                     ADD [EAX], AL
00480637: 0000                     ADD [EAX], AL
00480639: 0000                     ADD [EAX], AL
0048063B: 0000                     ADD [EAX], AL
0048063D: 0000                     ADD [EAX], AL
0048063F: 0000                     ADD [EAX], AL
00480641: 0000                     ADD [EAX], AL
00480643: 0000                     ADD [EAX], AL
00480645: 0000                     ADD [EAX], AL
00480647: 0000                     ADD [EAX], AL
00480649: 0000                     ADD [EAX], AL
0048064B: 0000                     ADD [EAX], AL
0048064D: 0000                     ADD [EAX], AL
0048064F: 0000                     ADD [EAX], AL
00480651: 0000                     ADD [EAX], AL
00480653: 0000                     ADD [EAX], AL
00480655: 0000                     ADD [EAX], AL
00480657: 0000                     ADD [EAX], AL
00480659: 0000                     ADD [EAX], AL
0048065B: 0000                     ADD [EAX], AL
0048065D: 0000                     ADD [EAX], AL
0048065F: 0000                     ADD [EAX], AL
00480661: 0000                     ADD [EAX], AL
00480663: 0000                     ADD [EAX], AL
00480665: 0000                     ADD [EAX], AL
00480667: 0000                     ADD [EAX], AL
00480669: 0000                     ADD [EAX], AL
0048066B: 0000                     ADD [EAX], AL
0048066D: 0000                     ADD [EAX], AL
0048066F: 0000                     ADD [EAX], AL
00480671: 0000                     ADD [EAX], AL
00480673: 0000                     ADD [EAX], AL
00480675: 0000                     ADD [EAX], AL
00480677: 0000                     ADD [EAX], AL
00480679: 0000                     ADD [EAX], AL
0048067B: 0000                     ADD [EAX], AL
0048067D: 0000                     ADD [EAX], AL
0048067F: 0000                     ADD [EAX], AL
00480681: 0000                     ADD [EAX], AL
00480683: 0000                     ADD [EAX], AL
00480685: 0000                     ADD [EAX], AL
00480687: 0000                     ADD [EAX], AL
00480689: 0000                     ADD [EAX], AL
0048068B: 0000                     ADD [EAX], AL
0048068D: 0000                     ADD [EAX], AL
0048068F: 0000                     ADD [EAX], AL
00480691: 0000                     ADD [EAX], AL
00480693: 0000                     ADD [EAX], AL
00480695: 0000                     ADD [EAX], AL
00480697: 0000                     ADD [EAX], AL
00480699: 0000                     ADD [EAX], AL
0048069B: 0000                     ADD [EAX], AL
0048069D: 0000                     ADD [EAX], AL
0048069F: 0000                     ADD [EAX], AL
004806A1: 0000                     ADD [EAX], AL
004806A3: 0000                     ADD [EAX], AL
004806A5: 0000                     ADD [EAX], AL
004806A7: 0000                     ADD [EAX], AL
004806A9: 0000                     ADD [EAX], AL
004806AB: 0000                     ADD [EAX], AL
004806AD: 0000                     ADD [EAX], AL
004806AF: 0000                     ADD [EAX], AL
004806B1: 0000                     ADD [EAX], AL
004806B3: 0000                     ADD [EAX], AL
004806B5: 0000                     ADD [EAX], AL
004806B7: 0000                     ADD [EAX], AL
004806B9: 0000                     ADD [EAX], AL
004806BB: 0000                     ADD [EAX], AL
004806BD: 0000                     ADD [EAX], AL
004806BF: 0000                     ADD [EAX], AL
004806C1: 0000                     ADD [EAX], AL
004806C3: 0000                     ADD [EAX], AL
004806C5: 0000                     ADD [EAX], AL
004806C7: 0000                     ADD [EAX], AL
004806C9: 0000                     ADD [EAX], AL
004806CB: 0000                     ADD [EAX], AL
004806CD: 0000                     ADD [EAX], AL
004806CF: 0000                     ADD [EAX], AL
004806D1: 0000                     ADD [EAX], AL
004806D3: 0000                     ADD [EAX], AL
004806D5: 0000                     ADD [EAX], AL
004806D7: 0000                     ADD [EAX], AL
004806D9: 0000                     ADD [EAX], AL
004806DB: 0000                     ADD [EAX], AL
004806DD: 0000                     ADD [EAX], AL
004806DF: 0000                     ADD [EAX], AL
004806E1: 0000                     ADD [EAX], AL
004806E3: 0000                     ADD [EAX], AL
004806E5: 0000                     ADD [EAX], AL
004806E7: 0000                     ADD [EAX], AL
004806E9: 0000                     ADD [EAX], AL
004806EB: 0000                     ADD [EAX], AL
004806ED: 0000                     ADD [EAX], AL
004806EF: 0000                     ADD [EAX], AL
004806F1: 0000                     ADD [EAX], AL
004806F3: 0000                     ADD [EAX], AL
004806F5: 0000                     ADD [EAX], AL
004806F7: 0000                     ADD [EAX], AL
004806F9: 0000                     ADD [EAX], AL
004806FB: 0000                     ADD [EAX], AL
004806FD: 0000                     ADD [EAX], AL
004806FF: 0000                     ADD [EAX], AL
00480701: 0000                     ADD [EAX], AL
00480703: 0000                     ADD [EAX], AL
00480705: 0000                     ADD [EAX], AL
00480707: 0000                     ADD [EAX], AL
00480709: 0000                     ADD [EAX], AL
0048070B: 0000                     ADD [EAX], AL
0048070D: 0000                     ADD [EAX], AL
0048070F: 0000                     ADD [EAX], AL
00480711: 0000                     ADD [EAX], AL
00480713: 0000                     ADD [EAX], AL
00480715: 0000                     ADD [EAX], AL
00480717: 0000                     ADD [EAX], AL
00480719: 0000                     ADD [EAX], AL
0048071B: 0000                     ADD [EAX], AL
0048071D: 0000                     ADD [EAX], AL
0048071F: 0000                     ADD [EAX], AL
00480721: 0000                     ADD [EAX], AL
00480723: 0000                     ADD [EAX], AL
00480725: 0000                     ADD [EAX], AL
00480727: 0000                     ADD [EAX], AL
00480729: 0000                     ADD [EAX], AL
0048072B: 0000                     ADD [EAX], AL
0048072D: 0000                     ADD [EAX], AL
0048072F: 0000                     ADD [EAX], AL
00480731: 0000                     ADD [EAX], AL
00480733: 0000                     ADD [EAX], AL
00480735: 0000                     ADD [EAX], AL
00480737: 0000                     ADD [EAX], AL
00480739: 0000                     ADD [EAX], AL
0048073B: 0000                     ADD [EAX], AL
0048073D: 0000                     ADD [EAX], AL
0048073F: 0000                     ADD [EAX], AL
00480741: 0000                     ADD [EAX], AL
00480743: 0000                     ADD [EAX], AL
00480745: 0000                     ADD [EAX], AL
00480747: 0000                     ADD [EAX], AL
00480749: 0000                     ADD [EAX], AL
0048074B: 0000                     ADD [EAX], AL
0048074D: 0000                     ADD [EAX], AL
0048074F: 0000                     ADD [EAX], AL
00480751: 0000                     ADD [EAX], AL
00480753: 0000                     ADD [EAX], AL
00480755: 0000                     ADD [EAX], AL
00480757: 0000                     ADD [EAX], AL
00480759: 0000                     ADD [EAX], AL
0048075B: 0000                     ADD [EAX], AL
0048075D: 0000                     ADD [EAX], AL
0048075F: 0000                     ADD [EAX], AL
00480761: 0000                     ADD [EAX], AL
00480763: 0000                     ADD [EAX], AL
00480765: 0000                     ADD [EAX], AL
00480767: 0000                     ADD [EAX], AL
00480769: 0000                     ADD [EAX], AL
0048076B: 0000                     ADD [EAX], AL
0048076D: 0000                     ADD [EAX], AL
0048076F: 0000                     ADD [EAX], AL
00480771: 0000                     ADD [EAX], AL
00480773: 0000                     ADD [EAX], AL
00480775: 0000                     ADD [EAX], AL
00480777: 0000                     ADD [EAX], AL
00480779: 0000                     ADD [EAX], AL
0048077B: 0000                     ADD [EAX], AL
0048077D: 0000                     ADD [EAX], AL
0048077F: 0000                     ADD [EAX], AL
00480781: 0000                     ADD [EAX], AL
00480783: 0000                     ADD [EAX], AL
00480785: 0000                     ADD [EAX], AL
00480787: 0000                     ADD [EAX], AL
00480789: 0000                     ADD [EAX], AL
0048078B: 0000                     ADD [EAX], AL
0048078D: 0000                     ADD [EAX], AL
0048078F: 0000                     ADD [EAX], AL
00480791: 0000                     ADD [EAX], AL
00480793: 0000                     ADD [EAX], AL
00480795: 0000                     ADD [EAX], AL
00480797: 0000                     ADD [EAX], AL
00480799: 0000                     ADD [EAX], AL
0048079B: 0000                     ADD [EAX], AL
0048079D: 0000                     ADD [EAX], AL
0048079F: 0000                     ADD [EAX], AL
004807A1: 0000                     ADD [EAX], AL
004807A3: 0000                     ADD [EAX], AL
004807A5: 0000                     ADD [EAX], AL
004807A7: 0000                     ADD [EAX], AL
004807A9: 0000                     ADD [EAX], AL
004807AB: 0000                     ADD [EAX], AL
004807AD: 0000                     ADD [EAX], AL
004807AF: 0000                     ADD [EAX], AL
004807B1: 0000                     ADD [EAX], AL
004807B3: 0000                     ADD [EAX], AL
004807B5: 0000                     ADD [EAX], AL
004807B7: 0000                     ADD [EAX], AL
004807B9: 0000                     ADD [EAX], AL
004807BB: 0000                     ADD [EAX], AL
004807BD: 0000                     ADD [EAX], AL
004807BF: 0000                     ADD [EAX], AL
004807C1: 0000                     ADD [EAX], AL
004807C3: 0000                     ADD [EAX], AL
004807C5: 0000                     ADD [EAX], AL
004807C7: 0000                     ADD [EAX], AL
004807C9: 0000                     ADD [EAX], AL
004807CB: 0000                     ADD [EAX], AL
004807CD: 0000                     ADD [EAX], AL
004807CF: 0000                     ADD [EAX], AL
004807D1: 0000                     ADD [EAX], AL
004807D3: 0000                     ADD [EAX], AL
004807D5: 0000                     ADD [EAX], AL
004807D7: 0000                     ADD [EAX], AL
004807D9: 0000                     ADD [EAX], AL
004807DB: 0000                     ADD [EAX], AL
004807DD: 0000                     ADD [EAX], AL
004807DF: 0000                     ADD [EAX], AL
004807E1: 0000                     ADD [EAX], AL
004807E3: 0000                     ADD [EAX], AL
004807E5: 0000                     ADD [EAX], AL
004807E7: 0000                     ADD [EAX], AL
004807E9: 0000                     ADD [EAX], AL
004807EB: 0000                     ADD [EAX], AL
004807ED: 0000                     ADD [EAX], AL
004807EF: 0000                     ADD [EAX], AL
004807F1: 0000                     ADD [EAX], AL
004807F3: 0000                     ADD [EAX], AL
004807F5: 0000                     ADD [EAX], AL
004807F7: 0000                     ADD [EAX], AL
004807F9: 0000                     ADD [EAX], AL
004807FB: 0000                     ADD [EAX], AL
004807FD: 0000                     ADD [EAX], AL
004807FF: 0000                     ADD [EAX], AL
00480801: 0000                     ADD [EAX], AL
00480803: 0000                     ADD [EAX], AL
00480805: 0000                     ADD [EAX], AL
00480807: 0000                     ADD [EAX], AL
00480809: 0000                     ADD [EAX], AL
0048080B: 0000                     ADD [EAX], AL
0048080D: 0000                     ADD [EAX], AL
0048080F: 0000                     ADD [EAX], AL
00480811: 0000                     ADD [EAX], AL
00480813: 0000                     ADD [EAX], AL
00480815: 0000                     ADD [EAX], AL
00480817: 0000                     ADD [EAX], AL
00480819: 0000                     ADD [EAX], AL
0048081B: 0000                     ADD [EAX], AL
0048081D: 0000                     ADD [EAX], AL
0048081F: 0000                     ADD [EAX], AL
00480821: 0000                     ADD [EAX], AL
00480823: 0000                     ADD [EAX], AL
00480825: 0000                     ADD [EAX], AL
00480827: 0000                     ADD [EAX], AL
00480829: 0000                     ADD [EAX], AL
0048082B: 0000                     ADD [EAX], AL
0048082D: 0000                     ADD [EAX], AL
0048082F: 0000                     ADD [EAX], AL
00480831: 0000                     ADD [EAX], AL
00480833: 0000                     ADD [EAX], AL
00480835: 0000                     ADD [EAX], AL
00480837: 0000                     ADD [EAX], AL
00480839: 0000                     ADD [EAX], AL
0048083B: 0000                     ADD [EAX], AL
0048083D: 0000                     ADD [EAX], AL
0048083F: 0000                     ADD [EAX], AL
00480841: 0000                     ADD [EAX], AL
00480843: 0000                     ADD [EAX], AL
00480845: 0000                     ADD [EAX], AL
00480847: 0000                     ADD [EAX], AL
00480849: 0000                     ADD [EAX], AL
0048084B: 0000                     ADD [EAX], AL
0048084D: 0000                     ADD [EAX], AL
0048084F: 0000                     ADD [EAX], AL
00480851: 0000                     ADD [EAX], AL
00480853: 0000                     ADD [EAX], AL
00480855: 0000                     ADD [EAX], AL
00480857: 0000                     ADD [EAX], AL
00480859: 0000                     ADD [EAX], AL
0048085B: 0000                     ADD [EAX], AL
0048085D: 0000                     ADD [EAX], AL
0048085F: 0000                     ADD [EAX], AL
00480861: 0000                     ADD [EAX], AL
00480863: 0000                     ADD [EAX], AL
00480865: 0000                     ADD [EAX], AL
00480867: 0000                     ADD [EAX], AL
00480869: 0000                     ADD [EAX], AL
0048086B: 0000                     ADD [EAX], AL
0048086D: 0000                     ADD [EAX], AL
0048086F: 0000                     ADD [EAX], AL
00480871: 0000                     ADD [EAX], AL
00480873: 0000                     ADD [EAX], AL
00480875: 0000                     ADD [EAX], AL
00480877: 0000                     ADD [EAX], AL
00480879: 0000                     ADD [EAX], AL
0048087B: 0000                     ADD [EAX], AL
0048087D: 0000                     ADD [EAX], AL
0048087F: 0000                     ADD [EAX], AL
00480881: 0000                     ADD [EAX], AL
00480883: 007C7C7C                 ADD [ESP+EDI*2+7CH], BH
00480887: 0493                     ADD AL, 93H
00480889: 93                       XCHG EBX, EAX
0048088A: 93                       XCHG EBX, EAX
0048088B: 16                       PUSH SS
0048088C: 8C8C8C2E878787           MOV [ESP+ECX*4-787878D2H], CS
00480893: 3E838383477F7F7F         ADD DS:[EBX+7F7F4783H], 0000007FH
0048089B: 4B                       DEC EBX
0048089C: 7A7A                     JPE 480918H
0048089E: 7A4B                     JPE 4808EBH
004808A0: 7575                     JNZ 480917H
004808A2: 754B                     JNZ 4808EFH
004808A4: 7474                     JZ 48091AH
004808A6: 744B                     JZ 4808F3H
004808A8: 7979                     JNS 480923H
004808AA: 794B                     JNS 4808F7H
004808AC: 7F7F                     JNLE 48082DH
004808AE: 7F46                     JNLE 4808F6H
004808B0: 8282823C838383           AND BYTE PTR [EDX-7C7CC37EH], FFFFFF83H
004808B7: 2D8686861B               SUB EAX, 1B868686H
004808BC: 7D7D                     JNL 48093BH
004808BE: 7D07                     JNL 4808C7H
004808C0: 0000                     ADD [EAX], AL
004808C2: 0000                     ADD [EAX], AL
004808C4: 0000                     ADD [EAX], AL
004808C6: 0000                     ADD [EAX], AL
004808C8: 0000                     ADD [EAX], AL
004808CA: 0000                     ADD [EAX], AL
004808CC: 0000                     ADD [EAX], AL
004808CE: 0000                     ADD [EAX], AL
004808D0: 0000                     ADD [EAX], AL
004808D2: 0000                     ADD [EAX], AL
004808D4: 0000                     ADD [EAX], AL
004808D6: 0000                     ADD [EAX], AL
004808D8: 0000                     ADD [EAX], AL
004808DA: 0000                     ADD [EAX], AL
004808DC: 0000                     ADD [EAX], AL
004808DE: 0000                     ADD [EAX], AL
004808E0: 0000                     ADD [EAX], AL
004808E2: 0000                     ADD [EAX], AL
004808E4: 0000                     ADD [EAX], AL
004808E6: 0000                     ADD [EAX], AL
004808E8: 0000                     ADD [EAX], AL
004808EA: 0000                     ADD [EAX], AL
004808EC: 0000                     ADD [EAX], AL
004808EE: 0000                     ADD [EAX], AL
004808F0: 0000                     ADD [EAX], AL
004808F2: 0000                     ADD [EAX], AL
004808F4: 0000                     ADD [EAX], AL
004808F6: 0000                     ADD [EAX], AL
004808F8: 0000                     ADD [EAX], AL
004808FA: 0000                     ADD [EAX], AL
004808FC: 0000                     ADD [EAX], AL
004808FE: 0000                     ADD [EAX], AL
00480900: 0000                     ADD [EAX], AL
00480902: 0000                     ADD [EAX], AL
00480904: 0000                     ADD [EAX], AL
00480906: 0000                     ADD [EAX], AL
00480908: 0000                     ADD [EAX], AL
0048090A: 0000                     ADD [EAX], AL
0048090C: 0000                     ADD [EAX], AL
0048090E: 0000                     ADD [EAX], AL
00480910: 0000                     ADD [EAX], AL
00480912: 0000                     ADD [EAX], AL
00480914: 0000                     ADD [EAX], AL
00480916: 0000                     ADD [EAX], AL
00480918: 0000                     ADD [EAX], AL
0048091A: 0000                     ADD [EAX], AL
0048091C: 0000                     ADD [EAX], AL
0048091E: 0000                     ADD [EAX], AL
00480920: 0000                     ADD [EAX], AL
00480922: 0000                     ADD [EAX], AL
00480924: 0000                     ADD [EAX], AL
00480926: 0000                     ADD [EAX], AL
00480928: 0000                     ADD [EAX], AL
0048092A: 0000                     ADD [EAX], AL
0048092C: 0000                     ADD [EAX], AL
0048092E: 0000                     ADD [EAX], AL
00480930: 0000                     ADD [EAX], AL
00480932: 0000                     ADD [EAX], AL
00480934: 0000                     ADD [EAX], AL
00480936: 0000                     ADD [EAX], AL
00480938: 0000                     ADD [EAX], AL
0048093A: 0000                     ADD [EAX], AL
0048093C: 83838301A2A2A2           ADD [EBX-5D5DFE7DH], FFFFFFA2H
00480943: 11C0                     ADC EAX, EAX
00480945: C0C042                   ROL AL, 42H
00480948: FC                       CLD 
00480949: FC                       CLD 
0048094A: FC                       CLD 
0048094B: 85F1                     TEST ESI, ECX
0048094D: F1                       ICEBP 
0048094E: F1                       ICEBP 
0048094F: BDDBDBDBDD               MOV EBP, DDDBDBDBH
00480954: BDBDBDEBA9               MOV EBP, A9EBBDBDH
00480959: A9A9F6A5A5               TEST EAX, A5A5F6A9H
0048095E: A5                       MOVSD 
0048095F: FA                       CLI 
00480960: A5                       MOVSD 
00480961: A5                       MOVSD 
00480962: A5                       MOVSD 
00480963: FB                       STI 
00480964: A6                       CMPSB 
00480965: A6                       CMPSB 
00480966: A6                       CMPSB 
00480967: F9                       STC 
00480968: AA                       STOSB 
00480969: AA                       STOSB 
0048096A: AA                       STOSB 
0048096B: F4                       HLT 
0048096C: C3                       RET 
0048096D: C3                       RET 
0048096E: C3                       RET 
0048096F: E7E1                     OUT E1H, EAX
00480971: E1E1                     LOOPZ 480954H
00480973: DAED                     INVALID
00480975: ED                       IN EAX, DX
00480976: ED                       IN EAX, DX
00480977: B9FCFCFC91               MOV ECX, 91FCFCFCH
0048097C: E5E5                     IN EAX, E5H
0048097E: E55E                     IN EAX, 5EH
00480980: 92                       XCHG EDX, EAX
00480981: 92                       XCHG EDX, EAX
00480982: 92                       XCHG EDX, EAX
00480983: 2682828204000000         AND BYTE PTR ES:[EDX+00000482H], 00H
0048098B: 0000                     ADD [EAX], AL
0048098D: 0000                     ADD [EAX], AL
0048098F: 0000                     ADD [EAX], AL
00480991: 0000                     ADD [EAX], AL
00480993: 0000                     ADD [EAX], AL
00480995: 0000                     ADD [EAX], AL
00480997: 0000                     ADD [EAX], AL
00480999: 0000                     ADD [EAX], AL
0048099B: 0000                     ADD [EAX], AL
0048099D: 0000                     ADD [EAX], AL
0048099F: 0000                     ADD [EAX], AL
004809A1: 0000                     ADD [EAX], AL
004809A3: 0000                     ADD [EAX], AL
004809A5: 0000                     ADD [EAX], AL
004809A7: 0000                     ADD [EAX], AL
004809A9: 0000                     ADD [EAX], AL
004809AB: 0000                     ADD [EAX], AL
004809AD: 0000                     ADD [EAX], AL
004809AF: 0000                     ADD [EAX], AL
004809B1: 0000                     ADD [EAX], AL
004809B3: 0000                     ADD [EAX], AL
004809B5: 0000                     ADD [EAX], AL
004809B7: 0000                     ADD [EAX], AL
004809B9: 0000                     ADD [EAX], AL
004809BB: 0000                     ADD [EAX], AL
004809BD: 0000                     ADD [EAX], AL
004809BF: 0000                     ADD [EAX], AL
004809C1: 0000                     ADD [EAX], AL
004809C3: 0000                     ADD [EAX], AL
004809C5: 0000                     ADD [EAX], AL
004809C7: 0000                     ADD [EAX], AL
004809C9: 0000                     ADD [EAX], AL
004809CB: 0000                     ADD [EAX], AL
004809CD: 0000                     ADD [EAX], AL
004809CF: 0000                     ADD [EAX], AL
004809D1: 0000                     ADD [EAX], AL
004809D3: 0000                     ADD [EAX], AL
004809D5: 0000                     ADD [EAX], AL
004809D7: 0000                     ADD [EAX], AL
004809D9: 0000                     ADD [EAX], AL
004809DB: 0000                     ADD [EAX], AL
004809DD: 0000                     ADD [EAX], AL
004809DF: 0000                     ADD [EAX], AL
004809E1: 0000                     ADD [EAX], AL
004809E3: 0000                     ADD [EAX], AL
004809E5: 0000                     ADD [EAX], AL
004809E7: 0000                     ADD [EAX], AL
004809E9: 0000                     ADD [EAX], AL
004809EB: 0000                     ADD [EAX], AL
004809ED: 0000                     ADD [EAX], AL
004809EF: 0000                     ADD [EAX], AL
004809F1: 0000                     ADD [EAX], AL
004809F3: 0000                     ADD [EAX], AL
004809F5: 0000                     ADD [EAX], AL
004809F7: 0080808003BF             ADD [EAX-40FC7F80H], AL
004809FD: BFBF24FFFF               MOV EDI, FFFF24BFH
00480A02: FF78F2                   INVALID
00480A05: F2F2C4C4                 REPNZ LES EAX, ESP
00480A09: C4C4                     LES EAX, ESP
00480A0B: EC                       IN AL, DX
00480A0C: 8B8B8BF05A5A             MOV ECX, [EBX+5A5AF08BH]
00480A12: 5A                       POP EDX
00480A13: F02B2B                   LOCK SUB EBP, [EBX]
00480A16: 2BEB                     SUB EBP, EBX
00480A18: 0D0D0DF108               OR EAX, 08F10D0DH
00480A1D: 0808                     OR [EAX], CL
00480A1F: F8                       CLC 
00480A20: 0808                     OR [EAX], CL
00480A22: 08FA                     OR DL, BH
00480A24: 0909                     OR [ECX], ECX
00480A26: 09F6                     OR ESI, ESI
00480A28: 0E                       PUSH CS
00480A29: 0E                       PUSH CS
00480A2A: 0E                       PUSH CS
00480A2B: ED                       IN EAX, DX
00480A2C: 3333                     XOR ESI, [EBX]
00480A2E: 33E9                     XOR EBP, ECX
00480A30: 646464F4                 HLT 
00480A34: 7E7E                     JLE 4809B4H
00480A36: 7EEC                     JLE 480A24H
00480A38: B1B1                     MOV CL, B1H
00480A3A: B1EC                     MOV CL, ECH
00480A3C: D9D9                     INVALID
00480A3E: D9E0                     FCHS 
00480A40: FB                       STI 
00480A41: FB                       STI 
00480A42: FB                       STI 
00480A43: 9ADDDDDD318686           CALL FAR 8686:31DDDDDDH
00480A4A: 8602                     XCHG AL, [EDX]
00480A4C: 0000                     ADD [EAX], AL
00480A4E: 0000                     ADD [EAX], AL
00480A50: 0000                     ADD [EAX], AL
00480A52: 0000                     ADD [EAX], AL
00480A54: 0000                     ADD [EAX], AL
00480A56: 0000                     ADD [EAX], AL
00480A58: 0000                     ADD [EAX], AL
00480A5A: 0000                     ADD [EAX], AL
00480A5C: 0000                     ADD [EAX], AL
00480A5E: 0000                     ADD [EAX], AL
00480A60: 0000                     ADD [EAX], AL
00480A62: 0000                     ADD [EAX], AL
00480A64: 0000                     ADD [EAX], AL
00480A66: 0000                     ADD [EAX], AL
00480A68: 0000                     ADD [EAX], AL
00480A6A: 0000                     ADD [EAX], AL
00480A6C: 0000                     ADD [EAX], AL
00480A6E: 0000                     ADD [EAX], AL
00480A70: 0000                     ADD [EAX], AL
00480A72: 0000                     ADD [EAX], AL
00480A74: 0000                     ADD [EAX], AL
00480A76: 0000                     ADD [EAX], AL
00480A78: 0000                     ADD [EAX], AL
00480A7A: 0000                     ADD [EAX], AL
00480A7C: 0000                     ADD [EAX], AL
00480A7E: 0000                     ADD [EAX], AL
00480A80: 0000                     ADD [EAX], AL
00480A82: 0000                     ADD [EAX], AL
00480A84: 0000                     ADD [EAX], AL
00480A86: 0000                     ADD [EAX], AL
00480A88: 0000                     ADD [EAX], AL
00480A8A: 0000                     ADD [EAX], AL
00480A8C: 0000                     ADD [EAX], AL
00480A8E: 0000                     ADD [EAX], AL
00480A90: 0000                     ADD [EAX], AL
00480A92: 0000                     ADD [EAX], AL
00480A94: 0000                     ADD [EAX], AL
00480A96: 0000                     ADD [EAX], AL
00480A98: 0000                     ADD [EAX], AL
00480A9A: 0000                     ADD [EAX], AL
00480A9C: 0000                     ADD [EAX], AL
00480A9E: 0000                     ADD [EAX], AL
00480AA0: 0000                     ADD [EAX], AL
00480AA2: 0000                     ADD [EAX], AL
00480AA4: 0000                     ADD [EAX], AL
00480AA6: 0000                     ADD [EAX], AL
00480AA8: 0000                     ADD [EAX], AL
00480AAA: 0000                     ADD [EAX], AL
00480AAC: 0000                     ADD [EAX], AL
00480AAE: 0000                     ADD [EAX], AL
00480AB0: 0000                     ADD [EAX], AL
00480AB2: 0000                     ADD [EAX], AL
00480AB4: 0000                     ADD [EAX], AL
00480AB6: 0000                     ADD [EAX], AL
00480AB8: 85858514FAFA             TEST EAX, [EBP-0505EB7BH]
00480ABE: FA                       CLI 
00480ABF: 8CD8                     MOV EAX, DS
00480AC1: D8D8                     FCOMP ST(0)
00480AC3: E78D                     OUT 8DH, EAX
00480AC5: 8D8DED414141             LEA ECX, [EBP+414141EDH]
00480ACB: ED                       IN EAX, DX
00480ACC: 0F0F                     INVALID
00480ACE: 0FF100                   PSLLW MM0, [EAX]
00480AD1: 0000                     ADD [EAX], AL
00480AD3: F9                       STC 
00480AD4: 0000                     ADD [EAX], AL
00480AD6: 00FE                     ADD DH, BH
00480AD8: 0000                     ADD [EAX], AL
00480ADA: 00FF                     ADD BH, BH
00480ADC: 0000                     ADD [EAX], AL
00480ADE: 00FE                     ADD DH, BH
00480AE0: 0000                     ADD [EAX], AL
00480AE2: 00FF                     ADD BH, BH
00480AE4: 0000                     ADD [EAX], AL
00480AE6: 00FE                     ADD DH, BH
00480AE8: 0000                     ADD [EAX], AL
00480AEA: 00FF                     ADD BH, BH
00480AEC: 0000                     ADD [EAX], AL
00480AEE: 00FE                     ADD DH, BH
00480AF0: 0000                     ADD [EAX], AL
00480AF2: 00FA                     ADD DL, BH
00480AF4: 050505EF29               ADD EAX, 29EF0505H
00480AF9: 2929                     SUB [ECX], EBP
00480AFB: EF                       OUT DX, EAX
00480AFC: 646464E8CCCCCCE0         CALL E114D7D0H
00480B04: FC                       CLD 
00480B05: FC                       CLD 
00480B06: FC                       CLD 
00480B07: 87B8B8B80B62             XCHG EDI, [EAX+620BB8B8H]
00480B0D: 626201                   BOUND ESP, [EDX+01H]
00480B10: 6C                       INSB 
00480B11: 6C                       INSB 
00480B12: 6C                       INSB 
00480B13: 0100                     ADD [EAX], EAX
00480B15: 0000                     ADD [EAX], AL
00480B17: 0000                     ADD [EAX], AL
00480B19: 0000                     ADD [EAX], AL
00480B1B: 0000                     ADD [EAX], AL
00480B1D: 0000                     ADD [EAX], AL
00480B1F: 0000                     ADD [EAX], AL
00480B21: 0000                     ADD [EAX], AL
00480B23: 0000                     ADD [EAX], AL
00480B25: 0000                     ADD [EAX], AL
00480B27: 0000                     ADD [EAX], AL
00480B29: 0000                     ADD [EAX], AL
00480B2B: 0000                     ADD [EAX], AL
00480B2D: 0000                     ADD [EAX], AL
00480B2F: 0000                     ADD [EAX], AL
00480B31: 0000                     ADD [EAX], AL
00480B33: 0000                     ADD [EAX], AL
00480B35: 0000                     ADD [EAX], AL
00480B37: 0000                     ADD [EAX], AL
00480B39: 0000                     ADD [EAX], AL
00480B3B: 0000                     ADD [EAX], AL
00480B3D: 0000                     ADD [EAX], AL
00480B3F: 0000                     ADD [EAX], AL
00480B41: 0000                     ADD [EAX], AL
00480B43: 0000                     ADD [EAX], AL
00480B45: 0000                     ADD [EAX], AL
00480B47: 0000                     ADD [EAX], AL
00480B49: 0000                     ADD [EAX], AL
00480B4B: 0000                     ADD [EAX], AL
00480B4D: 0000                     ADD [EAX], AL
00480B4F: 0000                     ADD [EAX], AL
00480B51: 0000                     ADD [EAX], AL
00480B53: 0000                     ADD [EAX], AL
00480B55: 0000                     ADD [EAX], AL
00480B57: 0000                     ADD [EAX], AL
00480B59: 0000                     ADD [EAX], AL
00480B5B: 0000                     ADD [EAX], AL
00480B5D: 0000                     ADD [EAX], AL
00480B5F: 0000                     ADD [EAX], AL
00480B61: 0000                     ADD [EAX], AL
00480B63: 0000                     ADD [EAX], AL
00480B65: 0000                     ADD [EAX], AL
00480B67: 0000                     ADD [EAX], AL
00480B69: 0000                     ADD [EAX], AL
00480B6B: 0000                     ADD [EAX], AL
00480B6D: 0000                     ADD [EAX], AL
00480B6F: 00BDBDBD20BA             ADD [EBP-45DF4243H], BH
00480B75: BABA4FC4C4               MOV EDX, C4C44FBAH
00480B7A: C467EC                   LES ESP, [EDI-14H]
00480B7D: EC                       IN AL, DX
00480B7E: EC                       IN AL, DX
00480B7F: DE878787F216             FIADD WORD PTR [EDI+16F28787H]
00480B85: 16                       PUSH SS
00480B86: 16                       PUSH SS
00480B87: F00000                   LOCK ADD [EAX], AL
00480B8A: 00FB                     ADD BL, BH
00480B8C: 0000                     ADD [EAX], AL
00480B8E: 00FF                     ADD BH, BH
00480B90: 0000                     ADD [EAX], AL
00480B92: 00FF                     ADD BH, BH
00480B94: 0000                     ADD [EAX], AL
00480B96: 00FF                     ADD BH, BH
00480B98: 0000                     ADD [EAX], AL
00480B9A: 00FF                     ADD BH, BH
00480B9C: 0000                     ADD [EAX], AL
00480B9E: 00FF                     ADD BH, BH
00480BA0: 0000                     ADD [EAX], AL
00480BA2: 00FF                     ADD BH, BH
00480BA4: 0000                     ADD [EAX], AL
00480BA6: 00FF                     ADD BH, BH
00480BA8: 0000                     ADD [EAX], AL
00480BAA: 00FF                     ADD BH, BH
00480BAC: 0000                     ADD [EAX], AL
00480BAE: 00FF                     ADD BH, BH
00480BB0: 0000                     ADD [EAX], AL
00480BB2: 00FF                     ADD BH, BH
00480BB4: 0000                     ADD [EAX], AL
00480BB6: 00FF                     ADD BH, BH
00480BB8: 0000                     ADD [EAX], AL
00480BBA: 00FE                     ADD DH, BH
00480BBC: 1414                     ADC AL, 14H
00480BBE: 14F2                     ADC AL, F2H
00480BC0: 888888E9FAFA             MOV [EAX-05051678H], CL
00480BC6: FA                       CLI 
00480BC7: B8B5B5B527               MOV EAX, 27B5B5B5H
00480BCC: 5E                       POP ESI
00480BCD: 5E                       POP ESI
00480BCE: 5E                       POP ESI
00480BCF: 016868                   ADD [EAX+68H], EBP
00480BD2: 6801000000               PUSH 00000001H
00480BD7: 0000                     ADD [EAX], AL
00480BD9: 0000                     ADD [EAX], AL
00480BDB: 0000                     ADD [EAX], AL
00480BDD: 0000                     ADD [EAX], AL
00480BDF: 0000                     ADD [EAX], AL
00480BE1: 0000                     ADD [EAX], AL
00480BE3: 0000                     ADD [EAX], AL
00480BE5: 0000                     ADD [EAX], AL
00480BE7: 0000                     ADD [EAX], AL
00480BE9: 0000                     ADD [EAX], AL
00480BEB: 0000                     ADD [EAX], AL
00480BED: 0000                     ADD [EAX], AL
00480BEF: 0000                     ADD [EAX], AL
00480BF1: 0000                     ADD [EAX], AL
00480BF3: 00CC                     ADD AH, CL
00480BF5: CC                       INT 3 
00480BF6: CC                       INT 3 
00480BF7: 10CB                     ADC BL, CL
00480BF9: CB                       RETF 
00480BFA: CB                       RETF 
00480BFB: 41                       INC ECX
00480BFC: CACACA                   RETF CACAH
00480BFF: 4A                       DEC EDX
00480C00: C9                       LEAVE 
00480C01: C9                       LEAVE 
00480C02: C9                       LEAVE 
00480C03: 32AAAAAA0E00             XOR CH, [EDX+000EAAAAH]
00480C09: 0000                     ADD [EAX], AL
00480C0B: 0000                     ADD [EAX], AL
00480C0D: 0000                     ADD [EAX], AL
00480C0F: 0000                     ADD [EAX], AL
00480C11: 0000                     ADD [EAX], AL
00480C13: 0000                     ADD [EAX], AL
00480C15: 0000                     ADD [EAX], AL
00480C17: 0000                     ADD [EAX], AL
00480C19: 0000                     ADD [EAX], AL
00480C1B: 0000                     ADD [EAX], AL
00480C1D: 0000                     ADD [EAX], AL
00480C1F: 0000                     ADD [EAX], AL
00480C21: 0000                     ADD [EAX], AL
00480C23: 0000                     ADD [EAX], AL
00480C25: 0000                     ADD [EAX], AL
00480C27: 00BABABA13C4             ADD [EDX-3BEC4546H], BH
00480C2D: C4C4                     LES EAX, ESP
00480C2F: 4C                       DEC ESP
00480C30: FEFE                     INVALID
00480C32: FEA3ECECECD2             JMP BYTE PTR [EBX-2D131314H]
00480C38: E8E8E8D5EB               CALL EC1DF525H
00480C3D: EBEB                     JMP 480C2AH
00480C3F: F27C7C                   REPNZ JL 480CBEH
00480C42: 7CEA                     JL 480C2EH
00480C44: 0404                     ADD AL, 04H
00480C46: 04F3                     ADD AL, F3H
00480C48: 0000                     ADD [EAX], AL
00480C4A: 00FF                     ADD BH, BH
00480C4C: 0000                     ADD [EAX], AL
00480C4E: 00FE                     ADD DH, BH
00480C50: 0000                     ADD [EAX], AL
00480C52: 00FF                     ADD BH, BH
00480C54: 0000                     ADD [EAX], AL
00480C56: 00FE                     ADD DH, BH
00480C58: 0000                     ADD [EAX], AL
00480C5A: 00FF                     ADD BH, BH
00480C5C: 0000                     ADD [EAX], AL
00480C5E: 00FE                     ADD DH, BH
00480C60: 0000                     ADD [EAX], AL
00480C62: 00FF                     ADD BH, BH
00480C64: 0000                     ADD [EAX], AL
00480C66: 00FE                     ADD DH, BH
00480C68: 0000                     ADD [EAX], AL
00480C6A: 00FF                     ADD BH, BH
00480C6C: 0000                     ADD [EAX], AL
00480C6E: 00FE                     ADD DH, BH
00480C70: 0000                     ADD [EAX], AL
00480C72: 00FF                     ADD BH, BH
00480C74: 0000                     ADD [EAX], AL
00480C76: 00FE                     ADD DH, BH
00480C78: 0000                     ADD [EAX], AL
00480C7A: 00FF                     ADD BH, BH
00480C7C: 0808                     OR [EAX], CL
00480C7E: 08F9                     OR CL, BH
00480C80: 5A                       POP EDX
00480C81: 5A                       POP EDX
00480C82: 5A                       POP EDX
00480C83: EBE8                     JMP 480C6DH
00480C85: E8E8CEB8B8               CALL B900DB72H
00480C8A: B854000000               MOV EAX, 00000054H
00480C8F: 006363                   ADD [EBX+63H], AH
00480C92: 6301                     ARPL EAX, [ECX]
00480C94: 0000                     ADD [EAX], AL
00480C96: 0000                     ADD [EAX], AL
00480C98: 0000                     ADD [EAX], AL
00480C9A: 0000                     ADD [EAX], AL
00480C9C: 0000                     ADD [EAX], AL
00480C9E: 0000                     ADD [EAX], AL
00480CA0: 0000                     ADD [EAX], AL
00480CA2: 0000                     ADD [EAX], AL
00480CA4: 0000                     ADD [EAX], AL
00480CA6: 0000                     ADD [EAX], AL
00480CA8: 0000                     ADD [EAX], AL
00480CAA: 0000                     ADD [EAX], AL
00480CAC: 0000                     ADD [EAX], AL
00480CAE: 0000                     ADD [EAX], AL
00480CB0: 8A8A8A04FDFD             MOV CL, [EDX-0202FB76H]
00480CB6: FD                       STD 
00480CB7: 5C                       POP ESP
00480CB8: EE                       OUT DX, AL
00480CB9: EE                       OUT DX, AL
00480CBA: EE                       OUT DX, AL
00480CBB: BDE2E2E2C8               MOV EBP, C8E2E2E2H
00480CC0: FA                       CLI 
00480CC1: FA                       CLI 
00480CC2: FA                       CLI 
00480CC3: BAEDEDED97               MOV EDX, 97EDEDEDH
00480CC8: CC                       INT 3 
00480CC9: CC                       INT 3 
00480CCA: CC                       INT 3 
00480CCB: 60                       PUSHAD 
00480CCC: CACACA                   RETF CACAH
00480CCF: 34CA                     XOR AL, CAH
00480CD1: CACA1D                   RETF 1DCAH
00480CD4: C7C7C714C3C3             MOV EDI, C3C314C7H
00480CDA: C3                       RET 
00480CDB: 12C0                     ADC AL, AL
00480CDD: C0C017                   ROL AL, 17H
00480CE0: C2C2C2                   RETN C2C2H
00480CE3: 27                       DAA 
00480CE4: C6C6C6                   MOV DH, C6H
00480CE7: 58                       POP EAX
00480CE8: F8                       CLC 
00480CE9: F8                       CLC 
00480CEA: F8                       CLC 
00480CEB: A1F5F5F5CB               MOV EAX, [CBF5F5F5H]
00480CF0: BFBFBFE95D               MOV EDI, 5DE9BFBFH
00480CF5: 5D                       POP EBP
00480CF6: 5D                       POP EBP
00480CF7: ED                       IN EAX, DX
00480CF8: 98                       CWDE 
00480CF9: 98                       CWDE 
00480CFA: 98                       CWDE 
00480CFB: ED                       IN EAX, DX
00480CFC: F8                       CLC 
00480CFD: F8                       CLC 
00480CFE: F8                       CLC 
00480CFF: F5                       CMC 
00480D00: AF                       SCASD 
00480D01: AF                       SCASD 
00480D02: AF                       SCASD 
00480D03: EC                       IN AL, DX
00480D04: 1C1C                     SBB AL, 1CH
00480D06: 1CF2                     SBB AL, F2H
00480D08: 0000                     ADD [EAX], AL
00480D0A: 00FF                     ADD BH, BH
00480D0C: 0000                     ADD [EAX], AL
00480D0E: 00FF                     ADD BH, BH
00480D10: 0000                     ADD [EAX], AL
00480D12: 00FF                     ADD BH, BH
00480D14: 0000                     ADD [EAX], AL
00480D16: 00FF                     ADD BH, BH
00480D18: 0000                     ADD [EAX], AL
00480D1A: 00FF                     ADD BH, BH
00480D1C: 0000                     ADD [EAX], AL
00480D1E: 00FF                     ADD BH, BH
00480D20: 0000                     ADD [EAX], AL
00480D22: 00FF                     ADD BH, BH
00480D24: 0000                     ADD [EAX], AL
00480D26: 00FF                     ADD BH, BH
00480D28: 0000                     ADD [EAX], AL
00480D2A: 00FF                     ADD BH, BH
00480D2C: 0000                     ADD [EAX], AL
00480D2E: 00FF                     ADD BH, BH
00480D30: 0000                     ADD [EAX], AL
00480D32: 00FF                     ADD BH, BH
00480D34: 0000                     ADD [EAX], AL
00480D36: 00FF                     ADD BH, BH
00480D38: 0000                     ADD [EAX], AL
00480D3A: 00FF                     ADD BH, BH
00480D3C: 0101                     ADD [ECX], EAX
00480D3E: 01FB                     ADD EBX, EDI
00480D40: 3434                     XOR AL, 34H
00480D42: 34F0                     XOR AL, F0H
00480D44: C4C4                     LES EAX, ESP
00480D46: C4E3                     LES ESP, EBX
00480D48: E6E6                     OUT E6H, AL
00480D4A: E681                     OUT 81H, AL
00480D4C: 92                       XCHG EDX, EAX
00480D4D: 92                       XCHG EDX, EAX
00480D4E: 92                       XCHG EDX, EAX
00480D4F: 07                       POP ES
00480D50: 0000                     ADD [EAX], AL
00480D52: 0000                     ADD [EAX], AL
00480D54: 0000                     ADD [EAX], AL
00480D56: 0000                     ADD [EAX], AL
00480D58: 0000                     ADD [EAX], AL
00480D5A: 0000                     ADD [EAX], AL
00480D5C: 0000                     ADD [EAX], AL
00480D5E: 0000                     ADD [EAX], AL
00480D60: 0000                     ADD [EAX], AL
00480D62: 0000                     ADD [EAX], AL
00480D64: 0000                     ADD [EAX], AL
00480D66: 0000                     ADD [EAX], AL
00480D68: 0000                     ADD [EAX], AL
00480D6A: 0000                     ADD [EAX], AL
00480D6C: 0000                     ADD [EAX], AL
00480D6E: 0000                     ADD [EAX], AL
00480D70: 87878708F7F7             XCHG EAX, [EDI-0808F779H]
00480D76: F794AAAAAAE54F           NOT [EDX+EBP*4+4FE5AAAAH]
00480D7D: 4F                       DEC EDI
00480D7E: 4F                       DEC EDI
00480D7F: E283                     LOOP 480D04H
00480D81: 8383EAB4B4B4E1           ADD [EBX-4B4B4B16H], FFFFFFE1H
00480D88: E8E8E8D5FE               CALL FF1DF675H
00480D8D: FEFE                     INVALID
00480D8F: C9                       LEAVE 
00480D90: FFFF                     INVALID
00480D92: FFB3FEFEFEA3             PUSH [EBX-5C010102H]
00480D98: FFFF                     INVALID
00480D9A: FF9FFEFEFEA9             CALL FAR [EDI-56010102H]
00480DA0: FFFF                     INVALID
00480DA2: FFC1                     INC ECX
00480DA4: F5                       CMC 
00480DA5: F5                       CMC 
00480DA6: F5                       CMC 
00480DA7: D7                       XLAT 
00480DA8: B7B7                     MOV BH, B7H
00480DAA: B7E3                     MOV BH, E3H
00480DAC: 7373                     JNB 480E21H
00480DAE: 73E8                     JNB 480D98H
00480DB0: 2E2E2EEF                 OUT DX, EAX
00480DB4: 0909                     OR [ECX], ECX
00480DB6: 09F4                     OR ESP, ESI
00480DB8: 50                       PUSH EAX
00480DB9: 50                       PUSH EAX
00480DBA: 50                       PUSH EAX
00480DBB: E2F0                     LOOP 480DADH
00480DBD: F0F0F1                   LOCK ICEBP 
00480DC0: CACACA                   RETF CACAH
00480DC3: F23333                   REPNZ XOR ESI, [EBX]
00480DC6: 33EE                     XOR EBP, ESI
00480DC8: 0000                     ADD [EAX], AL
00480DCA: 00FD                     ADD CH, BH
00480DCC: 0000                     ADD [EAX], AL
00480DCE: 00FE                     ADD DH, BH
00480DD0: 0000                     ADD [EAX], AL
00480DD2: 00FF                     ADD BH, BH
00480DD4: 0000                     ADD [EAX], AL
00480DD6: 00FE                     ADD DH, BH
00480DD8: 0000                     ADD [EAX], AL
00480DDA: 00FF                     ADD BH, BH
00480DDC: 0000                     ADD [EAX], AL
00480DDE: 00FE                     ADD DH, BH
00480DE0: 0000                     ADD [EAX], AL
00480DE2: 00FF                     ADD BH, BH
00480DE4: 0000                     ADD [EAX], AL
00480DE6: 00FE                     ADD DH, BH
00480DE8: 0000                     ADD [EAX], AL
00480DEA: 00FF                     ADD BH, BH
00480DEC: 0000                     ADD [EAX], AL
00480DEE: 00FE                     ADD DH, BH
00480DF0: 0000                     ADD [EAX], AL
00480DF2: 00FF                     ADD BH, BH
00480DF4: 0000                     ADD [EAX], AL
00480DF6: 00FE                     ADD DH, BH
00480DF8: 0000                     ADD [EAX], AL
00480DFA: 00FF                     ADD BH, BH
00480DFC: 0000                     ADD [EAX], AL
00480DFE: 00FE                     ADD DH, BH
00480E00: 1F                       POP DS
00480E01: 1F                       POP DS
00480E02: 1F                       POP DS
00480E03: F69F9F9FE7FE             NEG BYTE PTR [EDI-01186061H]
00480E09: FEFE                     INVALID
00480E0B: 9E                       SAHF 
00480E0C: B0B0                     MOV AL, B0H
00480E0E: B01B                     MOV AL, 1BH
00480E10: 0000                     ADD [EAX], AL
00480E12: 0000                     ADD [EAX], AL
00480E14: 0000                     ADD [EAX], AL
00480E16: 0000                     ADD [EAX], AL
00480E18: 0000                     ADD [EAX], AL
00480E1A: 0000                     ADD [EAX], AL
00480E1C: 0000                     ADD [EAX], AL
00480E1E: 0000                     ADD [EAX], AL
00480E20: 0000                     ADD [EAX], AL
00480E22: 0000                     ADD [EAX], AL
00480E24: 0000                     ADD [EAX], AL
00480E26: 0000                     ADD [EAX], AL
00480E28: 0000                     ADD [EAX], AL
00480E2A: 0000                     ADD [EAX], AL
00480E2C: 0000                     ADD [EAX], AL
00480E2E: 0000                     ADD [EAX], AL
00480E30: 85858508FBFB             TEST EAX, [EBP-0404F77BH]
00480E36: FB                       STI 
00480E37: 95                       XCHG EBP, EAX
00480E38: BDBDBDF513               MOV EBP, 13F5BDBDH
00480E3D: 1313                     ADC EDX, [EBX]
00480E3F: EE                       OUT DX, AL
00480E40: 1313                     ADC EDX, [EBX]
00480E42: 13F7                     ADC ESI, EDI
00480E44: 262626F046               LOCK INC ESI
00480E49: 46                       INC ESI
00480E4A: 46                       INC ESI
00480E4B: EF                       OUT DX, EAX
00480E4C: 61                       POPAD 
00480E4D: 61                       POPAD 
00480E4E: 61                       POPAD 
00480E4F: E8747474DE               CALL DEBC82C8H
00480E54: 828282DA858585           AND BYTE PTR [EDX-7A7A257EH], FFFFFF85H
00480E5B: D97C7C7C                 FNSTCW [ESP+EDI*2+7CH]
00480E5F: DB6A6A                   FLD REAL10 PTR [EDX+6AH]
00480E62: 6AE2                     PUSH FFFFFFE2H
00480E64: 52                       PUSH EDX
00480E65: 52                       PUSH EDX
00480E66: 52                       PUSH EDX
00480E67: EE                       OUT DX, AL
00480E68: 262626EE                 OUT DX, AL
00480E6C: 0F0F                     INVALID
00480E6E: 0FF800                   PSUBB MM0, [EAX]
00480E71: 0000                     ADD [EAX], AL
00480E73: FC                       CLD 
00480E74: 0000                     ADD [EAX], AL
00480E76: 00FD                     ADD CH, BH
00480E78: 2929                     SUB [ECX], EBP
00480E7A: 29ED                     SUB EBP, EBP
00480E7C: D4D4                     AAM D4H
00480E7E: D4EF                     AAM EFH
00480E80: DDDD                     FSTP ST(5)
00480E82: DDF3                     INVALID
00480E84: 5B                       POP EBX
00480E85: 5B                       POP EBX
00480E86: 5B                       POP EBX
00480E87: E500                     IN EAX, 00H
00480E89: 0000                     ADD [EAX], AL
00480E8B: FB                       STI 
00480E8C: 0000                     ADD [EAX], AL
00480E8E: 00FF                     ADD BH, BH
00480E90: 0000                     ADD [EAX], AL
00480E92: 00FF                     ADD BH, BH
00480E94: 0000                     ADD [EAX], AL
00480E96: 00FF                     ADD BH, BH
00480E98: 0000                     ADD [EAX], AL
00480E9A: 00FF                     ADD BH, BH
00480E9C: 0000                     ADD [EAX], AL
00480E9E: 00FF                     ADD BH, BH
00480EA0: 0000                     ADD [EAX], AL
00480EA2: 00FF                     ADD BH, BH
00480EA4: 0000                     ADD [EAX], AL
00480EA6: 00FF                     ADD BH, BH
00480EA8: 0000                     ADD [EAX], AL
00480EAA: 00FF                     ADD BH, BH
00480EAC: 0000                     ADD [EAX], AL
00480EAE: 00FF                     ADD BH, BH
00480EB0: 0000                     ADD [EAX], AL
00480EB2: 00FF                     ADD BH, BH
00480EB4: 0000                     ADD [EAX], AL
00480EB6: 00FF                     ADD BH, BH
00480EB8: 0000                     ADD [EAX], AL
00480EBA: 00FF                     ADD BH, BH
00480EBC: 0000                     ADD [EAX], AL
00480EBE: 00FF                     ADD BH, BH
00480EC0: 0C0C                     OR AL, 0CH
00480EC2: 0CF5                     OR AL, F5H
00480EC4: 7070                     JO 480F36H
00480EC6: 70E6                     JO 480EAEH
00480EC8: F6F6                     DIV DH
00480ECA: F6C0AF                   TEST AL, AFH
00480ECD: AF                       SCASD 
00480ECE: AF                       SCASD 
00480ECF: 3B00                     CMP EAX, [EAX]
00480ED1: 0000                     ADD [EAX], AL
00480ED3: 0000                     ADD [EAX], AL
00480ED5: 0000                     ADD [EAX], AL
00480ED7: 0000                     ADD [EAX], AL
00480ED9: 0000                     ADD [EAX], AL
00480EDB: 0000                     ADD [EAX], AL
00480EDD: 0000                     ADD [EAX], AL
00480EDF: 0000                     ADD [EAX], AL
00480EE1: 0000                     ADD [EAX], AL
00480EE3: 0000                     ADD [EAX], AL
00480EE5: 0000                     ADD [EAX], AL
00480EE7: 0000                     ADD [EAX], AL
00480EE9: 0000                     ADD [EAX], AL
00480EEB: 0000                     ADD [EAX], AL
00480EED: 0000                     ADD [EAX], AL
00480EEF: 0084848404FEFE           ADD [ESP+EAX*4-0101FB7CH], AL
00480EF6: FE60DD                   JMP BYTE PTR [EAX-23H]
00480EF9: DDDD                     FSTP ST(5)
00480EFB: F4                       HLT 
00480EFC: 3939                     CMP [ECX], EDI
00480EFE: 39E4                     CMP ESP, ESP
00480F00: 0000                     ADD [EAX], AL
00480F02: 00FE                     ADD DH, BH
00480F04: 0000                     ADD [EAX], AL
00480F06: 00FD                     ADD CH, BH
00480F08: 0404                     ADD AL, 04H
00480F0A: 04FC                     ADD AL, FCH
00480F0C: 0808                     OR [EAX], CL
00480F0E: 08F9                     OR CL, BH
00480F10: 0C0C                     OR AL, 0CH
00480F12: 0CF8                     OR AL, F8H
00480F14: 1010                     ADC [EAX], DL
00480F16: 10F8                     ADC AL, BH
00480F18: 1010                     ADC [EAX], DL
00480F1A: 10F8                     ADC AL, BH
00480F1C: 0E                       PUSH CS
00480F1D: 0E                       PUSH CS
00480F1E: 0E                       PUSH CS
00480F1F: F8                       CLC 
00480F20: 0A0A                     OR CL, [EDX]
00480F22: 0AF8                     OR BH, AL
00480F24: 050505FB00               ADD EAX, 00FB0505H
00480F29: 0000                     ADD [EAX], AL
00480F2B: FC                       CLD 
00480F2C: 0000                     ADD [EAX], AL
00480F2E: 00FE                     ADD DH, BH
00480F30: 0000                     ADD [EAX], AL
00480F32: 00FF                     ADD BH, BH
00480F34: 0000                     ADD [EAX], AL
00480F36: 00FE                     ADD DH, BH
00480F38: 1414                     ADC AL, 14H
00480F3A: 14F6                     ADC AL, F6H
00480F3C: 93                       XCHG EBX, EAX
00480F3D: 93                       XCHG EBX, EAX
00480F3E: 93                       XCHG EBX, EAX
00480F3F: E1F6                     LOOPZ 480F37H
00480F41: F6F6                     DIV DH
00480F43: F8                       CLC 
00480F44: 96                       XCHG ESI, EAX
00480F45: 96                       XCHG ESI, EAX
00480F46: 96                       XCHG ESI, EAX
00480F47: ED                       IN EAX, DX
00480F48: 0808                     OR [EAX], CL
00480F4A: 08F6                     OR DH, DH
00480F4C: 0000                     ADD [EAX], AL
00480F4E: 00FE                     ADD DH, BH
00480F50: 0000                     ADD [EAX], AL
00480F52: 00FF                     ADD BH, BH
00480F54: 0000                     ADD [EAX], AL
00480F56: 00FE                     ADD DH, BH
00480F58: 0000                     ADD [EAX], AL
00480F5A: 00FF                     ADD BH, BH
00480F5C: 0000                     ADD [EAX], AL
00480F5E: 00FE                     ADD DH, BH
00480F60: 0000                     ADD [EAX], AL
00480F62: 00FF                     ADD BH, BH
00480F64: 0000                     ADD [EAX], AL
00480F66: 00FE                     ADD DH, BH
00480F68: 0000                     ADD [EAX], AL
00480F6A: 00FF                     ADD BH, BH
00480F6C: 0000                     ADD [EAX], AL
00480F6E: 00FE                     ADD DH, BH
00480F70: 0000                     ADD [EAX], AL
00480F72: 00FF                     ADD BH, BH
00480F74: 0000                     ADD [EAX], AL
00480F76: 00FE                     ADD DH, BH
00480F78: 0000                     ADD [EAX], AL
00480F7A: 00FF                     ADD BH, BH
00480F7C: 0000                     ADD [EAX], AL
00480F7E: 00FE                     ADD DH, BH
00480F80: 0101                     ADD [ECX], EAX
00480F82: 01FA                     ADD EDX, EDI
00480F84: 4C                       DEC ESP
00480F85: 4C                       DEC ESP
00480F86: 4C                       DEC ESP
00480F87: F2E2E2                   REPNZ LOOP 480F6CH
00480F8A: E2DB                     LOOP 480F67H
00480F8C: F0F0F0629999990300       LOCK BOUND EBX, [ECX+00039999H]
00480F95: 0000                     ADD [EAX], AL
00480F97: 0000                     ADD [EAX], AL
00480F99: 0000                     ADD [EAX], AL
00480F9B: 0000                     ADD [EAX], AL
00480F9D: 0000                     ADD [EAX], AL
00480F9F: 0000                     ADD [EAX], AL
00480FA1: 0000                     ADD [EAX], AL
00480FA3: 0000                     ADD [EAX], AL
00480FA5: 0000                     ADD [EAX], AL
00480FA7: 0000                     ADD [EAX], AL
00480FA9: 0000                     ADD [EAX], AL
00480FAB: 0000                     ADD [EAX], AL
00480FAD: 0000                     ADD [EAX], AL
00480FAF: 0084848401FFFF           ADD [ESP+EAX*4-0000FE7CH], AL
00480FB6: FF2DEEEEEED4             JMP FAR [D4EEEEEEH]
00480FBC: 7B7B                     JNP 481039H
00480FBE: 7BEE                     JNP 480FAEH
00480FC0: 0000                     ADD [EAX], AL
00480FC2: 00FF                     ADD BH, BH
00480FC4: 0000                     ADD [EAX], AL
00480FC6: 00FF                     ADD BH, BH
00480FC8: 0000                     ADD [EAX], AL
00480FCA: 00FF                     ADD BH, BH
00480FCC: 0000                     ADD [EAX], AL
00480FCE: 00FF                     ADD BH, BH
00480FD0: 0000                     ADD [EAX], AL
00480FD2: 00FF                     ADD BH, BH
00480FD4: 0000                     ADD [EAX], AL
00480FD6: 00FF                     ADD BH, BH
00480FD8: 0000                     ADD [EAX], AL
00480FDA: 00FF                     ADD BH, BH
00480FDC: 0000                     ADD [EAX], AL
00480FDE: 00FF                     ADD BH, BH
00480FE0: 0000                     ADD [EAX], AL
00480FE2: 00FF                     ADD BH, BH
00480FE4: 0000                     ADD [EAX], AL
00480FE6: 00FF                     ADD BH, BH
00480FE8: 0000                     ADD [EAX], AL
00480FEA: 00FF                     ADD BH, BH
00480FEC: 0000                     ADD [EAX], AL
00480FEE: 00FF                     ADD BH, BH
00480FF0: 0000                     ADD [EAX], AL
00480FF2: 00FF                     ADD BH, BH
00480FF4: 0000                     ADD [EAX], AL
00480FF6: 00FF                     ADD BH, BH
00480FF8: 06                       PUSH ES
00480FF9: 06                       PUSH ES
00480FFA: 06                       PUSH ES
00480FFB: FA                       CLI 
00480FFC: 55                       PUSH EBP
00480FFD: 55                       PUSH EBP
00480FFE: 55                       PUSH EBP
00480FFF: E8FDFDFDF9               CALL FA460E01H
00481004: BABABAEE26               MOV EDX, 26EEBABAH
00481009: 2626E700                 OUT 00H, EAX
0048100D: 0000                     ADD [EAX], AL
0048100F: FF00                     INC [EAX]
00481011: 0000                     ADD [EAX], AL
00481013: FF00                     INC [EAX]
00481015: 0000                     ADD [EAX], AL
00481017: FF00                     INC [EAX]
00481019: 0000                     ADD [EAX], AL
0048101B: FF00                     INC [EAX]
0048101D: 0000                     ADD [EAX], AL
0048101F: FF00                     INC [EAX]
00481021: 0000                     ADD [EAX], AL
00481023: FF00                     INC [EAX]
00481025: 0000                     ADD [EAX], AL
00481027: FF00                     INC [EAX]
00481029: 0000                     ADD [EAX], AL
0048102B: FF00                     INC [EAX]
0048102D: 0000                     ADD [EAX], AL
0048102F: FF00                     INC [EAX]
00481031: 0000                     ADD [EAX], AL
00481033: FF00                     INC [EAX]
00481035: 0000                     ADD [EAX], AL
00481037: FF00                     INC [EAX]
00481039: 0000                     ADD [EAX], AL
0048103B: FF00                     INC [EAX]
0048103D: 0000                     ADD [EAX], AL
0048103F: FF00                     INC [EAX]
00481041: 0000                     ADD [EAX], AL
00481043: FF29                     JMP FAR [ECX]
00481045: 2929                     SUB [ECX], EBP
00481047: F1                       ICEBP 
00481048: AE                       SCASB 
00481049: AE                       SCASB 
0048104A: AE                       SCASB 
0048104B: E3FF                     JECXZ 48104CH
0048104D: FFFF                     INVALID
0048104F: 93                       XCHG EBX, EAX
00481050: A9A9A91500               TEST EAX, 0015A9A9H
00481055: 0000                     ADD [EAX], AL
00481057: 0000                     ADD [EAX], AL
00481059: 0000                     ADD [EAX], AL
0048105B: 0000                     ADD [EAX], AL
0048105D: 0000                     ADD [EAX], AL
0048105F: 0000                     ADD [EAX], AL
00481061: 0000                     ADD [EAX], AL
00481063: 0000                     ADD [EAX], AL
00481065: 0000                     ADD [EAX], AL
00481067: 0000                     ADD [EAX], AL
00481069: 0000                     ADD [EAX], AL
0048106B: 0000                     ADD [EAX], AL
0048106D: 0000                     ADD [EAX], AL
0048106F: 0000                     ADD [EAX], AL
00481071: 0000                     ADD [EAX], AL
00481073: 0089898914F6             ADD [ECX-09EB7677H], CL
00481079: F6F6                     DIV DH
0048107B: B59E                     MOV CH, 9EH
0048107D: 9E                       SAHF 
0048107E: 9E                       SAHF 
0048107F: F9                       STC 
00481080: 0000                     ADD [EAX], AL
00481082: 00F1                     ADD CL, DH
00481084: 0000                     ADD [EAX], AL
00481086: 00FE                     ADD DH, BH
00481088: 0000                     ADD [EAX], AL
0048108A: 00FF                     ADD BH, BH
0048108C: 0000                     ADD [EAX], AL
0048108E: 00FE                     ADD DH, BH
00481090: 0000                     ADD [EAX], AL
00481092: 00FF                     ADD BH, BH
00481094: 0000                     ADD [EAX], AL
00481096: 00FE                     ADD DH, BH
00481098: 0000                     ADD [EAX], AL
0048109A: 00FF                     ADD BH, BH
0048109C: 0000                     ADD [EAX], AL
0048109E: 00FE                     ADD DH, BH
004810A0: 0000                     ADD [EAX], AL
004810A2: 00FF                     ADD BH, BH
004810A4: 0000                     ADD [EAX], AL
004810A6: 00FE                     ADD DH, BH
004810A8: 0000                     ADD [EAX], AL
004810AA: 00FF                     ADD BH, BH
004810AC: 0000                     ADD [EAX], AL
004810AE: 00FE                     ADD DH, BH
004810B0: 0000                     ADD [EAX], AL
004810B2: 00FF                     ADD BH, BH
004810B4: 0000                     ADD [EAX], AL
004810B6: 00FE                     ADD DH, BH
004810B8: 0101                     ADD [ECX], EAX
004810BA: 01FD                     ADD EBP, EDI
004810BC: 3A3A                     CMP BH, [EDX]
004810BE: 3AF2                     CMP DH, DL
004810C0: E2E2                     LOOP 4810A4H
004810C2: E2EB                     LOOP 4810AFH
004810C4: DBDB                     FCMOVNU ST(0), ST(3)
004810C6: DBF4                     INVALID
004810C8: 5B                       POP EBX
004810C9: 5B                       POP EBX
004810CA: 5B                       POP EBX
004810CB: ED                       IN EAX, DX
004810CC: 0000                     ADD [EAX], AL
004810CE: 00FE                     ADD DH, BH
004810D0: 0000                     ADD [EAX], AL
004810D2: 00FF                     ADD BH, BH
004810D4: 0000                     ADD [EAX], AL
004810D6: 00FE                     ADD DH, BH
004810D8: 0000                     ADD [EAX], AL
004810DA: 00FF                     ADD BH, BH
004810DC: 0000                     ADD [EAX], AL
004810DE: 00FE                     ADD DH, BH
004810E0: 0000                     ADD [EAX], AL
004810E2: 00FF                     ADD BH, BH
004810E4: 0000                     ADD [EAX], AL
004810E6: 00FE                     ADD DH, BH
004810E8: 0000                     ADD [EAX], AL
004810EA: 00FF                     ADD BH, BH
004810EC: 0000                     ADD [EAX], AL
004810EE: 00FE                     ADD DH, BH
004810F0: 0000                     ADD [EAX], AL
004810F2: 00FF                     ADD BH, BH
004810F4: 0000                     ADD [EAX], AL
004810F6: 00FE                     ADD DH, BH
004810F8: 0000                     ADD [EAX], AL
004810FA: 00FF                     ADD BH, BH
004810FC: 0000                     ADD [EAX], AL
004810FE: 00FE                     ADD DH, BH
00481100: 0000                     ADD [EAX], AL
00481102: 00FF                     ADD BH, BH
00481104: 0E                       PUSH CS
00481105: 0E                       PUSH CS
00481106: 0E                       PUSH CS
00481107: F67F7F                   IDIV BYTE PTR [EDI+7FH]
0048110A: 7FF1                     JNLE 4810FDH
0048110C: FC                       CLD 
0048110D: FC                       CLD 
0048110E: FC                       CLD 
0048110F: B6AC                     MOV DH, ACH
00481111: AC                       LODSB 
00481112: AC                       LODSB 
00481113: 2F                       DAS 
00481114: 0000                     ADD [EAX], AL
00481116: 0000                     ADD [EAX], AL
00481118: 0000                     ADD [EAX], AL
0048111A: 0000                     ADD [EAX], AL
0048111C: 0000                     ADD [EAX], AL
0048111E: 0000                     ADD [EAX], AL
00481120: 0000                     ADD [EAX], AL
00481122: 0000                     ADD [EAX], AL
00481124: 0000                     ADD [EAX], AL
00481126: 0000                     ADD [EAX], AL
00481128: 0000                     ADD [EAX], AL
0048112A: 0000                     ADD [EAX], AL
0048112C: 0000                     ADD [EAX], AL
0048112E: 0000                     ADD [EAX], AL
00481130: 0000                     ADD [EAX], AL
00481132: 0000                     ADD [EAX], AL
00481134: 8282820DFDFDFD           AND BYTE PTR [EDX-0202F27EH], FFFFFFFDH
0048113B: 87C6                     XCHG EAX, ESI
0048113D: C6C6F1                   MOV DH, F1H
00481140: 2828                     SUB [EAX], CH
00481142: 28E7                     SUB BH, AH
00481144: 0000                     ADD [EAX], AL
00481146: 00FE                     ADD DH, BH
00481148: 0000                     ADD [EAX], AL
0048114A: 00FF                     ADD BH, BH
0048114C: 0000                     ADD [EAX], AL
0048114E: 00FF                     ADD BH, BH
00481150: 0000                     ADD [EAX], AL
00481152: 00FF                     ADD BH, BH
00481154: 0000                     ADD [EAX], AL
00481156: 00FF                     ADD BH, BH
00481158: 0000                     ADD [EAX], AL
0048115A: 00FF                     ADD BH, BH
0048115C: 0000                     ADD [EAX], AL
0048115E: 00FF                     ADD BH, BH
00481160: 0000                     ADD [EAX], AL
00481162: 00FF                     ADD BH, BH
00481164: 0000                     ADD [EAX], AL
00481166: 00FF                     ADD BH, BH
00481168: 0000                     ADD [EAX], AL
0048116A: 00FF                     ADD BH, BH
0048116C: 0000                     ADD [EAX], AL
0048116E: 00FF                     ADD BH, BH
00481170: 0000                     ADD [EAX], AL
00481172: 00FF                     ADD BH, BH
00481174: 0000                     ADD [EAX], AL
00481176: 00FF                     ADD BH, BH
00481178: 0000                     ADD [EAX], AL
0048117A: 00FD                     ADD CH, BH
0048117C: 2121                     AND [ECX], ESP
0048117E: 21F0                     AND EAX, ESI
00481180: AC                       LODSB 
00481181: AC                       LODSB 
00481182: AC                       LODSB 
00481183: E5EA                     IN EAX, EAH
00481185: EAEAF7757575EC           JMP FAR EC75:7575F7EAH
0048118C: 0101                     ADD [ECX], EAX
0048118E: 01F4                     ADD ESP, ESI
00481190: 0000                     ADD [EAX], AL
00481192: 00FF                     ADD BH, BH
00481194: 0000                     ADD [EAX], AL
00481196: 00FF                     ADD BH, BH
00481198: 0000                     ADD [EAX], AL
0048119A: 00FF                     ADD BH, BH
0048119C: 0000                     ADD [EAX], AL
0048119E: 00FF                     ADD BH, BH
004811A0: 0000                     ADD [EAX], AL
004811A2: 00FF                     ADD BH, BH
004811A4: 0000                     ADD [EAX], AL
004811A6: 00FF                     ADD BH, BH
004811A8: 0000                     ADD [EAX], AL
004811AA: 00FF                     ADD BH, BH
004811AC: 0000                     ADD [EAX], AL
004811AE: 00FF                     ADD BH, BH
004811B0: 0000                     ADD [EAX], AL
004811B2: 00FF                     ADD BH, BH
004811B4: 0000                     ADD [EAX], AL
004811B6: 00FF                     ADD BH, BH
004811B8: 0000                     ADD [EAX], AL
004811BA: 00FF                     ADD BH, BH
004811BC: 0000                     ADD [EAX], AL
004811BE: 00FF                     ADD BH, BH
004811C0: 0000                     ADD [EAX], AL
004811C2: 00FF                     ADD BH, BH
004811C4: 050505FB5E               ADD EAX, 5EFB0505H
004811C9: 5E                       POP ESI
004811CA: 5E                       POP ESI
004811CB: F0E5E5                   LOCK IN EAX, E5H
004811CE: E5C8                     IN EAX, C8H
004811D0: B3B3                     MOV BL, B3H
004811D2: B34D                     MOV BL, 4DH
004811D4: 0000                     ADD [EAX], AL
004811D6: 0000                     ADD [EAX], AL
004811D8: 0000                     ADD [EAX], AL
004811DA: 0000                     ADD [EAX], AL
004811DC: 0000                     ADD [EAX], AL
004811DE: 0000                     ADD [EAX], AL
004811E0: 0000                     ADD [EAX], AL
004811E2: 0000                     ADD [EAX], AL
004811E4: 0000                     ADD [EAX], AL
004811E6: 0000                     ADD [EAX], AL
004811E8: 0000                     ADD [EAX], AL
004811EA: 0000                     ADD [EAX], AL
004811EC: 0000                     ADD [EAX], AL
004811EE: 0000                     ADD [EAX], AL
004811F0: 0000                     ADD [EAX], AL
004811F2: 0000                     ADD [EAX], AL
004811F4: 7F7F                     JNLE 481175H
004811F6: 7F04                     JNLE 4811FCH
004811F8: F0F0F045                 LOCK INC EBP
004811FC: E3E3                     JECXZ 4811E1H
004811FE: E3E7                     JECXZ 4811E7H
00481200: 60                       PUSHAD 
00481201: 60                       PUSHAD 
00481202: 60                       PUSHAD 
00481203: EE                       OUT DX, AL
00481204: 0000                     ADD [EAX], AL
00481206: 00F9                     ADD CL, BH
00481208: 0000                     ADD [EAX], AL
0048120A: 00FF                     ADD BH, BH
0048120C: 0000                     ADD [EAX], AL
