0040CD20: E87BC1FFFF               CALL 00408EA0H
0040CD25: E8D6100000               CALL 0040DE00H
0040CD2A: E821FFFFFF               CALL 0040CC50H
0040CD2F: 33C0                     XOR EAX, EAX
0040CD31: C3                       RET 
0040CD32: CC                       INT 3 
0040CD33: CC                       INT 3 
0040CD34: CC                       INT 3 
0040CD35: CC                       INT 3 
0040CD36: CC                       INT 3 
0040CD37: CC                       INT 3 
0040CD38: CC                       INT 3 
0040CD39: CC                       INT 3 
0040CD3A: CC                       INT 3 
0040CD3B: CC                       INT 3 
0040CD3C: CC                       INT 3 
0040CD3D: CC                       INT 3 
0040CD3E: CC                       INT 3 
0040CD3F: CC                       INT 3 
0040CD40: 55                       PUSH EBP
0040CD41: 8BEC                     MOV EBP, ESP
0040CD43: 83E4E8                   AND ESP, FFFFFFE8H
0040CD46: 81ECB8050000             SUB ESP, 000005B8H
0040CD4C: 53                       PUSH EBX
0040CD4D: 56                       PUSH ESI
0040CD4E: 57                       PUSH EDI
0040CD4F: 68080A4100               PUSH 00410A08H
0040CD54: 6A00                     PUSH 00000000H
0040CD56: 6A00                     PUSH 00000000H
0040CD58: 6A00                     PUSH 00000000H
0040CD5A: FF1504F04000             CALL [0040F004H] ; CreateEventW
0040CD60: 8BF0                     MOV ESI, EAX
0040CD62: 83FEFF                   CMP ESI, FFFFFFFFH
0040CD65: 7427                     JZ 40CD8EH
0040CD67: 85F6                     TEST ESI, ESI
0040CD69: 7423                     JZ 40CD8EH
0040CD6B: 8B0DA4104100             MOV ECX, [004110A4H]
0040CD71: 330D6C224100             XOR ECX, [0041226CH]
0040CD77: FFD1                     CALL ECX
0040CD79: 3DB7000000               CMP EAX, 000000B7H
0040CD7E: A1A4104100               MOV EAX, [4110A4H]
0040CD83: 7531                     JNZ 40CDB6H
0040CD85: 3405                     XOR AL, 05H
0040CD87: E021                     LOOPNZ 40CDAAH
0040CD89: 41                       INC ECX
0040CD8A: 0056FF                   ADD [ESI-01H], DL
0040CD8D: D0A1A4104100             SHL BYTE PTR [ECX+004110A4H], 01H
0040CD93: 3405                     XOR AL, 05H
0040CD95: 202441                   AND [ECX+EAX*2], AH
0040CD98: 00FF                     ADD BH, BH
0040CD9A: D0A1A4104100             SHL BYTE PTR [ECX+004110A4H], 01H
0040CDA0: 330524244100             XOR EAX, [00412424H]
0040CDA6: 6A01                     PUSH 00000001H
0040CDA8: FFD0                     CALL EAX
0040CDAA: 5F                       POP EDI
0040CDAB: 5E                       POP ESI
0040CDAC: B801000000               MOV EAX, 00000001H
0040CDB1: 5B                       POP EBX
0040CDB2: 8BE5                     MOV ESP, EBP
0040CDB4: 5D                       POP EBP
0040CDB5: C3                       RET 
0040CDB6: 330520244100             XOR EAX, [00412420H]
0040CDBC: FFD0                     CALL EAX
0040CDBE: 6890010000               PUSH 00000190H
0040CDC3: 8D842434040000           LEA EAX, [ESP+00000434H]
0040CDCA: 6A00                     PUSH 00000000H
0040CDCC: 50                       PUSH EAX
0040CDCD: E81E110000               CALL 0040DEF0H
0040CDD2: 83C40C                   ADD ESP, 0000000CH
0040CDD5: 8D842430040000           LEA EAX, [ESP+00000430H]
0040CDDC: 50                       PUSH EAX
0040CDDD: A1A4104100               MOV EAX, [4110A4H]
0040CDE2: 330588244100             XOR EAX, [00412488H]
0040CDE8: 6802020000               PUSH 00000202H
0040CDED: FFD0                     CALL EAX
0040CDEF: A1A4104100               MOV EAX, [4110A4H]
0040CDF4: 330548244100             XOR EAX, [00412448H]
0040CDFA: 6805010000               PUSH 00000105H
0040CDFF: 68B8264100               PUSH 004126B8H
0040CE04: 6A00                     PUSH 00000000H
0040CE06: FFD0                     CALL EAX
0040CE08: 6884074100               PUSH 00410784H
0040CE0D: E86EB1FFFF               CALL 00407F80H
0040CE12: 83C404                   ADD ESP, 00000004H
0040CE15: 8BF0                     MOV ESI, EAX
0040CE17: A138234100               MOV EAX, [412338H]
0040CE1C: 3305A4104100             XOR EAX, [004110A4H]
0040CE22: 56                       PUSH ESI
0040CE23: FFD0                     CALL EAX
0040CE25: 8D3C00                   LEA EDI, [EAX+EAX]
0040CE28: 57                       PUSH EDI
0040CE29: 56                       PUSH ESI
0040CE2A: 68A0244100               PUSH 004124A0H
0040CE2F: E84C0F0000               CALL 0040DD80H
0040CE34: 33C0                     XOR EAX, EAX
0040CE36: 668987A0244100           MOV [EDI+004124A0H], AX
0040CE3D: 85F6                     TEST ESI, ESI
0040CE3F: 7409                     JZ 40CE4AH
0040CE41: 56                       PUSH ESI
0040CE42: E849B2FFFF               CALL 00408090H
0040CE47: 83C404                   ADD ESP, 00000004H
0040CE4A: A1A4104100               MOV EAX, [4110A4H]
0040CE4F: 3305FC214100             XOR EAX, [004121FCH]
0040CE55: 68A8244100               PUSH 004124A8H
0040CE5A: 6A00                     PUSH 00000000H
0040CE5C: 6A00                     PUSH 00000000H
0040CE5E: 6A00                     PUSH 00000000H
0040CE60: 6A00                     PUSH 00000000H
0040CE62: FFD0                     CALL EAX
0040CE64: E837E8FFFF               CALL 0040B6A0H
0040CE69: 680A020000               PUSH 0000020AH
0040CE6E: 8D442414                 LEA EAX, [ESP+14H]
0040CE72: 6A00                     PUSH 00000000H
0040CE74: 50                       PUSH EAX
0040CE75: E876100000               CALL 0040DEF0H
0040CE7A: 83C40C                   ADD ESP, 0000000CH
0040CE7D: 8D842420020000           LEA EAX, [ESP+00000220H]
0040CE84: 680A020000               PUSH 0000020AH
0040CE89: 6A00                     PUSH 00000000H
0040CE8B: 50                       PUSH EAX
0040CE8C: E85F100000               CALL 0040DEF0H
0040CE91: A138234100               MOV EAX, [412338H]
0040CE96: 83C40C                   ADD ESP, 0000000CH
0040CE99: 3305A4104100             XOR EAX, [004110A4H]
0040CE9F: 68B8264100               PUSH 004126B8H
0040CEA4: FFD0                     CALL EAX
0040CEA6: 8D3400                   LEA ESI, [EAX+EAX]
0040CEA9: 56                       PUSH ESI
0040CEAA: 68B8264100               PUSH 004126B8H
0040CEAF: 8D442418                 LEA EAX, [ESP+18H]
0040CEB3: 50                       PUSH EAX
0040CEB4: E8C70E0000               CALL 0040DD80H
0040CEB9: 33C0                     XOR EAX, EAX
0040CEBB: 6689443410               MOV [ESP+ESI+10H], AX
0040CEC0: A138234100               MOV EAX, [412338H]
0040CEC5: 3305A4104100             XOR EAX, [004110A4H]
0040CECB: 68B8264100               PUSH 004126B8H
0040CED0: FFD0                     CALL EAX
0040CED2: 8D3400                   LEA ESI, [EAX+EAX]
0040CED5: 56                       PUSH ESI
0040CED6: 68B8264100               PUSH 004126B8H
0040CEDB: 8D842428020000           LEA EAX, [ESP+00000228H]
0040CEE2: 50                       PUSH EAX
0040CEE3: E8980E0000               CALL 0040DD80H
0040CEE8: 33C0                     XOR EAX, EAX
0040CEEA: 8D4C2410                 LEA ECX, [ESP+10H]
0040CEEE: 6689843420020000         MOV [ESP+ESI+00000220H], AX
0040CEF6: 668B01                   MOV AX, [ECX]
0040CEF9: 83C102                   ADD ECX, 00000002H
0040CEFC: 6685C0                   TEST AX, AX
0040CEFF: 75F5                     JNZ 40CEF6H
0040CF01: 83E902                   SUB ECX, 00000002H
0040CF04: 8D442410                 LEA EAX, [ESP+10H]
0040CF08: 3BC8                     CMP ECX, EAX
0040CF0A: 7406                     JZ 40CF12H
0040CF0C: 6683395C                 CMP WORD PTR [ECX], 005CH
0040CF10: 75EF                     JNZ 40CF01H
0040CF12: 33C0                     XOR EAX, EAX
0040CF14: 6683395C                 CMP WORD PTR [ECX], 005CH
0040CF18: 0F45C8                   CMOVNZ ECX, EAX
0040CF1B: 85C9                     TEST ECX, ECX
0040CF1D: 7403                     JZ 40CF22H
0040CF1F: 668901                   MOV [ECX], AX
0040CF22: 68640A4100               PUSH 00410A64H
0040CF27: E854B0FFFF               CALL 00407F80H
0040CF2C: 83C404                   ADD ESP, 00000004H
0040CF2F: 8D4C2410                 LEA ECX, [ESP+10H]
0040CF33: 8BF0                     MOV ESI, EAX
0040CF35: A138234100               MOV EAX, [412338H]
0040CF3A: 3305A4104100             XOR EAX, [004110A4H]
0040CF40: 51                       PUSH ECX
0040CF41: FFD0                     CALL EAX
0040CF43: 8D5C2410                 LEA EBX, [ESP+10H]
0040CF47: 56                       PUSH ESI
0040CF48: 8D1C43                   LEA EBX, [EBX+EAX*2]
0040CF4B: A138234100               MOV EAX, [412338H]
0040CF50: 3305A4104100             XOR EAX, [004110A4H]
0040CF56: FFD0                     CALL EAX
0040CF58: 8D3C00                   LEA EDI, [EAX+EAX]
0040CF5B: 57                       PUSH EDI
0040CF5C: 56                       PUSH ESI
0040CF5D: 53                       PUSH EBX
0040CF5E: E81D0E0000               CALL 0040DD80H
0040CF63: 33C0                     XOR EAX, EAX
0040CF65: 6689041F                 MOV [EDI+EBX], AX
0040CF69: 85F6                     TEST ESI, ESI
0040CF6B: 7409                     JZ 40CF76H
0040CF6D: 56                       PUSH ESI
0040CF6E: E81DB1FFFF               CALL 00408090H
0040CF73: 83C404                   ADD ESP, 00000004H
0040CF76: 8D8C2420020000           LEA ECX, [ESP+00000220H]
0040CF7D: 0F1F                     INVALID
0040CF7F: 00668B                   ADD [ESI-75H], AH
0040CF82: 0183C1026685             ADD [EBX-7A99FD3FH], EAX
0040CF88: C075F50F                 INVALID
0040CF8C: 1F                       POP DS
0040CF8D: 44                       INC ESP
0040CF8E: 0000                     ADD [EAX], AL
0040CF90: 83E902                   SUB ECX, 00000002H
0040CF93: 8D842420020000           LEA EAX, [ESP+00000220H]
0040CF9A: 3BC8                     CMP ECX, EAX
0040CF9C: 7406                     JZ 40CFA4H
0040CF9E: 6683395C                 CMP WORD PTR [ECX], 005CH
0040CFA2: 75EC                     JNZ 40CF90H
0040CFA4: 33C0                     XOR EAX, EAX
0040CFA6: 6683395C                 CMP WORD PTR [ECX], 005CH
0040CFAA: 0F45C8                   CMOVNZ ECX, EAX
0040CFAD: 85C9                     TEST ECX, ECX
0040CFAF: 7403                     JZ 40CFB4H
0040CFB1: 668901                   MOV [ECX], AX
0040CFB4: 68880A4100               PUSH 00410A88H
0040CFB9: E8C2AFFFFF               CALL 00407F80H
0040CFBE: 83C404                   ADD ESP, 00000004H
0040CFC1: 8D8C2420020000           LEA ECX, [ESP+00000220H]
0040CFC8: 8BF0                     MOV ESI, EAX
0040CFCA: A138234100               MOV EAX, [412338H]
0040CFCF: 3305A4104100             XOR EAX, [004110A4H]
0040CFD5: 51                       PUSH ECX
0040CFD6: FFD0                     CALL EAX
0040CFD8: 8D9C2420020000           LEA EBX, [ESP+00000220H]
0040CFDF: 56                       PUSH ESI
0040CFE0: 8D1C43                   LEA EBX, [EBX+EAX*2]
0040CFE3: A138234100               MOV EAX, [412338H]
0040CFE8: 3305A4104100             XOR EAX, [004110A4H]
0040CFEE: FFD0                     CALL EAX
0040CFF0: 8D3C00                   LEA EDI, [EAX+EAX]
0040CFF3: 57                       PUSH EDI
0040CFF4: 56                       PUSH ESI
0040CFF5: 53                       PUSH EBX
0040CFF6: E8850D0000               CALL 0040DD80H
0040CFFB: 33C0                     XOR EAX, EAX
0040CFFD: 6689041F                 MOV [EDI+EBX], AX
0040D001: 85F6                     TEST ESI, ESI
0040D003: 7409                     JZ 40D00EH
0040D005: 56                       PUSH ESI
0040D006: E885B0FFFF               CALL 00408090H
0040D00B: 83C404                   ADD ESP, 00000004H
0040D00E: 8D4C2410                 LEA ECX, [ESP+10H]
0040D012: E8F9EEFFFF               CALL 0040BF10H
0040D017: 8B0DA4104100             MOV ECX, [004110A4H]
0040D01D: 330D24224100             XOR ECX, [00412224H]
0040D023: 8944240C                 MOV [ESP+0CH], EAX
0040D027: 8D442410                 LEA EAX, [ESP+10H]
0040D02B: 50                       PUSH EAX
0040D02C: FFD1                     CALL ECX
0040D02E: 6880194100               PUSH 00411980H
0040D033: E848AFFFFF               CALL 00407F80H
0040D038: 8BF0                     MOV ESI, EAX
0040D03A: 51                       PUSH ECX
0040D03B: 8BCE                     MOV ECX, ESI
0040D03D: E8AE7CFFFF               CALL 00404CF0H
0040D042: 83C408                   ADD ESP, 00000008H
0040D045: 85F6                     TEST ESI, ESI
0040D047: 7409                     JZ 40D052H
0040D049: 56                       PUSH ESI
0040D04A: E841B0FFFF               CALL 00408090H
0040D04F: 83C404                   ADD ESP, 00000004H
0040D052: 68A80A4100               PUSH 00410AA8H
0040D057: E824AFFFFF               CALL 00407F80H
0040D05C: 83C404                   ADD ESP, 00000004H
0040D05F: 8BF0                     MOV ESI, EAX
0040D061: 68FC074100               PUSH 004107FCH
0040D066: E815AFFFFF               CALL 00407F80H
0040D06B: 83C404                   ADD ESP, 00000004H
0040D06E: 8BF8                     MOV EDI, EAX
0040D070: 8BD6                     MOV EDX, ESI
0040D072: 8BCF                     MOV ECX, EDI
0040D074: E8B77DFFFF               CALL 00404E30H
0040D079: 85C0                     TEST EAX, EAX
0040D07B: 0F94C3                   SETZ BL
0040D07E: 85FF                     TEST EDI, EDI
0040D080: 7409                     JZ 40D08BH
0040D082: 57                       PUSH EDI
0040D083: E808B0FFFF               CALL 00408090H
0040D088: 83C404                   ADD ESP, 00000004H
0040D08B: 85F6                     TEST ESI, ESI
0040D08D: 7409                     JZ 40D098H
0040D08F: 56                       PUSH ESI
0040D090: E8FBAFFFFF               CALL 00408090H
0040D095: 83C404                   ADD ESP, 00000004H
0040D098: 84DB                     TEST BL, BL
0040D09A: 7414                     JZ 40D0B0H
0040D09C: A1A4104100               MOV EAX, [4110A4H]
0040D0A1: 3305C0224100             XOR EAX, [004122C0H]
0040D0A7: 6840771B00               PUSH 001B7740H
0040D0AC: FFD0                     CALL EAX
0040D0AE: EBA2                     JMP 40D052H
0040D0B0: 8B35A4104100             MOV ESI, [004110A4H]
0040D0B6: 8BC6                     MOV EAX, ESI
0040D0B8: 330558244100             XOR EAX, [00412458H]
0040D0BE: 3335E0214100             XOR ESI, [004121E0H]
0040D0C4: 6A00                     PUSH 00000000H
0040D0C6: 6A00                     PUSH 00000000H
0040D0C8: 6A00                     PUSH 00000000H
0040D0CA: 68D0CA4000               PUSH 0040CAD0H
0040D0CF: 6A00                     PUSH 00000000H
0040D0D1: 6A00                     PUSH 00000000H
0040D0D3: FFD0                     CALL EAX
0040D0D5: 50                       PUSH EAX
0040D0D6: FFD6                     CALL ESI
0040D0D8: A1A4104100               MOV EAX, [4110A4H]
0040D0DD: 8D8C2420020000           LEA ECX, [ESP+00000220H]
0040D0E4: 330518224100             XOR EAX, [00412218H]
0040D0EA: 51                       PUSH ECX
0040D0EB: FFD0                     CALL EAX
0040D0ED: 33DB                     XOR EBX, EBX
0040D0EF: 83F8FF                   CMP EAX, FFFFFFFFH
0040D0F2: 8D842420020000           LEA EAX, [ESP+00000220H]
0040D0F9: 50                       PUSH EAX
0040D0FA: A1A4104100               MOV EAX, [4110A4H]
0040D0FF: 0F95C3                   SETNZ BL
0040D102: 330524224100             XOR EAX, [00412224H]
0040D108: FFD0                     CALL EAX
0040D10A: 8B3D00F04000             MOV EDI, [0040F000H]
0040D110: 8B4C240C                 MOV ECX, [ESP+0CH]
0040D114: 8BD3                     MOV EDX, EBX
0040D116: E805E6FFFF               CALL 0040B720H
0040D11B: BE03000000               MOV ESI, 00000003H
0040D120: E8DBE3FFFF               CALL 0040B500H
0040D125: 68B80B0000               PUSH 00000BB8H
0040D12A: FFD7                     CALL EDI
0040D12C: 83EE01                   SUB ESI, 00000001H
0040D12F: 75EF                     JNZ 40D120H
0040D131: A1A4104100               MOV EAX, [4110A4H]
0040D136: 3305C0224100             XOR EAX, [004122C0H]
0040D13C: 68C0D40100               PUSH 0001D4C0H
0040D141: FFD0                     CALL EAX
0040D143: EBCB                     JMP 40D110H
0040D145: CC                       INT 3 
0040D146: CC                       INT 3 
0040D147: CC                       INT 3 
0040D148: CC                       INT 3 
0040D149: CC                       INT 3 
0040D14A: CC                       INT 3 
0040D14B: CC                       INT 3 
0040D14C: CC                       INT 3 
0040D14D: CC                       INT 3 
0040D14E: CC                       INT 3 
0040D14F: CC                       INT 3 
0040D150: 55                       PUSH EBP
0040D151: 8BEC                     MOV EBP, ESP
0040D153: 81EC94000000             SUB ESP, 00000094H
0040D159: A1A4104100               MOV EAX, [4110A4H]
0040D15E: 3305F0234100             XOR EAX, [004123F0H]
0040D164: 894DE4                   MOV [EBP-1CH], ECX
0040D167: 8D4DFC                   LEA ECX, [EBP-04H]
0040D16A: 51                       PUSH ECX
0040D16B: 6A00                     PUSH 00000000H
0040D16D: C745FC00000000           MOV [EBP-04H], 00000000H
0040D174: FFD0                     CALL EAX
0040D176: 83F86F                   CMP EAX, 0000006FH
0040D179: 7406                     JZ 40D181H
0040D17B: 33C0                     XOR EAX, EAX
0040D17D: 8BE5                     MOV ESP, EBP
0040D17F: 5D                       POP EBP
0040D180: C3                       RET 
0040D181: 53                       PUSH EBX
0040D182: FF75FC                   PUSH [EBP-04H]
0040D185: E8860B0000               CALL 0040DD10H
0040D18A: 8BD8                     MOV EBX, EAX
0040D18C: 83C404                   ADD ESP, 00000004H
0040D18F: 895DEC                   MOV [EBP-14H], EBX
0040D192: 85DB                     TEST EBX, EBX
0040D194: 7416                     JZ 40D1ACH
0040D196: A1A4104100               MOV EAX, [4110A4H]
0040D19B: 8D4DFC                   LEA ECX, [EBP-04H]
0040D19E: 3305F0234100             XOR EAX, [004123F0H]
0040D1A4: 51                       PUSH ECX
0040D1A5: 53                       PUSH EBX
0040D1A6: FFD0                     CALL EAX
0040D1A8: 85C0                     TEST EAX, EAX
0040D1AA: 7407                     JZ 40D1B3H
0040D1AC: 33C0                     XOR EAX, EAX
0040D1AE: 5B                       POP EBX
0040D1AF: 8BE5                     MOV ESP, EBP
0040D1B1: 5D                       POP EBP
0040D1B2: C3                       RET 
0040D1B3: 56                       PUSH ESI
0040D1B4: 57                       PUSH EDI
0040D1B5: 6A50                     PUSH 00000050H
0040D1B7: 8D4594                   LEA EAX, [EBP-6CH]
0040D1BA: 6A00                     PUSH 00000000H
0040D1BC: 50                       PUSH EAX
0040D1BD: E82E0D0000               CALL 0040DEF0H
0040D1C2: 8D4590                   LEA EAX, [EBP-70H]
0040D1C5: 83C40C                   ADD ESP, 0000000CH
0040D1C8: 894594                   MOV [EBP-6CH], EAX
0040D1CB: 894590                   MOV [EBP-70H], EAX
0040D1CE: 8D45A4                   LEA EAX, [EBP-5CH]
0040D1D1: 50                       PUSH EAX
0040D1D2: A1A4104100               MOV EAX, [4110A4H]
0040D1D7: 3305B4224100             XOR EAX, [004122B4H]
0040D1DD: FFD0                     CALL EAX
0040D1DF: 8D45CC                   LEA EAX, [EBP-34H]
0040D1E2: 50                       PUSH EAX
0040D1E3: A1A4104100               MOV EAX, [4110A4H]
0040D1E8: 3305B4224100             XOR EAX, [004122B4H]
0040D1EE: FFD0                     CALL EAX
0040D1F0: 8D856CFFFFFF             LEA EAX, [EBP-00000094H]
0040D1F6: C7458C00000000           MOV [EBP-74H], 00000000H
0040D1FD: 50                       PUSH EAX
0040D1FE: A1A4104100               MOV EAX, [4110A4H]
0040D203: 0F57C0                   XORPS XMM0, XMM0
0040D206: 330554224100             XOR EAX, [00412254H]
0040D20C: 0F11856CFFFFFF           MOVUPS [EBP-00000094H], XMM0
0040D213: 0F11857CFFFFFF           MOVUPS [EBP-00000084H], XMM0
0040D21A: FFD0                     CALL EAX
0040D21C: A1A4104100               MOV EAX, [4110A4H]
0040D221: 3305B4234100             XOR EAX, [004123B4H]
0040D227: 6A00                     PUSH 00000000H
0040D229: 6A00                     PUSH 00000000H
0040D22B: 6A01                     PUSH 00000001H
0040D22D: 6A00                     PUSH 00000000H
0040D22F: FFD0                     CALL EAX
0040D231: 8B0DA4104100             MOV ECX, [004110A4H]
0040D237: 330DA8234100             XOR ECX, [004123A8H]
0040D23D: 6A00                     PUSH 00000000H
0040D23F: 8945A0                   MOV [EBP-60H], EAX
0040D242: 8B4580                   MOV EAX, [EBP-80H]
0040D245: 50                       PUSH EAX
0040D246: 50                       PUSH EAX
0040D247: 6A00                     PUSH 00000000H
0040D249: FFD1                     CALL ECX
0040D24B: 6A00                     PUSH 00000000H
0040D24D: FF7580                   PUSH [EBP-80H]
0040D250: 894598                   MOV [EBP-68H], EAX
0040D253: A1A4104100               MOV EAX, [4110A4H]
0040D258: 3305A8234100             XOR EAX, [004123A8H]
0040D25E: 6A00                     PUSH 00000000H
0040D260: 6A00                     PUSH 00000000H
0040D262: FFD0                     CALL EAX
0040D264: 89459C                   MOV [EBP-64H], EAX
0040D267: 8B4580                   MOV EAX, [EBP-80H]
0040D26A: C1E002                   SHL EAX, 02H
0040D26D: 6A03                     PUSH 00000003H
0040D26F: 50                       PUSH EAX
0040D270: E8BB0A0000               CALL 0040DD30H
0040D275: 33F6                     XOR ESI, ESI
0040D277: 83C408                   ADD ESP, 00000008H
0040D27A: 8BF8                     MOV EDI, EAX
0040D27C: 897DE8                   MOV [EBP-18H], EDI
0040D27F: 397580                   CMP [EBP-80H], ESI
0040D282: 7634                     JBE 40D2B8H
0040D284: 0F1F                     INVALID
0040D286: 40                       INC EAX
0040D287: 000F                     ADD [EDI], CL
0040D289: 1F                       POP DS
0040D28A: 8400                     TEST AL, [EAX]
0040D28C: 0000                     ADD [EAX], AL
0040D28E: 0000                     ADD [EAX], AL
0040D290: 8B0DA4104100             MOV ECX, [004110A4H]
0040D296: 8D4590                   LEA EAX, [EBP-70H]
0040D299: 330D58244100             XOR ECX, [00412458H]
0040D29F: 6A00                     PUSH 00000000H
0040D2A1: 6A00                     PUSH 00000000H
0040D2A3: 50                       PUSH EAX
0040D2A4: 6850D54000               PUSH 0040D550H
0040D2A9: 6A00                     PUSH 00000000H
0040D2AB: 6A00                     PUSH 00000000H
0040D2AD: FFD1                     CALL ECX
0040D2AF: 8904B7                   MOV [EDI+ESI*4], EAX
0040D2B2: 46                       INC ESI
0040D2B3: 3B7580                   CMP ESI, [EBP-80H]
0040D2B6: 72D8                     JB 40D290H
0040D2B8: 8BC3                     MOV EAX, EBX
0040D2BA: 895DF4                   MOV [EBP-0CH], EBX
0040D2BD: 0F1F                     INVALID
0040D2BF: 0083B8A00100             ADD [EBX+0001A0B8H], AL
0040D2C5: 0018                     ADD [EAX], BL
0040D2C7: 0F841F010000             JZ 0040D3ECH
0040D2CD: 8DB8AC010000             LEA EDI, [EAX+000001ACH]
0040D2D3: 897DF8                   MOV [EBP-08H], EDI
0040D2D6: 85FF                     TEST EDI, EDI
0040D2D8: 0F840E010000             JZ 0040D3ECH
0040D2DE: 6690                     NOP 
0040D2E0: 8B35A4104100             MOV ESI, [004110A4H]
0040D2E6: 8D4714                   LEA EAX, [EDI+14H]
0040D2E9: 8BCE                     MOV ECX, ESI
0040D2EB: 333534244100             XOR ESI, [00412434H]
0040D2F1: 330D68234100             XOR ECX, [00412368H]
0040D2F7: 50                       PUSH EAX
0040D2F8: FFD1                     CALL ECX
0040D2FA: 50                       PUSH EAX
0040D2FB: FFD6                     CALL ESI
0040D2FD: 8B35A4104100             MOV ESI, [004110A4H]
0040D303: 8D4F04                   LEA ECX, [EDI+04H]
0040D306: 8BD6                     MOV EDX, ESI
0040D308: 8BD8                     MOV EBX, EAX
0040D30A: 331568234100             XOR EDX, [00412368H]
0040D310: 333534244100             XOR ESI, [00412434H]
0040D316: 51                       PUSH ECX
0040D317: FFD2                     CALL EDX
0040D319: 50                       PUSH EAX
0040D31A: FFD6                     CALL ESI
0040D31C: 8BF0                     MOV ESI, EAX
0040D31E: 23F3                     AND ESI, EBX
0040D320: F7D3                     NOT EBX
0040D322: 8BC6                     MOV EAX, ESI
0040D324: 0BDE                     OR EBX, ESI
0040D326: 250000FEA9               AND EAX, A9FE0000H
0040D32B: 895DF0                   MOV [EBP-10H], EBX
0040D32E: 3D0000FEA9               CMP EAX, A9FE0000H
0040D333: 0F84A3000000             JZ 0040D3DCH
0040D339: 85F6                     TEST ESI, ESI
0040D33B: 0F849B000000             JZ 0040D3DCH
0040D341: 46                       INC ESI
0040D342: 3BF3                     CMP ESI, EBX
0040D344: 0F8392000000             JNB 0040D3DCH
0040D34A: 660F1F                   INVALID
0040D34D: 44                       INC ESP
0040D34E: 0000                     ADD [EAX], AL
0040D350: 8BC3                     MOV EAX, EBX
0040D352: BF40000000               MOV EDI, 00000040H
0040D357: 2BC6                     SUB EAX, ESI
0040D359: 3BC7                     CMP EAX, EDI
0040D35B: 6A03                     PUSH 00000003H
0040D35D: 6A54                     PUSH 00000054H
0040D35F: 0F42F8                   CMOVB EDI, EAX
0040D362: E8C9090000               CALL 0040DD30H
0040D367: 83C408                   ADD ESP, 00000008H
0040D36A: 8BD8                     MOV EBX, EAX
0040D36C: 89732C                   MOV [EBX+2CH], ESI
0040D36F: 897B30                   MOV [EBX+30H], EDI
0040D372: 8B0D30244100             MOV ECX, [00412430H]
0040D378: 330DA4104100             XOR ECX, [004110A4H]
0040D37E: 6AFF                     PUSH FFFFFFFFH
0040D380: FF7598                   PUSH [EBP-68H]
0040D383: FFD1                     CALL ECX
0040D385: 8D45A4                   LEA EAX, [EBP-5CH]
0040D388: 50                       PUSH EAX
0040D389: A1A4104100               MOV EAX, [4110A4H]
0040D38E: 3305A8224100             XOR EAX, [004122A8H]
0040D394: FFD0                     CALL EAX
0040D396: 8B4594                   MOV EAX, [EBP-6CH]
0040D399: 8D4D90                   LEA ECX, [EBP-70H]
0040D39C: 894304                   MOV [EBX+04H], EAX
0040D39F: 890B                     MOV [EBX], ECX
0040D3A1: 8918                     MOV [EAX], EBX
0040D3A3: 8D45A4                   LEA EAX, [EBP-5CH]
0040D3A6: 50                       PUSH EAX
0040D3A7: A1A4104100               MOV EAX, [4110A4H]
0040D3AC: 3305AC224100             XOR EAX, [004122ACH]
0040D3B2: 895D94                   MOV [EBP-6CH], EBX
0040D3B5: FFD0                     CALL EAX
0040D3B7: A110244100               MOV EAX, [412410H]
0040D3BC: 3305A4104100             XOR EAX, [004110A4H]
0040D3C2: 6A00                     PUSH 00000000H
0040D3C4: 6A01                     PUSH 00000001H
0040D3C6: FF759C                   PUSH [EBP-64H]
0040D3C9: FFD0                     CALL EAX
0040D3CB: 8B5DF0                   MOV EBX, [EBP-10H]
0040D3CE: 83C640                   ADD ESI, 00000040H
0040D3D1: 3BF3                     CMP ESI, EBX
0040D3D3: 0F8277FFFFFF             JB 0040D350H
0040D3D9: 8B7DF8                   MOV EDI, [EBP-08H]
0040D3DC: 8B3F                     MOV EDI, [EDI]
0040D3DE: 897DF8                   MOV [EBP-08H], EDI
0040D3E1: 85FF                     TEST EDI, EDI
0040D3E3: 0F85F7FEFFFF             JNZ 0040D2E0H
0040D3E9: 8B45F4                   MOV EAX, [EBP-0CH]
0040D3EC: 8B00                     MOV EAX, [EAX]
0040D3EE: 8945F4                   MOV [EBP-0CH], EAX
0040D3F1: 85C0                     TEST EAX, EAX
0040D3F3: 0F85C7FEFFFF             JNZ 0040D2C0H
0040D3F9: FF75EC                   PUSH [EBP-14H]
0040D3FC: E8DF090000               CALL 0040DDE0H
0040D401: 83C404                   ADD ESP, 00000004H
0040D404: 8D45A4                   LEA EAX, [EBP-5CH]
0040D407: 50                       PUSH EAX
0040D408: A1A4104100               MOV EAX, [4110A4H]
0040D40D: 3305A8224100             XOR EAX, [004122A8H]
0040D413: FFD0                     CALL EAX
0040D415: 8D4590                   LEA EAX, [EBP-70H]
0040D418: 33DB                     XOR EBX, EBX
0040D41A: 394590                   CMP [EBP-70H], EAX
0040D41D: 8D45A4                   LEA EAX, [EBP-5CH]
0040D420: 50                       PUSH EAX
0040D421: A1A4104100               MOV EAX, [4110A4H]
0040D426: 0F94C3                   SETZ BL
0040D429: 3305AC224100             XOR EAX, [004122ACH]
0040D42F: FFD0                     CALL EAX
0040D431: 85DB                     TEST EBX, EBX
0040D433: 754B                     JNZ 40D480H
0040D435: 6666660F1F               INVALID
0040D43A: 8400                     TEST AL, [EAX]
0040D43C: 0000                     ADD [EAX], AL
0040D43E: 0000                     ADD [EAX], AL
0040D440: A1A4104100               MOV EAX, [4110A4H]
0040D445: 3305C0224100             XOR EAX, [004122C0H]
0040D44B: 6A01                     PUSH 00000001H
0040D44D: FFD0                     CALL EAX
0040D44F: 8D45A4                   LEA EAX, [EBP-5CH]
0040D452: 50                       PUSH EAX
0040D453: A1A4104100               MOV EAX, [4110A4H]
0040D458: 3305A8224100             XOR EAX, [004122A8H]
0040D45E: FFD0                     CALL EAX
0040D460: 8D4590                   LEA EAX, [EBP-70H]
0040D463: 33DB                     XOR EBX, EBX
0040D465: 394590                   CMP [EBP-70H], EAX
0040D468: 8D45A4                   LEA EAX, [EBP-5CH]
0040D46B: 50                       PUSH EAX
0040D46C: A1A4104100               MOV EAX, [4110A4H]
0040D471: 0F94C3                   SETZ BL
0040D474: 3305AC224100             XOR EAX, [004122ACH]
0040D47A: FFD0                     CALL EAX
0040D47C: 85DB                     TEST EBX, EBX
0040D47E: 74C0                     JZ 40D440H
0040D480: A1A4104100               MOV EAX, [4110A4H]
0040D485: FF75A0                   PUSH [EBP-60H]
0040D488: 3305E8234100             XOR EAX, [004123E8H]
0040D48E: FFD0                     CALL EAX
0040D490: 8B5DE8                   MOV EBX, [EBP-18H]
0040D493: A1A4104100               MOV EAX, [4110A4H]
0040D498: 330514244100             XOR EAX, [00412414H]
0040D49E: 6AFF                     PUSH FFFFFFFFH
0040D4A0: 6A01                     PUSH 00000001H
0040D4A2: 53                       PUSH EBX
0040D4A3: FF7580                   PUSH [EBP-80H]
0040D4A6: FFD0                     CALL EAX
0040D4A8: A1A4104100               MOV EAX, [4110A4H]
0040D4AD: FF75A0                   PUSH [EBP-60H]
0040D4B0: 3305E0214100             XOR EAX, [004121E0H]
0040D4B6: FFD0                     CALL EAX
0040D4B8: A1A4104100               MOV EAX, [4110A4H]
0040D4BD: FF7598                   PUSH [EBP-68H]
0040D4C0: 3305E0214100             XOR EAX, [004121E0H]
0040D4C6: FFD0                     CALL EAX
0040D4C8: 8D45A4                   LEA EAX, [EBP-5CH]
0040D4CB: 50                       PUSH EAX
0040D4CC: A1A4104100               MOV EAX, [4110A4H]
0040D4D1: 3305B0224100             XOR EAX, [004122B0H]
0040D4D7: FFD0                     CALL EAX
0040D4D9: 8D45CC                   LEA EAX, [EBP-34H]
0040D4DC: 50                       PUSH EAX
0040D4DD: A1A4104100               MOV EAX, [4110A4H]
0040D4E2: 3305B0224100             XOR EAX, [004122B0H]
0040D4E8: FFD0                     CALL EAX
0040D4EA: 33F6                     XOR ESI, ESI
0040D4EC: 397580                   CMP [EBP-80H], ESI
0040D4EF: 7616                     JBE 40D507H
0040D4F1: A1A4104100               MOV EAX, [4110A4H]
0040D4F6: FF34B3                   PUSH [EBX+ESI*4]
0040D4F9: 3305E0214100             XOR EAX, [004121E0H]
0040D4FF: FFD0                     CALL EAX
0040D501: 46                       INC ESI
0040D502: 3B7580                   CMP ESI, [EBP-80H]
0040D505: 72EA                     JB 40D4F1H
0040D507: 5F                       POP EDI
0040D508: 5E                       POP ESI
0040D509: 85DB                     TEST EBX, EBX
0040D50B: 7409                     JZ 40D516H
0040D50D: 53                       PUSH EBX
0040D50E: E8CD080000               CALL 0040DDE0H
0040D513: 83C404                   ADD ESP, 00000004H
0040D516: 8B5DE4                   MOV EBX, [EBP-1CH]
0040D519: 8B0B                     MOV ECX, [EBX]
0040D51B: 85C9                     TEST ECX, ECX
0040D51D: 7418                     JZ 40D537H
0040D51F: 8D4304                   LEA EAX, [EBX+04H]
0040D522: 50                       PUSH EAX
0040D523: 6A04                     PUSH 00000004H
0040D525: 68BC0A4100               PUSH 00410ABCH
0040D52A: FF30                     PUSH [EAX]
0040D52C: 51                       PUSH ECX
0040D52D: E86E070000               CALL 0040DCA0H
0040D532: 83C414                   ADD ESP, 00000014H
0040D535: 8903                     MOV [EBX], EAX
0040D537: 6A08                     PUSH 00000008H
0040D539: 8D45C4                   LEA EAX, [EBP-3CH]
0040D53C: 50                       PUSH EAX
0040D53D: 53                       PUSH EBX
0040D53E: E83D080000               CALL 0040DD80H
0040D543: 33C0                     XOR EAX, EAX
0040D545: 3903                     CMP [EBX], EAX
0040D547: 5B                       POP EBX
0040D548: 0F95C0                   SETNZ AL
0040D54B: 8BE5                     MOV ESP, EBP
0040D54D: 5D                       POP EBP
0040D54E: C3                       RET 
0040D54F: CC                       INT 3 
0040D550: 55                       PUSH EBP
0040D551: 8BEC                     MOV EBP, ESP
0040D553: 83EC08                   SUB ESP, 00000008H
0040D556: 57                       PUSH EDI
0040D557: 8B7D08                   MOV EDI, [EBP+08H]
0040D55A: 8D4DF8                   LEA ECX, [EBP-08H]
0040D55D: 6AFF                     PUSH FFFFFFFFH
0040D55F: 6A00                     PUSH 00000000H
0040D561: C745FC00000000           MOV [EBP-04H], 00000000H
0040D568: 8B4710                   MOV EAX, [EDI+10H]
0040D56B: 8945F8                   MOV [EBP-08H], EAX
0040D56E: 8B470C                   MOV EAX, [EDI+0CH]
0040D571: 8945FC                   MOV [EBP-04H], EAX
0040D574: A1A4104100               MOV EAX, [4110A4H]
0040D579: 330514244100             XOR EAX, [00412414H]
0040D57F: 51                       PUSH ECX
0040D580: 6A02                     PUSH 00000002H
0040D582: FFD0                     CALL EAX
0040D584: 83F801                   CMP EAX, 00000001H
0040D587: 0F859C000000             JNZ 0040D629H
0040D58D: 53                       PUSH EBX
0040D58E: 56                       PUSH ESI
0040D58F: 8D5F14                   LEA EBX, [EDI+14H]
0040D592: A1A4104100               MOV EAX, [4110A4H]
0040D597: 3305A8224100             XOR EAX, [004122A8H]
0040D59D: 53                       PUSH EBX
0040D59E: FFD0                     CALL EAX
0040D5A0: 8B07                     MOV EAX, [EDI]
0040D5A2: 33C9                     XOR ECX, ECX
0040D5A4: 3BC7                     CMP EAX, EDI
0040D5A6: 8BF0                     MOV ESI, EAX
0040D5A8: 53                       PUSH EBX
0040D5A9: 0F44F1                   CMOVZ ESI, ECX
0040D5AC: 8B08                     MOV ECX, [EAX]
0040D5AE: 8B4004                   MOV EAX, [EAX+04H]
0040D5B1: 8908                     MOV [EAX], ECX
0040D5B3: 894104                   MOV [ECX+04H], EAX
0040D5B6: A1A4104100               MOV EAX, [4110A4H]
0040D5BB: 3305AC224100             XOR EAX, [004122ACH]
0040D5C1: FFD0                     CALL EAX
0040D5C3: A1A4104100               MOV EAX, [4110A4H]
0040D5C8: 330510244100             XOR EAX, [00412410H]
0040D5CE: 6A00                     PUSH 00000000H
0040D5D0: 6A01                     PUSH 00000001H
0040D5D2: FF7708                   PUSH [EDI+08H]
0040D5D5: FFD0                     CALL EAX
0040D5D7: 85F6                     TEST ESI, ESI
0040D5D9: 742C                     JZ 40D607H
0040D5DB: A1A4104100               MOV EAX, [4110A4H]
0040D5E0: FF762C                   PUSH [ESI+2CH]
0040D5E3: 330534244100             XOR EAX, [00412434H]
0040D5E9: FFD0                     CALL EAX
0040D5EB: 8B5630                   MOV EDX, [ESI+30H]
0040D5EE: 8D473C                   LEA EAX, [EDI+3CH]
0040D5F1: 8B4E2C                   MOV ECX, [ESI+2CH]
0040D5F4: 50                       PUSH EAX
0040D5F5: 8D4734                   LEA EAX, [EDI+34H]
0040D5F8: 50                       PUSH EAX
0040D5F9: E842000000               CALL 0040D640H
0040D5FE: 56                       PUSH ESI
0040D5FF: E8DC070000               CALL 0040DDE0H
0040D604: 83C40C                   ADD ESP, 0000000CH
0040D607: A1A4104100               MOV EAX, [4110A4H]
0040D60C: 8D4DF8                   LEA ECX, [EBP-08H]
0040D60F: 330514244100             XOR EAX, [00412414H]
0040D615: 6AFF                     PUSH FFFFFFFFH
0040D617: 6A00                     PUSH 00000000H
0040D619: 51                       PUSH ECX
0040D61A: 6A02                     PUSH 00000002H
0040D61C: FFD0                     CALL EAX
0040D61E: 83F801                   CMP EAX, 00000001H
0040D621: 0F846BFFFFFF             JZ 0040D592H
0040D627: 5E                       POP ESI
0040D628: 5B                       POP EBX
0040D629: B801000000               MOV EAX, 00000001H
0040D62E: 5F                       POP EDI
0040D62F: 8BE5                     MOV ESP, EBP
0040D631: 5D                       POP EBP
0040D632: C20400                   RETN 0004H
0040D635: CC                       INT 3 
0040D636: CC                       INT 3 
0040D637: CC                       INT 3 
0040D638: CC                       INT 3 
0040D639: CC                       INT 3 
0040D63A: CC                       INT 3 
0040D63B: CC                       INT 3 
0040D63C: CC                       INT 3 
0040D63D: CC                       INT 3 
0040D63E: CC                       INT 3 
0040D63F: CC                       INT 3 
0040D640: 55                       PUSH EBP
0040D641: 8BEC                     MOV EBP, ESP
0040D643: 83E4F8                   AND ESP, FFFFFFF8H
0040D646: 81EC84040000             SUB ESP, 00000484H
0040D64C: 53                       PUSH EBX
0040D64D: 56                       PUSH ESI
0040D64E: 57                       PUSH EDI
0040D64F: 33C0                     XOR EAX, EAX
0040D651: 894C242C                 MOV [ESP+2CH], ECX
0040D655: 6800010000               PUSH 00000100H
0040D65A: 89442414                 MOV [ESP+14H], EAX
0040D65E: 33DB                     XOR EBX, EBX
0040D660: 8D842484010000           LEA EAX, [ESP+00000184H]
0040D667: 8BF2                     MOV ESI, EDX
0040D669: 53                       PUSH EBX
0040D66A: 50                       PUSH EAX
0040D66B: 89742420                 MOV [ESP+20H], ESI
0040D66F: E87C080000               CALL 0040DEF0H
0040D674: 83C40C                   ADD ESP, 0000000CH
0040D677: 85F6                     TEST ESI, ESI
0040D679: 0F8487000000             JZ 0040D706H
0040D67F: 8B7C2414                 MOV EDI, [ESP+14H]
0040D683: 8DB42480010000           LEA ESI, [ESP+00000180H]
0040D68A: 660F1F                   INVALID
0040D68D: 44                       INC ESP
0040D68E: 0000                     ADD [EAX], AL
0040D690: A1A4104100               MOV EAX, [4110A4H]
0040D695: 3305D4234100             XOR EAX, [004123D4H]
0040D69B: 6A00                     PUSH 00000000H
0040D69D: 6A01                     PUSH 00000001H
0040D69F: 6A02                     PUSH 00000002H
0040D6A1: FFD0                     CALL EAX
0040D6A3: 8906                     MOV [ESI], EAX
0040D6A5: 83F8FF                   CMP EAX, FFFFFFFFH
0040D6A8: 752F                     JNZ 40D6D9H
0040D6AA: 660F1F                   INVALID
0040D6AD: 44                       INC ESP
0040D6AE: 0000                     ADD [EAX], AL
0040D6B0: A1A4104100               MOV EAX, [4110A4H]
0040D6B5: 3305C0224100             XOR EAX, [004122C0H]
0040D6BB: 6A01                     PUSH 00000001H
0040D6BD: FFD0                     CALL EAX
0040D6BF: A1A4104100               MOV EAX, [4110A4H]
0040D6C4: 3305D4234100             XOR EAX, [004123D4H]
0040D6CA: 6A00                     PUSH 00000000H
0040D6CC: 6A01                     PUSH 00000001H
0040D6CE: 6A02                     PUSH 00000002H
0040D6D0: FFD0                     CALL EAX
0040D6D2: 83F8FF                   CMP EAX, FFFFFFFFH
0040D6D5: 74D9                     JZ 40D6B0H
0040D6D7: 8906                     MOV [ESI], EAX
0040D6D9: 8D442418                 LEA EAX, [ESP+18H]
0040D6DD: C744241801000000         MOV [ESP+18H], 00000001H
0040D6E5: 50                       PUSH EAX
0040D6E6: A1A4104100               MOV EAX, [4110A4H]
0040D6EB: 33052C244100             XOR EAX, [0041242CH]
0040D6F1: 687E660480               PUSH 8004667EH
0040D6F6: FF36                     PUSH [ESI]
0040D6F8: FFD0                     CALL EAX
0040D6FA: 83C604                   ADD ESI, 00000004H
0040D6FD: 83EF01                   SUB EDI, 00000001H
0040D700: 758E                     JNZ 40D690H
0040D702: 8B742414                 MOV ESI, [ESP+14H]
0040D706: 6804010000               PUSH 00000104H
0040D70B: 8D44247C                 LEA EAX, [ESP+7CH]
0040D70F: 6A00                     PUSH 00000000H
0040D711: 50                       PUSH EAX
0040D712: E8D9070000               CALL 0040DEF0H
0040D717: 6804010000               PUSH 00000104H
0040D71C: 8D842490020000           LEA EAX, [ESP+00000290H]
0040D723: 6A00                     PUSH 00000000H
0040D725: 50                       PUSH EAX
0040D726: E8C5070000               CALL 0040DEF0H
0040D72B: 6804010000               PUSH 00000104H
0040D730: 8D8424A4030000           LEA EAX, [ESP+000003A4H]
0040D737: 6A00                     PUSH 00000000H
0040D739: 50                       PUSH EAX
0040D73A: E8B1070000               CALL 0040DEF0H
0040D73F: 83C424                   ADD ESP, 00000024H
0040D742: 33FF                     XOR EDI, EDI
0040D744: 85F6                     TEST ESI, ESI
0040D746: 0F847E010000             JZ 0040D8CAH
0040D74C: 0F1F                     INVALID
0040D74E: 40                       INC EAX
0040D74F: 008B44242C0F             ADD [EBX+0F2C2444H], CL
0040D755: 57                       PUSH EDI
0040D756: C08B0DA4104100           ROR BYTE PTR [EBX+4110A40DH], 00H
0040D75D: 03C7                     ADD EAX, EDI
0040D75F: 330D34244100             XOR ECX, [00412434H]
0040D765: 660FD6                   INVALID
0040D768: 44                       INC ESP
0040D769: 241E                     AND AL, 1EH
0040D76B: 50                       PUSH EAX
0040D76C: C744242A00000000         MOV [ESP+2AH], 00000000H
0040D774: 66C744242E0000           MOV WORD PTR [ESP+2EH], 0000H
0040D77B: C74424200200008B         MOV [ESP+20H], 8B000002H
0040D783: FFD1                     CALL ECX
0040D785: 8BB4BC80010000           MOV ESI, [ESP+EDI*4+00000180H]
0040D78C: 8D4C241C                 LEA ECX, [ESP+1CH]
0040D790: 6A10                     PUSH 00000010H
0040D792: 89442424                 MOV [ESP+24H], EAX
0040D796: A1A4104100               MOV EAX, [4110A4H]
0040D79B: 33050C244100             XOR EAX, [0041240CH]
0040D7A1: 51                       PUSH ECX
0040D7A2: 56                       PUSH ESI
0040D7A3: FFD0                     CALL EAX
0040D7A5: 85C0                     TEST EAX, EAX
0040D7A7: 0F85B3000000             JNZ 0040D860H
0040D7AD: 6A40                     PUSH 00000040H
0040D7AF: 50                       PUSH EAX
0040D7B0: 8D442440                 LEA EAX, [ESP+40H]
0040D7B4: 50                       PUSH EAX
0040D7B5: E836070000               CALL 0040DEF0H
0040D7BA: 0FB644242F               MOVZX EAX, BYTE PTR [ESP+2FH]
0040D7BF: 50                       PUSH EAX
0040D7C0: 0FB6442432               MOVZX EAX, BYTE PTR [ESP+32H]
0040D7C5: 50                       PUSH EAX
0040D7C6: 0FB6442435               MOVZX EAX, BYTE PTR [ESP+35H]
0040D7CB: 50                       PUSH EAX
0040D7CC: 0FB6442438               MOVZX EAX, BYTE PTR [ESP+38H]
0040D7D1: 50                       PUSH EAX
0040D7D2: 68C80A4100               PUSH 00410AC8H
0040D7D7: 8D442458                 LEA EAX, [ESP+58H]
0040D7DB: 6A20                     PUSH 00000020H
0040D7DD: 50                       PUSH EAX
0040D7DE: E89DBAFFFF               CALL 00409280H
0040D7E3: A1A4104100               MOV EAX, [4110A4H]
0040D7E8: 83C428                   ADD ESP, 00000028H
0040D7EB: 3305A8224100             XOR EAX, [004122A8H]
0040D7F1: FF750C                   PUSH [EBP+0CH]
0040D7F4: FFD0                     CALL EAX
0040D7F6: A138234100               MOV EAX, [412338H]
0040D7FB: 8D4C2438                 LEA ECX, [ESP+38H]
0040D7FF: 3305A4104100             XOR EAX, [004110A4H]
0040D805: 51                       PUSH ECX
0040D806: FFD0                     CALL EAX
0040D808: 8B5508                   MOV EDX, [EBP+08H]
0040D80B: 8D4A04                   LEA ECX, [EDX+04H]
0040D80E: 51                       PUSH ECX
0040D80F: 8D044502000000           LEA EAX, [EAX*2+00000002H]
0040D816: 50                       PUSH EAX
0040D817: 8D442440                 LEA EAX, [ESP+40H]
0040D81B: 50                       PUSH EAX
0040D81C: FF31                     PUSH [ECX]
0040D81E: FF32                     PUSH [EDX]
0040D820: E87B040000               CALL 0040DCA0H
0040D825: 8B4D08                   MOV ECX, [EBP+08H]
0040D828: 83C414                   ADD ESP, 00000014H
0040D82B: FF750C                   PUSH [EBP+0CH]
0040D82E: 8901                     MOV [ECX], EAX
0040D830: A1A4104100               MOV EAX, [4110A4H]
0040D835: 3305AC224100             XOR EAX, [004122ACH]
0040D83B: FFD0                     CALL EAX
0040D83D: A1A4104100               MOV EAX, [4110A4H]
0040D842: 3305E4234100             XOR EAX, [004123E4H]
0040D848: 56                       PUSH ESI
0040D849: FFD0                     CALL EAX
0040D84B: C784BC80010000FFFFFFFF   MOV [ESP+EDI*4+00000180H], FFFFFFFFH
0040D856: C744241001000000         MOV [ESP+10H], 00000001H
0040D85E: EB5D                     JMP 40D8BDH
0040D860: 83F8FF                   CMP EAX, FFFFFFFFH
0040D863: 752F                     JNZ 40D894H
0040D865: A1A4104100               MOV EAX, [4110A4H]
0040D86A: 330568244100             XOR EAX, [00412468H]
0040D870: FFD0                     CALL EAX
0040D872: 3D33270000               CMP EAX, 00002733H
0040D877: 741B                     JZ 40D894H
0040D879: A1A4104100               MOV EAX, [4110A4H]
0040D87E: 3305E4234100             XOR EAX, [004123E4H]
0040D884: 56                       PUSH ESI
0040D885: FFD0                     CALL EAX
0040D887: C784BC80010000FFFFFFFF   MOV [ESP+EDI*4+00000180H], FFFFFFFFH
0040D892: EB29                     JMP 40D8BDH
0040D894: 8B4C2478                 MOV ECX, [ESP+78H]
0040D898: 33C0                     XOR EAX, EAX
0040D89A: 85C9                     TEST ECX, ECX
0040D89C: 740D                     JZ 40D8ABH
0040D89E: 6690                     NOP 
0040D8A0: 3974847C                 CMP [ESP+EAX*4+7CH], ESI
0040D8A4: 7405                     JZ 40D8ABH
0040D8A6: 40                       INC EAX
0040D8A7: 3BC1                     CMP EAX, ECX
0040D8A9: 72F5                     JB 40D8A0H
0040D8AB: 3BC1                     CMP EAX, ECX
0040D8AD: 750D                     JNZ 40D8BCH
0040D8AF: 83F940                   CMP ECX, 00000040H
0040D8B2: 7308                     JNB 40D8BCH
0040D8B4: 8974847C                 MOV [ESP+EAX*4+7CH], ESI
0040D8B8: FF442478                 INC [ESP+78H]
0040D8BC: 43                       INC EBX
0040D8BD: 8B742414                 MOV ESI, [ESP+14H]
0040D8C1: 47                       INC EDI
0040D8C2: 3BFE                     CMP EDI, ESI
0040D8C4: 0F8286FEFFFF             JB 0040D750H
0040D8CA: A1A4104100               MOV EAX, [4110A4H]
0040D8CF: 330500244100             XOR EAX, [00412400H]
0040D8D5: 6A00                     PUSH 00000000H
0040D8D7: 6A01                     PUSH 00000001H
0040D8D9: 6A00                     PUSH 00000000H
0040D8DB: FFD0                     CALL EAX
0040D8DD: 6A00                     PUSH 00000000H
0040D8DF: 6A00                     PUSH 00000000H
0040D8E1: 6A00                     PUSH 00000000H
0040D8E3: 6A00                     PUSH 00000000H
0040D8E5: 8D4C2440                 LEA ECX, [ESP+40H]
0040D8E9: 89442428                 MOV [ESP+28H], EAX
0040D8ED: 51                       PUSH ECX
0040D8EE: 50                       PUSH EAX
0040D8EF: A1A4104100               MOV EAX, [4110A4H]
0040D8F4: 3305B0234100             XOR EAX, [004123B0H]
0040D8FA: C7442448005D1EEE         MOV [ESP+48H], EE1E5D00H
0040D902: C744244CFFFFFFFF         MOV [ESP+4CH], FFFFFFFFH
0040D90A: FFD0                     CALL EAX
0040D90C: 8B7C2418                 MOV EDI, [ESP+18H]
0040D910: 6A0A                     PUSH 0000000AH
0040D912: FF1500F04000             CALL [0040F000H] ; Sleep
0040D918: 6804010000               PUSH 00000104H
0040D91D: 8D44247C                 LEA EAX, [ESP+7CH]
0040D921: C744242400000000         MOV [ESP+24H], 00000000H
0040D929: 50                       PUSH EAX
0040D92A: 8D842488020000           LEA EAX, [ESP+00000288H]
0040D931: C744242400000000         MOV [ESP+24H], 00000000H
0040D939: 50                       PUSH EAX
0040D93A: C744242C00000000         MOV [ESP+2CH], 00000000H
0040D942: E839040000               CALL 0040DD80H
0040D947: 6804010000               PUSH 00000104H
0040D94C: 8D44247C                 LEA EAX, [ESP+7CH]
0040D950: 50                       PUSH EAX
0040D951: 8D842490030000           LEA EAX, [ESP+00000390H]
0040D958: 50                       PUSH EAX
0040D959: E822040000               CALL 0040DD80H
0040D95E: A1A4104100               MOV EAX, [4110A4H]
0040D963: 8D4C241C                 LEA ECX, [ESP+1CH]
0040D967: 3305B8234100             XOR EAX, [004123B8H]
0040D96D: 51                       PUSH ECX
0040D96E: 8D8C248C030000           LEA ECX, [ESP+0000038CH]
0040D975: 51                       PUSH ECX
0040D976: 8D8C2488020000           LEA ECX, [ESP+00000288H]
0040D97D: 51                       PUSH ECX
0040D97E: 6A00                     PUSH 00000000H
0040D980: 6A00                     PUSH 00000000H
0040D982: FFD0                     CALL EAX
0040D984: 85C0                     TEST EAX, EAX
0040D986: 0F8E85010000             JLE 0040DB11H
0040D98C: 33FF                     XOR EDI, EDI
0040D98E: C744247800000000         MOV [ESP+78H], 00000000H
0040D996: 85F6                     TEST ESI, ESI
0040D998: 0F846F010000             JZ 0040DB0DH
0040D99E: 6690                     NOP 
0040D9A0: 8BB4BC80010000           MOV ESI, [ESP+EDI*4+00000180H]
0040D9A7: 83FEFF                   CMP ESI, FFFFFFFFH
0040D9AA: 0F8450010000             JZ 0040DB00H
0040D9B0: A1A4104100               MOV EAX, [4110A4H]
0040D9B5: 8D8C2480020000           LEA ECX, [ESP+00000280H]
0040D9BC: 3305BC234100             XOR EAX, [004123BCH]
0040D9C2: 51                       PUSH ECX
0040D9C3: 56                       PUSH ESI
0040D9C4: FFD0                     CALL EAX
0040D9C6: 85C0                     TEST EAX, EAX
0040D9C8: 0F84D6000000             JZ 0040DAA4H
0040D9CE: 8B44242C                 MOV EAX, [ESP+2CH]
0040D9D2: 8B0DA4104100             MOV ECX, [004110A4H]
0040D9D8: 03C7                     ADD EAX, EDI
0040D9DA: 330D34244100             XOR ECX, [00412434H]
0040D9E0: 50                       PUSH EAX
0040D9E1: FFD1                     CALL ECX
0040D9E3: 6A40                     PUSH 00000040H
0040D9E5: 89442414                 MOV [ESP+14H], EAX
0040D9E9: 8D44243C                 LEA EAX, [ESP+3CH]
0040D9ED: 6A00                     PUSH 00000000H
0040D9EF: 50                       PUSH EAX
0040D9F0: E8FB040000               CALL 0040DEF0H
0040D9F5: 8B44241C                 MOV EAX, [ESP+1CH]
0040D9F9: 8BC8                     MOV ECX, EAX
0040D9FB: C1E918                   SHR ECX, 18H
0040D9FE: 51                       PUSH ECX
0040D9FF: 8BC8                     MOV ECX, EAX
0040DA01: C1E910                   SHR ECX, 10H
0040DA04: 0FB6C9                   MOVZX ECX, CL
0040DA07: 51                       PUSH ECX
0040DA08: 8BC8                     MOV ECX, EAX
0040DA0A: 0FB6C0                   MOVZX EAX, AL
0040DA0D: C1E908                   SHR ECX, 08H
0040DA10: 0FB6C9                   MOVZX ECX, CL
0040DA13: 51                       PUSH ECX
0040DA14: 50                       PUSH EAX
0040DA15: 68C80A4100               PUSH 00410AC8H
0040DA1A: 8D442458                 LEA EAX, [ESP+58H]
0040DA1E: 6A20                     PUSH 00000020H
0040DA20: 50                       PUSH EAX
0040DA21: E85AB8FFFF               CALL 00409280H
0040DA26: A1A4104100               MOV EAX, [4110A4H]
0040DA2B: 83C428                   ADD ESP, 00000028H
0040DA2E: 3305A8224100             XOR EAX, [004122A8H]
0040DA34: FF750C                   PUSH [EBP+0CH]
0040DA37: FFD0                     CALL EAX
0040DA39: A138234100               MOV EAX, [412338H]
0040DA3E: 8D4C2438                 LEA ECX, [ESP+38H]
0040DA42: 3305A4104100             XOR EAX, [004110A4H]
0040DA48: 51                       PUSH ECX
0040DA49: FFD0                     CALL EAX
0040DA4B: 8B5508                   MOV EDX, [EBP+08H]
0040DA4E: 8D4A04                   LEA ECX, [EDX+04H]
0040DA51: 51                       PUSH ECX
0040DA52: 8D044502000000           LEA EAX, [EAX*2+00000002H]
0040DA59: 50                       PUSH EAX
0040DA5A: 8D442440                 LEA EAX, [ESP+40H]
0040DA5E: 50                       PUSH EAX
0040DA5F: FF31                     PUSH [ECX]
0040DA61: FF32                     PUSH [EDX]
0040DA63: E838020000               CALL 0040DCA0H
0040DA68: 8B4D08                   MOV ECX, [EBP+08H]
0040DA6B: 83C414                   ADD ESP, 00000014H
0040DA6E: FF750C                   PUSH [EBP+0CH]
0040DA71: 8901                     MOV [ECX], EAX
0040DA73: A1A4104100               MOV EAX, [4110A4H]
0040DA78: 3305AC224100             XOR EAX, [004122ACH]
0040DA7E: FFD0                     CALL EAX
0040DA80: A1A4104100               MOV EAX, [4110A4H]
0040DA85: 3305E4234100             XOR EAX, [004123E4H]
0040DA8B: 56                       PUSH ESI
0040DA8C: FFD0                     CALL EAX
0040DA8E: C784BC80010000FFFFFFFF   MOV [ESP+EDI*4+00000180H], FFFFFFFFH
0040DA99: 4B                       DEC EBX
0040DA9A: C744241001000000         MOV [ESP+10H], 00000001H
0040DAA2: EB5C                     JMP 40DB00H
0040DAA4: A1A4104100               MOV EAX, [4110A4H]
0040DAA9: 8D8C2488030000           LEA ECX, [ESP+00000388H]
0040DAB0: 3305BC234100             XOR EAX, [004123BCH]
0040DAB6: 51                       PUSH ECX
0040DAB7: 56                       PUSH ESI
0040DAB8: FFD0                     CALL EAX
0040DABA: 85C0                     TEST EAX, EAX
0040DABC: 741C                     JZ 40DADAH
0040DABE: A1A4104100               MOV EAX, [4110A4H]
0040DAC3: 3305E4234100             XOR EAX, [004123E4H]
0040DAC9: 56                       PUSH ESI
0040DACA: FFD0                     CALL EAX
0040DACC: C784BC80010000FFFFFFFF   MOV [ESP+EDI*4+00000180H], FFFFFFFFH
0040DAD7: 4B                       DEC EBX
0040DAD8: EB26                     JMP 40DB00H
0040DADA: 8B4C2478                 MOV ECX, [ESP+78H]
0040DADE: 33C0                     XOR EAX, EAX
0040DAE0: 85C9                     TEST ECX, ECX
0040DAE2: 740B                     JZ 40DAEFH
0040DAE4: 3974847C                 CMP [ESP+EAX*4+7CH], ESI
0040DAE8: 7405                     JZ 40DAEFH
0040DAEA: 40                       INC EAX
0040DAEB: 3BC1                     CMP EAX, ECX
0040DAED: 72F5                     JB 40DAE4H
0040DAEF: 3BC1                     CMP EAX, ECX
0040DAF1: 750D                     JNZ 40DB00H
0040DAF3: 83F940                   CMP ECX, 00000040H
0040DAF6: 7308                     JNB 40DB00H
0040DAF8: 8974847C                 MOV [ESP+EAX*4+7CH], ESI
0040DAFC: FF442478                 INC [ESP+78H]
0040DB00: 8B742414                 MOV ESI, [ESP+14H]
0040DB04: 47                       INC EDI
0040DB05: 3BFE                     CMP EDI, ESI
0040DB07: 0F8293FEFFFF             JB 0040D9A0H
0040DB0D: 8B7C2418                 MOV EDI, [ESP+18H]
0040DB11: A1A4104100               MOV EAX, [4110A4H]
0040DB16: 330530244100             XOR EAX, [00412430H]
0040DB1C: 6A00                     PUSH 00000000H
0040DB1E: 57                       PUSH EDI
0040DB1F: FFD0                     CALL EAX
0040DB21: 85C0                     TEST EAX, EAX
0040DB23: 7408                     JZ 40DB2DH
0040DB25: 85DB                     TEST EBX, EBX
0040DB27: 0F85E3FDFFFF             JNZ 0040D910H
0040DB2D: A1A4104100               MOV EAX, [4110A4H]
0040DB32: 3305E0214100             XOR EAX, [004121E0H]
0040DB38: 57                       PUSH EDI
0040DB39: FFD0                     CALL EAX
0040DB3B: 8B7C2414                 MOV EDI, [ESP+14H]
0040DB3F: 33F6                     XOR ESI, ESI
0040DB41: 85FF                     TEST EDI, EDI
0040DB43: 7430                     JZ 40DB75H
0040DB45: 85DB                     TEST EBX, EBX
0040DB47: 742C                     JZ 40DB75H
0040DB49: 8B84B480010000           MOV EAX, [ESP+ESI*4+00000180H]
0040DB50: 83F8FF                   CMP EAX, FFFFFFFFH
0040DB53: 741B                     JZ 40DB70H
0040DB55: 8B0DA4104100             MOV ECX, [004110A4H]
0040DB5B: 330DE4234100             XOR ECX, [004123E4H]
0040DB61: 50                       PUSH EAX
0040DB62: FFD1                     CALL ECX
0040DB64: C784B480010000FFFFFFFF   MOV [ESP+ESI*4+00000180H], FFFFFFFFH
0040DB6F: 4B                       DEC EBX
0040DB70: 46                       INC ESI
0040DB71: 3BF7                     CMP ESI, EDI
0040DB73: 72D0                     JB 40DB45H
0040DB75: 8B442410                 MOV EAX, [ESP+10H]
0040DB79: 5F                       POP EDI
0040DB7A: 5E                       POP ESI
0040DB7B: 5B                       POP EBX
0040DB7C: 8BE5                     MOV ESP, EBP
0040DB7E: 5D                       POP EBP
0040DB7F: C3                       RET 
0040DB80: 53                       PUSH EBX
0040DB81: 8B44240C                 MOV EAX, [ESP+0CH]
0040DB85: 8B4C2410                 MOV ECX, [ESP+10H]
0040DB89: F7E1                     MUL ECX
0040DB8B: 8BD8                     MOV EBX, EAX
0040DB8D: 8B442408                 MOV EAX, [ESP+08H]
0040DB91: F7642414                 MUL [ESP+14H]
0040DB95: 03D8                     ADD EBX, EAX
0040DB97: 8B442408                 MOV EAX, [ESP+08H]
0040DB9B: F7E1                     MUL ECX
0040DB9D: 03D3                     ADD EDX, EBX
0040DB9F: 5B                       POP EBX
0040DBA0: C21000                   RETN 0010H
0040DBA3: CC                       INT 3 
0040DBA4: CC                       INT 3 
0040DBA5: CC                       INT 3 
0040DBA6: CC                       INT 3 
0040DBA7: CC                       INT 3 
0040DBA8: CC                       INT 3 
0040DBA9: CC                       INT 3 
0040DBAA: CC                       INT 3 
0040DBAB: CC                       INT 3 
0040DBAC: CC                       INT 3 
0040DBAD: CC                       INT 3 
0040DBAE: CC                       INT 3 
0040DBAF: CC                       INT 3 
0040DBB0: 53                       PUSH EBX
0040DBB1: 56                       PUSH ESI
0040DBB2: 8B442418                 MOV EAX, [ESP+18H]
0040DBB6: 0BC0                     OR EAX, EAX
0040DBB8: 7518                     JNZ 40DBD2H
0040DBBA: 8B4C2414                 MOV ECX, [ESP+14H]
0040DBBE: 8B442410                 MOV EAX, [ESP+10H]
0040DBC2: 33D2                     XOR EDX, EDX
0040DBC4: F7F1                     DIV ECX
0040DBC6: 8BD8                     MOV EBX, EAX
0040DBC8: 8B44240C                 MOV EAX, [ESP+0CH]
0040DBCC: F7F1                     DIV ECX
0040DBCE: 8BD3                     MOV EDX, EBX
0040DBD0: EB41                     JMP 40DC13H
0040DBD2: 8BC8                     MOV ECX, EAX
0040DBD4: 8B5C2414                 MOV EBX, [ESP+14H]
0040DBD8: 8B542410                 MOV EDX, [ESP+10H]
0040DBDC: 8B44240C                 MOV EAX, [ESP+0CH]
0040DBE0: D1E9                     SHR ECX, 01H
0040DBE2: D1DB                     RCR EBX, 01H
0040DBE4: D1EA                     SHR EDX, 01H
0040DBE6: D1D8                     RCR EAX, 01H
0040DBE8: 0BC9                     OR ECX, ECX
0040DBEA: 75F4                     JNZ 40DBE0H
0040DBEC: F7F3                     DIV EBX
0040DBEE: 8BF0                     MOV ESI, EAX
0040DBF0: F7642418                 MUL [ESP+18H]
0040DBF4: 8BC8                     MOV ECX, EAX
0040DBF6: 8B442414                 MOV EAX, [ESP+14H]
0040DBFA: F7E6                     MUL ESI
0040DBFC: 03D1                     ADD EDX, ECX
0040DBFE: 720E                     JB 40DC0EH
0040DC00: 3B542410                 CMP EDX, [ESP+10H]
0040DC04: 7708                     JNBE 40DC0EH
0040DC06: 7207                     JB 40DC0FH
0040DC08: 3B44240C                 CMP EAX, [ESP+0CH]
0040DC0C: 7601                     JBE 40DC0FH
0040DC0E: 4E                       DEC ESI
0040DC0F: 33D2                     XOR EDX, EDX
0040DC11: 8BC6                     MOV EAX, ESI
0040DC13: 5E                       POP ESI
0040DC14: 5B                       POP EBX
0040DC15: C21000                   RETN 0010H
0040DC18: CC                       INT 3 
0040DC19: CC                       INT 3 
0040DC1A: CC                       INT 3 
0040DC1B: CC                       INT 3 
0040DC1C: CC                       INT 3 
0040DC1D: CC                       INT 3 
0040DC1E: CC                       INT 3 
0040DC1F: CC                       INT 3 
0040DC20: 55                       PUSH EBP
0040DC21: 8BEC                     MOV EBP, ESP
0040DC23: A1981B4100               MOV EAX, [411B98H]
0040DC28: 85C0                     TEST EAX, EAX
0040DC2A: 7565                     JNZ 40DC91H
0040DC2C: 56                       PUSH ESI
0040DC2D: 57                       PUSH EDI
0040DC2E: 6810F04000               PUSH 0040F010H
0040DC33: E848A3FFFF               CALL 00407F80H
0040DC38: 83C404                   ADD ESP, 00000004H
0040DC3B: 8BF0                     MOV ESI, EAX
0040DC3D: A1A4104100               MOV EAX, [4110A4H]
0040DC42: 330528244100             XOR EAX, [00412428H]
0040DC48: 56                       PUSH ESI
0040DC49: FFD0                     CALL EAX
0040DC4B: 8BF8                     MOV EDI, EAX
0040DC4D: 85F6                     TEST ESI, ESI
0040DC4F: 7409                     JZ 40DC5AH
0040DC51: 56                       PUSH ESI
0040DC52: E839A4FFFF               CALL 00408090H
0040DC57: 83C404                   ADD ESP, 00000004H
0040DC5A: 682CF04000               PUSH 0040F02CH
0040DC5F: E81CA3FFFF               CALL 00407F80H
0040DC64: 83C404                   ADD ESP, 00000004H
0040DC67: 8BF0                     MOV ESI, EAX
0040DC69: A1A4104100               MOV EAX, [4110A4H]
0040DC6E: 3305C4224100             XOR EAX, [004122C4H]
0040DC74: 56                       PUSH ESI
0040DC75: 57                       PUSH EDI
0040DC76: FFD0                     CALL EAX
0040DC78: A3981B4100               MOV [411B98H], EAX
0040DC7D: 85F6                     TEST ESI, ESI
0040DC7F: 740E                     JZ 40DC8FH
0040DC81: 56                       PUSH ESI
0040DC82: E809A4FFFF               CALL 00408090H
0040DC87: A1981B4100               MOV EAX, [411B98H]
0040DC8C: 83C404                   ADD ESP, 00000004H
0040DC8F: 5F                       POP EDI
0040DC90: 5E                       POP ESI
0040DC91: 5D                       POP EBP
0040DC92: FFE0                     JMP EAX
0040DC94: CC                       INT 3 
0040DC95: CC                       INT 3 
0040DC96: CC                       INT 3 
0040DC97: CC                       INT 3 
0040DC98: CC                       INT 3 
0040DC99: CC                       INT 3 
0040DC9A: CC                       INT 3 
0040DC9B: CC                       INT 3 
0040DC9C: CC                       INT 3 
0040DC9D: CC                       INT 3 
0040DC9E: CC                       INT 3 
0040DC9F: CC                       INT 3 
0040DCA0: 55                       PUSH EBP
0040DCA1: 8BEC                     MOV EBP, ESP
0040DCA3: 83EC08                   SUB ESP, 00000008H
0040DCA6: 837D1000                 CMP [EBP+10H], 00000000H
0040DCAA: 57                       PUSH EDI
0040DCAB: 744C                     JZ 40DCF9H
0040DCAD: 8B7D14                   MOV EDI, [EBP+14H]
0040DCB0: 85FF                     TEST EDI, EDI
0040DCB2: 7445                     JZ 40DCF9H
0040DCB4: 56                       PUSH ESI
0040DCB5: 8B750C                   MOV ESI, [EBP+0CH]
0040DCB8: 6A01                     PUSH 00000001H
0040DCBA: 8D043E                   LEA EAX, [ESI+EDI]
0040DCBD: 8945FC                   MOV [EBP-04H], EAX
0040DCC0: 83C032                   ADD EAX, 00000032H
0040DCC3: 50                       PUSH EAX
0040DCC4: FF7508                   PUSH [EBP+08H]
0040DCC7: E874010000               CALL 0040DE40H
0040DCCC: 83C40C                   ADD ESP, 0000000CH
0040DCCF: 8945F8                   MOV [EBP-08H], EAX
0040DCD2: 03F0                     ADD ESI, EAX
0040DCD4: 57                       PUSH EDI
0040DCD5: FF7510                   PUSH [EBP+10H]
0040DCD8: 56                       PUSH ESI
0040DCD9: E8A2000000               CALL 0040DD80H
0040DCDE: 8B4D18                   MOV ECX, [EBP+18H]
0040DCE1: 66C7043E0000             MOV WORD PTR [ESI+EDI], 0000H
0040DCE7: 5E                       POP ESI
0040DCE8: 85C9                     TEST ECX, ECX
0040DCEA: 7405                     JZ 40DCF1H
0040DCEC: 8B45FC                   MOV EAX, [EBP-04H]
0040DCEF: 8901                     MOV [ECX], EAX
0040DCF1: 8B45F8                   MOV EAX, [EBP-08H]
0040DCF4: 5F                       POP EDI
0040DCF5: 8BE5                     MOV ESP, EBP
0040DCF7: 5D                       POP EBP
0040DCF8: C3                       RET 
0040DCF9: 8B4508                   MOV EAX, [EBP+08H]
0040DCFC: 5F                       POP EDI
0040DCFD: 8BE5                     MOV ESP, EBP
0040DCFF: 5D                       POP EBP
0040DD00: C3                       RET 
0040DD01: CC                       INT 3 
0040DD02: CC                       INT 3 
0040DD03: CC                       INT 3 
0040DD04: CC                       INT 3 
0040DD05: CC                       INT 3 
0040DD06: CC                       INT 3 
0040DD07: CC                       INT 3 
0040DD08: CC                       INT 3 
0040DD09: CC                       INT 3 
0040DD0A: CC                       INT 3 
0040DD0B: CC                       INT 3 
0040DD0C: CC                       INT 3 
0040DD0D: CC                       INT 3 
0040DD0E: CC                       INT 3 
0040DD0F: CC                       INT 3 
0040DD10: 55                       PUSH EBP
0040DD11: 8BEC                     MOV EBP, ESP
0040DD13: FF7508                   PUSH [EBP+08H]
0040DD16: A1A4104100               MOV EAX, [4110A4H]
0040DD1B: 330540224100             XOR EAX, [00412240H]