00485F40: 55                       PUSH EBP
00485F41: 8BEC                     MOV EBP, ESP
00485F43: E858FDFFFF               CALL 00485CA0H
00485F48: 5D                       POP EBP
00485F49: C3                       RET 
00485F4A: CC                       INT 3 
00485F4B: CC                       INT 3 
00485F4C: CC                       INT 3 
00485F4D: CC                       INT 3 
00485F4E: CC                       INT 3 
00485F4F: CC                       INT 3 
00485F50: 55                       PUSH EBP
00485F51: 8BEC                     MOV EBP, ESP
00485F53: 81EC2C030000             SUB ESP, 0000032CH
00485F59: 6A17                     PUSH 00000017H
00485F5B: E8C8660500               CALL 004DC628H
00485F60: 85C0                     TEST EAX, EAX
00485F62: 7405                     JZ 485F69H
00485F64: 8B4D08                   MOV ECX, [EBP+08H]
00485F67: CD29                     INT 29H
00485F69: 6A03                     PUSH 00000003H
00485F6B: E820020000               CALL 00486190H
00485F70: 83C404                   ADD ESP, 00000004H
00485F73: 68CC020000               PUSH 000002CCH
00485F78: 6A00                     PUSH 00000000H
00485F7A: 8D85D4FCFFFF             LEA EAX, [EBP-0000032CH]
00485F80: 50                       PUSH EAX
00485F81: E81A620000               CALL 0048C1A0H
00485F86: 83C40C                   ADD ESP, 0000000CH
00485F89: 898584FDFFFF             MOV [EBP-0000027CH], EAX
00485F8F: 898D80FDFFFF             MOV [EBP-00000280H], ECX
00485F95: 89957CFDFFFF             MOV [EBP-00000284H], EDX
00485F9B: 899D78FDFFFF             MOV [EBP-00000288H], EBX
00485FA1: 89B574FDFFFF             MOV [EBP-0000028CH], ESI
00485FA7: 89BD70FDFFFF             MOV [EBP-00000290H], EDI
00485FAD: 668C959CFDFFFF           MOV [EBP-00000264H], SS
00485FB4: 668C8D90FDFFFF           MOV [EBP-00000270H], CS
00485FBB: 668C9D6CFDFFFF           MOV [EBP-00000294H], DS
00485FC2: 668C8568FDFFFF           MOV [EBP-00000298H], ES
00485FC9: 668CA564FDFFFF           MOV [EBP-0000029CH], FS
00485FD0: 668CAD60FDFFFF           MOV [EBP-000002A0H], GS
00485FD7: 9C                       PUSHFD 
00485FD8: 8F8594FDFFFF             POP [EBP-0000026CH]
00485FDE: C785D4FCFFFF01000100     MOV [EBP-0000032CH], 00010001H
00485FE8: 8B4D04                   MOV ECX, [EBP+04H]
00485FEB: 898D8CFDFFFF             MOV [EBP-00000274H], ECX
00485FF1: 8D5504                   LEA EDX, [EBP+04H]
00485FF4: 899598FDFFFF             MOV [EBP-00000268H], EDX
00485FFA: 8D4504                   LEA EAX, [EBP+04H]
00485FFD: 8B48FC                   MOV ECX, [EAX-04H]
00486000: 898D88FDFFFF             MOV [EBP-00000278H], ECX
00486006: 6A50                     PUSH 00000050H
00486008: 6A00                     PUSH 00000000H
0048600A: 8D55A0                   LEA EDX, [EBP-60H]
0048600D: 52                       PUSH EDX
0048600E: E88D610000               CALL 0048C1A0H
00486013: 83C40C                   ADD ESP, 0000000CH
00486016: C745A015000040           MOV [EBP-60H], 40000015H
0048601D: C745A401000000           MOV [EBP-5CH], 00000001H
00486024: 8B4504                   MOV EAX, [EBP+04H]
00486027: 8945AC                   MOV [EBP-54H], EAX
0048602A: FF1560124E00             CALL [004E1260H] ; IsDebuggerPresent
00486030: 83F801                   CMP EAX, 00000001H
00486033: 7506                     JNZ 48603BH
00486035: C645FF01                 MOV BYTE PTR [EBP-01H], 01H
00486039: EB04                     JMP 48603FH
0048603B: C645FF00                 MOV BYTE PTR [EBP-01H], 00H
0048603F: 8A4DFF                   MOV CL, [EBP-01H]
00486042: 884DFE                   MOV [EBP-02H], CL
00486045: 8D55A0                   LEA EDX, [EBP-60H]
00486048: 8955F0                   MOV [EBP-10H], EDX
0048604B: 8D85D4FCFFFF             LEA EAX, [EBP-0000032CH]
00486051: 8945F4                   MOV [EBP-0CH], EAX
00486054: 6A00                     PUSH 00000000H
00486056: FF1550124E00             CALL [004E1250H] ; SetUnhandledExceptionFilter
0048605C: 8D4DF0                   LEA ECX, [EBP-10H]
0048605F: 51                       PUSH ECX
00486060: FF154C124E00             CALL [004E124CH] ; UnhandledExceptionFilter
00486066: 8945F8                   MOV [EBP-08H], EAX
00486069: 837DF800                 CMP [EBP-08H], 00000000H
0048606D: 7512                     JNZ 486081H
0048606F: 0FB655FE                 MOVZX EDX, BYTE PTR [EBP-02H]
00486073: 85D2                     TEST EDX, EDX
00486075: 750A                     JNZ 486081H
00486077: 6A03                     PUSH 00000003H
00486079: E812010000               CALL 00486190H
0048607E: 83C404                   ADD ESP, 00000004H
00486081: 8BE5                     MOV ESP, EBP
00486083: 5D                       POP EBP
00486084: C3                       RET 
00486085: CC                       INT 3 
00486086: CC                       INT 3 
00486087: CC                       INT 3 
00486088: CC                       INT 3 
00486089: CC                       INT 3 
0048608A: CC                       INT 3 
0048608B: CC                       INT 3 
0048608C: CC                       INT 3 
0048608D: CC                       INT 3 
0048608E: CC                       INT 3 
0048608F: CC                       INT 3 
00486090: 55                       PUSH EBP
00486091: 8BEC                     MOV EBP, ESP
00486093: 83EC08                   SUB ESP, 00000008H
00486096: 6A00                     PUSH 00000000H
00486098: FF1544124E00             CALL [004E1244H] ; GetModuleHandleW
0048609E: 8945FC                   MOV [EBP-04H], EAX
004860A1: 837DFC00                 CMP [EBP-04H], 00000000H
004860A5: 7504                     JNZ 4860ABH
004860A7: 32C0                     XOR AL, AL
004860A9: EB64                     JMP 48610FH
004860AB: 8B45FC                   MOV EAX, [EBP-04H]
004860AE: 0FB708                   MOVZX ECX, WORD PTR [EAX]
004860B1: 81F94D5A0000             CMP ECX, 00005A4DH
004860B7: 7404                     JZ 4860BDH
004860B9: 32C0                     XOR AL, AL
004860BB: EB52                     JMP 48610FH
004860BD: 8B55FC                   MOV EDX, [EBP-04H]
004860C0: 8B45FC                   MOV EAX, [EBP-04H]
004860C3: 03423C                   ADD EAX, [EDX+3CH]
004860C6: 8945F8                   MOV [EBP-08H], EAX
004860C9: 8B4DF8                   MOV ECX, [EBP-08H]
004860CC: 813950450000             CMP [ECX], 00004550H
004860D2: 7404                     JZ 4860D8H
004860D4: 32C0                     XOR AL, AL
004860D6: EB37                     JMP 48610FH
004860D8: 8B55F8                   MOV EDX, [EBP-08H]
004860DB: 0FB74218                 MOVZX EAX, WORD PTR [EDX+18H]
004860DF: 3D0B010000               CMP EAX, 0000010BH
004860E4: 7404                     JZ 4860EAH
004860E6: 32C0                     XOR AL, AL
004860E8: EB25                     JMP 48610FH
004860EA: 8B4DF8                   MOV ECX, [EBP-08H]
004860ED: 8379740E                 CMP [ECX+74H], 0000000EH
004860F1: 7704                     JNBE 4860F7H
004860F3: 32C0                     XOR AL, AL
004860F5: EB18                     JMP 48610FH
004860F7: BA08000000               MOV EDX, 00000008H
004860FC: 6BC20E                   IMUL EAX, EDX, 0EH
004860FF: 8B4DF8                   MOV ECX, [EBP-08H]
00486102: 837C017800               CMP [ECX+EAX+78H], 00000000H
00486107: 7504                     JNZ 48610DH
00486109: 32C0                     XOR AL, AL
0048610B: EB02                     JMP 48610FH
0048610D: B001                     MOV AL, 01H
0048610F: 8BE5                     MOV ESP, EBP
00486111: 5D                       POP EBP
00486112: C3                       RET 
00486113: CC                       INT 3 
00486114: CC                       INT 3 
00486115: CC                       INT 3 
00486116: CC                       INT 3 
00486117: CC                       INT 3 
00486118: CC                       INT 3 
00486119: CC                       INT 3 
0048611A: CC                       INT 3 
0048611B: CC                       INT 3 
0048611C: CC                       INT 3 
0048611D: CC                       INT 3 
0048611E: CC                       INT 3 
0048611F: CC                       INT 3 
00486120: 55                       PUSH EBP
00486121: 8BEC                     MOV EBP, ESP
00486123: 6830614800               PUSH 00486130H
00486128: FF1550124E00             CALL [004E1250H] ; SetUnhandledExceptionFilter
0048612E: 5D                       POP EBP
0048612F: C3                       RET 
00486130: 55                       PUSH EBP
00486131: 8BEC                     MOV EBP, ESP
00486133: 51                       PUSH ECX
00486134: 8B4508                   MOV EAX, [EBP+08H]
00486137: 8B08                     MOV ECX, [EAX]
00486139: 894DFC                   MOV [EBP-04H], ECX
0048613C: 8B55FC                   MOV EDX, [EBP-04H]
0048613F: 813A63736DE0             CMP [EDX], E06D7363H
00486145: 753E                     JNZ 486185H
00486147: 8B45FC                   MOV EAX, [EBP-04H]
0048614A: 83781003                 CMP [EAX+10H], 00000003H
0048614E: 7535                     JNZ 486185H
00486150: 8B4DFC                   MOV ECX, [EBP-04H]
00486153: 81791420059319           CMP [ECX+14H], 19930520H
0048615A: 7424                     JZ 486180H
0048615C: 8B55FC                   MOV EDX, [EBP-04H]
0048615F: 817A1421059319           CMP [EDX+14H], 19930521H
00486166: 7418                     JZ 486180H
00486168: 8B45FC                   MOV EAX, [EBP-04H]
0048616B: 81781422059319           CMP [EAX+14H], 19930522H
00486172: 740C                     JZ 486180H
00486174: 8B4DFC                   MOV ECX, [EBP-04H]
00486177: 81791400409901           CMP [ECX+14H], 01994000H
0048617E: 7505                     JNZ 486185H
00486180: E8EB040300               CALL 004B6670H
00486185: 33C0                     XOR EAX, EAX
00486187: 8BE5                     MOV ESP, EBP
00486189: 5D                       POP EBP
0048618A: C20400                   RETN 0004H
0048618D: CC                       INT 3 
0048618E: CC                       INT 3 
0048618F: CC                       INT 3 
00486190: 55                       PUSH EBP
00486191: 8BEC                     MOV EBP, ESP
00486193: C705F01D510000000000     MOV [00511DF0H], 00000000H
0048619D: 5D                       POP EBP
0048619E: C3                       RET 
0048619F: CC                       INT 3 
004861A0: 55                       PUSH EBP
004861A1: 8BEC                     MOV EBP, ESP
004861A3: 51                       PUSH ECX
004861A4: 894DFC                   MOV [EBP-04H], ECX
004861A7: 8B4DFC                   MOV ECX, [EBP-04H]
004861AA: FF1538134E00             CALL [004E1338H]
004861B0: 8BE5                     MOV ESP, EBP
004861B2: 5D                       POP EBP
004861B3: C3                       RET 
004861B4: CC                       INT 3 
004861B5: CC                       INT 3 
004861B6: CC                       INT 3 
004861B7: CC                       INT 3 
004861B8: CC                       INT 3 
004861B9: CC                       INT 3 
004861BA: CC                       INT 3 
004861BB: CC                       INT 3 
004861BC: CC                       INT 3 
004861BD: CC                       INT 3 
004861BE: CC                       INT 3 
004861BF: CC                       INT 3 
004861C0: 55                       PUSH EBP
004861C1: 8BEC                     MOV EBP, ESP
004861C3: 51                       PUSH ECX
004861C4: 894DFC                   MOV [EBP-04H], ECX
004861C7: 6A01                     PUSH 00000001H
004861C9: 8B4508                   MOV EAX, [EBP+08H]
004861CC: 50                       PUSH EAX
004861CD: 8B4DFC                   MOV ECX, [EBP-04H]
004861D0: E88BBEF7FF               CALL 00402060H
004861D5: 8B4DFC                   MOV ECX, [EBP-04H]
004861D8: C701D0154E00             MOV [ECX], 004E15D0H
004861DE: 8B45FC                   MOV EAX, [EBP-04H]
004861E1: 8BE5                     MOV ESP, EBP
004861E3: 5D                       POP EBP
004861E4: C20400                   RETN 0004H
004861E7: CC                       INT 3 
004861E8: CC                       INT 3 
004861E9: CC                       INT 3 
004861EA: CC                       INT 3 
004861EB: CC                       INT 3 
004861EC: CC                       INT 3 
004861ED: CC                       INT 3 
004861EE: CC                       INT 3 
004861EF: CC                       INT 3 
004861F0: 55                       PUSH EBP
004861F1: 8BEC                     MOV EBP, ESP
004861F3: 51                       PUSH ECX
004861F4: 894DFC                   MOV [EBP-04H], ECX
004861F7: 8B4508                   MOV EAX, [EBP+08H]
004861FA: 50                       PUSH EAX
004861FB: 8B4DFC                   MOV ECX, [EBP-04H]
004861FE: E87DBEF7FF               CALL 00402080H
00486203: 8B4DFC                   MOV ECX, [EBP-04H]
00486206: C701D0154E00             MOV [ECX], 004E15D0H
0048620C: 8B45FC                   MOV EAX, [EBP-04H]
0048620F: 8BE5                     MOV ESP, EBP
00486211: 5D                       POP EBP
00486212: C20400                   RETN 0004H
00486215: CC                       INT 3 
00486216: CC                       INT 3 
00486217: CC                       INT 3 
00486218: CC                       INT 3 
00486219: CC                       INT 3 
0048621A: CC                       INT 3 
0048621B: CC                       INT 3 
0048621C: CC                       INT 3 
0048621D: CC                       INT 3 
0048621E: CC                       INT 3 
0048621F: CC                       INT 3 
00486220: 55                       PUSH EBP
00486221: 8BEC                     MOV EBP, ESP
00486223: 51                       PUSH ECX
00486224: 894DFC                   MOV [EBP-04H], ECX
00486227: 6A01                     PUSH 00000001H
00486229: 68D8154E00               PUSH 004E15D8H -> bad allocation
0048622E: 8B4DFC                   MOV ECX, [EBP-04H]
00486231: E82ABEF7FF               CALL 00402060H
00486236: 8B45FC                   MOV EAX, [EBP-04H]
00486239: C700D0154E00             MOV [EAX], 004E15D0H
0048623F: 8B45FC                   MOV EAX, [EBP-04H]
00486242: 8BE5                     MOV ESP, EBP
00486244: 5D                       POP EBP
00486245: C3                       RET 
00486246: CC                       INT 3 
00486247: CC                       INT 3 
00486248: CC                       INT 3 
00486249: CC                       INT 3 
0048624A: CC                       INT 3 
0048624B: CC                       INT 3 
0048624C: CC                       INT 3 
0048624D: CC                       INT 3 
0048624E: CC                       INT 3 
0048624F: CC                       INT 3 
00486250: 55                       PUSH EBP
00486251: 8BEC                     MOV EBP, ESP
00486253: 51                       PUSH ECX
00486254: 894DFC                   MOV [EBP-04H], ECX
00486257: 8B4508                   MOV EAX, [EBP+08H]
0048625A: 50                       PUSH EAX
0048625B: 8B4DFC                   MOV ECX, [EBP-04H]
0048625E: E88DFFFFFF               CALL 004861F0H
00486263: 8B4DFC                   MOV ECX, [EBP-04H]
00486266: C701EC154E00             MOV [ECX], 004E15ECH
0048626C: 8B45FC                   MOV EAX, [EBP-04H]
0048626F: 8BE5                     MOV ESP, EBP
00486271: 5D                       POP EBP
00486272: C20400                   RETN 0004H
00486275: CC                       INT 3 
00486276: CC                       INT 3 
00486277: CC                       INT 3 
00486278: CC                       INT 3 
00486279: CC                       INT 3 
0048627A: CC                       INT 3 
0048627B: CC                       INT 3 
0048627C: CC                       INT 3 
0048627D: CC                       INT 3 
0048627E: CC                       INT 3 
0048627F: CC                       INT 3 
00486280: 55                       PUSH EBP
00486281: 8BEC                     MOV EBP, ESP
00486283: 51                       PUSH ECX
00486284: 894DFC                   MOV [EBP-04H], ECX
00486287: 68F4154E00               PUSH 004E15F4H -> bad array new length
0048628C: 8B4DFC                   MOV ECX, [EBP-04H]
0048628F: E82CFFFFFF               CALL 004861C0H
00486294: 8B45FC                   MOV EAX, [EBP-04H]
00486297: C700EC154E00             MOV [EAX], 004E15ECH
0048629D: 8B45FC                   MOV EAX, [EBP-04H]
004862A0: 8BE5                     MOV ESP, EBP
004862A2: 5D                       POP EBP
004862A3: C3                       RET 
004862A4: CC                       INT 3 
004862A5: CC                       INT 3 
004862A6: CC                       INT 3 
004862A7: CC                       INT 3 
004862A8: CC                       INT 3 
004862A9: CC                       INT 3 
004862AA: CC                       INT 3 
004862AB: CC                       INT 3 
004862AC: CC                       INT 3 
004862AD: CC                       INT 3 
004862AE: CC                       INT 3 
004862AF: CC                       INT 3 
004862B0: 55                       PUSH EBP
004862B1: 8BEC                     MOV EBP, ESP
004862B3: 83EC0C                   SUB ESP, 0000000CH
004862B6: 8D4DF4                   LEA ECX, [EBP-0CH]
004862B9: E8C2FFFFFF               CALL 00486280H
004862BE: 6894CC5000               PUSH 0050CC94H
004862C3: 8D45F4                   LEA EAX, [EBP-0CH]
004862C6: 50                       PUSH EAX
004862C7: E834600000               CALL 0048C300H
004862CC: 8BE5                     MOV ESP, EBP
004862CE: 5D                       POP EBP
004862CF: C3                       RET 
004862D0: 55                       PUSH EBP
004862D1: 8BEC                     MOV EBP, ESP
004862D3: 83EC40                   SUB ESP, 00000040H
004862D6: A10CF05000               MOV EAX, [50F00CH]
004862DB: 33C5                     XOR EAX, EBP
004862DD: 8945FC                   MOV [EBP-04H], EAX
004862E0: 53                       PUSH EBX
004862E1: 56                       PUSH ESI
004862E2: C705F81D510000000000     MOV [00511DF8H], 00000000H
004862EC: A110F05000               MOV EAX, [50F010H]
004862F1: 83C801                   OR EAX, 00000001H
004862F4: A310F05000               MOV [50F010H], EAX
004862F9: 6A0A                     PUSH 0000000AH
004862FB: E828630500               CALL 004DC628H
00486300: 85C0                     TEST EAX, EAX
00486302: 7507                     JNZ 48630BH
00486304: 33C0                     XOR EAX, EAX
00486306: E988020000               JMP 00486593H
0048630B: C745F000000000           MOV [EBP-10H], 00000000H
00486312: C745F400000000           MOV [EBP-0CH], 00000000H
00486319: C745F800000000           MOV [EBP-08H], 00000000H
00486320: C705F81D510001000000     MOV [00511DF8H], 00000001H
0048632A: 8B0D10F05000             MOV ECX, [0050F010H]
00486330: 83C902                   OR ECX, 00000002H
00486333: 890D10F05000             MOV [0050F010H], ECX
00486339: 8D75E0                   LEA ESI, [EBP-20H]
0048633C: 33C0                     XOR EAX, EAX
0048633E: 33C9                     XOR ECX, ECX
00486340: 0FA2                     CPUID 
00486342: 8906                     MOV [ESI], EAX
00486344: 895E04                   MOV [ESI+04H], EBX
00486347: 894E08                   MOV [ESI+08H], ECX
0048634A: 89560C                   MOV [ESI+0CH], EDX
0048634D: BA04000000               MOV EDX, 00000004H
00486352: 6BC200                   IMUL EAX, EDX, 00H
00486355: 8B4C05E0                 MOV ECX, [EBP+EAX-20H]
00486359: 894DD0                   MOV [EBP-30H], ECX
0048635C: BA04000000               MOV EDX, 00000004H
00486361: C1E200                   SHL EDX, 00H
00486364: 8B4415E0                 MOV EAX, [EBP+EDX-20H]
00486368: 3547656E75               XOR EAX, 756E6547H
0048636D: B904000000               MOV ECX, 00000004H
00486372: 6BD103                   IMUL EDX, ECX, 03H
00486375: 8B4C15E0                 MOV ECX, [EBP+EDX-20H]
00486379: 81F1696E6549             XOR ECX, 49656E69H
0048637F: 0BC1                     OR EAX, ECX
00486381: BA04000000               MOV EDX, 00000004H
00486386: D1E2                     SHL EDX, 01H
00486388: 8B4C15E0                 MOV ECX, [EBP+EDX-20H]
0048638C: 81F16E74656C             XOR ECX, 6C65746EH
00486392: 0BC1                     OR EAX, ECX
00486394: 7509                     JNZ 48639FH
00486396: C745D401000000           MOV [EBP-2CH], 00000001H
0048639D: EB07                     JMP 4863A6H
0048639F: C745D400000000           MOV [EBP-2CH], 00000000H
004863A6: 8A55D4                   MOV DL, [EBP-2CH]
004863A9: 8855DF                   MOV [EBP-21H], DL
004863AC: 8D75E0                   LEA ESI, [EBP-20H]
004863AF: B801000000               MOV EAX, 00000001H
004863B4: 33C9                     XOR ECX, ECX
004863B6: 0FA2                     CPUID 
004863B8: 8906                     MOV [ESI], EAX
004863BA: 895E04                   MOV [ESI+04H], EBX
004863BD: 894E08                   MOV [ESI+08H], ECX
004863C0: 89560C                   MOV [ESI+0CH], EDX
004863C3: B804000000               MOV EAX, 00000004H
004863C8: 6BC800                   IMUL ECX, EAX, 00H
004863CB: 8B540DE0                 MOV EDX, [EBP+ECX-20H]
004863CF: 8955D8                   MOV [EBP-28H], EDX
004863D2: 0FB645DF                 MOVZX EAX, BYTE PTR [EBP-21H]
004863D6: 85C0                     TEST EAX, EAX
004863D8: 7471                     JZ 48644BH
004863DA: 8B4DD8                   MOV ECX, [EBP-28H]
004863DD: 81E1F03FFF0F             AND ECX, 0FFF3FF0H
004863E3: 81F9C0060100             CMP ECX, 000106C0H
004863E9: 7451                     JZ 48643CH
004863EB: 8B55D8                   MOV EDX, [EBP-28H]
004863EE: 81E2F03FFF0F             AND EDX, 0FFF3FF0H
004863F4: 81FA60060200             CMP EDX, 00020660H
004863FA: 7440                     JZ 48643CH
004863FC: 8B45D8                   MOV EAX, [EBP-28H]
004863FF: 25F03FFF0F               AND EAX, 0FFF3FF0H
00486404: 3D70060200               CMP EAX, 00020670H
00486409: 7431                     JZ 48643CH
0048640B: 8B4DD8                   MOV ECX, [EBP-28H]
0048640E: 81E1F03FFF0F             AND ECX, 0FFF3FF0H
00486414: 81F950060300             CMP ECX, 00030650H
0048641A: 7420                     JZ 48643CH
0048641C: 8B55D8                   MOV EDX, [EBP-28H]
0048641F: 81E2F03FFF0F             AND EDX, 0FFF3FF0H
00486425: 81FA60060300             CMP EDX, 00030660H
0048642B: 740F                     JZ 48643CH
0048642D: 8B45D8                   MOV EAX, [EBP-28H]
00486430: 25F03FFF0F               AND EAX, 0FFF3FF0H
00486435: 3D70060300               CMP EAX, 00030670H
0048643A: 750F                     JNZ 48644BH
0048643C: 8B0DFC1D5100             MOV ECX, [00511DFCH]
00486442: 83C901                   OR ECX, 00000001H
00486445: 890DFC1D5100             MOV [00511DFCH], ECX
0048644B: BA04000000               MOV EDX, 00000004H
00486450: 6BC203                   IMUL EAX, EDX, 03H
00486453: B904000000               MOV ECX, 00000004H
00486458: 6BD100                   IMUL EDX, ECX, 00H
0048645B: 8B4405E0                 MOV EAX, [EBP+EAX-20H]
0048645F: 894415F0                 MOV [EBP+EDX-10H], EAX
00486463: B904000000               MOV ECX, 00000004H
00486468: D1E1                     SHL ECX, 01H
0048646A: BA04000000               MOV EDX, 00000004H
0048646F: C1E200                   SHL EDX, 00H
00486472: 8B440DE0                 MOV EAX, [EBP+ECX-20H]
00486476: 894415F0                 MOV [EBP+EDX-10H], EAX
0048647A: 837DD007                 CMP [EBP-30H], 00000007H
0048647E: 7C4F                     JL 4864CFH
00486480: 8D75E0                   LEA ESI, [EBP-20H]
00486483: B807000000               MOV EAX, 00000007H
00486488: 33C9                     XOR ECX, ECX
0048648A: 0FA2                     CPUID 
0048648C: 8906                     MOV [ESI], EAX
0048648E: 895E04                   MOV [ESI+04H], EBX
00486491: 894E08                   MOV [ESI+08H], ECX
00486494: 89560C                   MOV [ESI+0CH], EDX
00486497: B904000000               MOV ECX, 00000004H
0048649C: C1E100                   SHL ECX, 00H
0048649F: BA04000000               MOV EDX, 00000004H
004864A4: D1E2                     SHL EDX, 01H
004864A6: 8B440DE0                 MOV EAX, [EBP+ECX-20H]
004864AA: 894415F0                 MOV [EBP+EDX-10H], EAX
004864AE: B904000000               MOV ECX, 00000004H
004864B3: C1E100                   SHL ECX, 00H
004864B6: 8B540DE0                 MOV EDX, [EBP+ECX-20H]
004864BA: 81E200020000             AND EDX, 00000200H
004864C0: 740D                     JZ 4864CFH
004864C2: A1FC1D5100               MOV EAX, [511DFCH]
004864C7: 83C802                   OR EAX, 00000002H
004864CA: A3FC1D5100               MOV [511DFCH], EAX
004864CF: B904000000               MOV ECX, 00000004H
004864D4: C1E100                   SHL ECX, 00H
004864D7: 8B540DF0                 MOV EDX, [EBP+ECX-10H]
004864DB: 81E200001000             AND EDX, 00100000H
004864E1: 0F84AA000000             JZ 00486591H
004864E7: C705F81D510002000000     MOV [00511DF8H], 00000002H
004864F1: A110F05000               MOV EAX, [50F010H]
004864F6: 83C804                   OR EAX, 00000004H
004864F9: A310F05000               MOV [50F010H], EAX
004864FE: B904000000               MOV ECX, 00000004H
00486503: C1E100                   SHL ECX, 00H
00486506: 8B540DF0                 MOV EDX, [EBP+ECX-10H]
0048650A: 81E200000008             AND EDX, 08000000H
00486510: 747F                     JZ 486491H
00486512: B804000000               MOV EAX, 00000004H
00486517: C1E000                   SHL EAX, 00H
0048651A: 8B4C05F0                 MOV ECX, [EBP+EAX-10H]
0048651E: 81E100000010             AND ECX, 10000000H
00486524: 746B                     JZ 486591H
00486526: 33C9                     XOR ECX, ECX
00486528: 0F01D0                   LGDT EAX
0048652B: 8945C8                   MOV [EBP-38H], EAX
0048652E: 8955CC                   MOV [EBP-34H], EDX
00486531: 8B55C8                   MOV EDX, [EBP-38H]
00486534: 8B45CC                   MOV EAX, [EBP-34H]
00486537: 83E206                   AND EDX, 00000006H
0048653A: 83E000                   AND EAX, 00000000H
0048653D: 8955C0                   MOV [EBP-40H], EDX
00486540: 8945C4                   MOV [EBP-3CH], EAX
00486543: 837DC006                 CMP [EBP-40H], 00000006H
00486547: 7548                     JNZ 486591H
00486549: 837DC400                 CMP [EBP-3CH], 00000000H
0048654D: 7542                     JNZ 486591H
0048654F: C705F81D510003000000     MOV [00511DF8H], 00000003H
00486559: 8B0D10F05000             MOV ECX, [0050F010H]
0048655F: 83C908                   OR ECX, 00000008H
00486562: 890D10F05000             MOV [0050F010H], ECX
00486568: BA04000000               MOV EDX, 00000004H
0048656D: D1E2                     SHL EDX, 01H
0048656F: 8B4415F0                 MOV EAX, [EBP+EDX-10H]
00486573: 83E020                   AND EAX, 00000020H
00486576: 7419                     JZ 486591H
00486578: C705F81D510005000000     MOV [00511DF8H], 00000005H
00486582: 8B0D10F05000             MOV ECX, [0050F010H]
00486588: 83C920                   OR ECX, 00000020H
0048658B: 890D10F05000             MOV [0050F010H], ECX
00486591: 33C0                     XOR EAX, EAX
00486593: 5E                       POP ESI
00486594: 5B                       POP EBX
00486595: 8B4DFC                   MOV ECX, [EBP-04H]
00486598: 33CD                     XOR ECX, EBP
0048659A: E861EAFFFF               CALL 00485000H
0048659F: 8BE5                     MOV ESP, EBP
004865A1: 5D                       POP EBP
004865A2: C3                       RET 
004865A3: CC                       INT 3 
004865A4: CC                       INT 3 
004865A5: CC                       INT 3 
004865A6: CC                       INT 3 
004865A7: CC                       INT 3 
004865A8: CC                       INT 3 
004865A9: CC                       INT 3 
004865AA: CC                       INT 3 
004865AB: CC                       INT 3 
004865AC: CC                       INT 3 
004865AD: CC                       INT 3 
004865AE: CC                       INT 3 
004865AF: CC                       INT 3 
004865B0: 55                       PUSH EBP
004865B1: 8BEC                     MOV EBP, ESP
004865B3: 51                       PUSH ECX
004865B4: 833D645A510000           CMP [00515A64H], 00000000H
004865BB: 7409                     JZ 4865C6H
004865BD: C745FC01000000           MOV [EBP-04H], 00000001H
004865C4: EB07                     JMP 4865CDH
004865C6: C745FC00000000           MOV [EBP-04H], 00000000H
004865CD: 8B45FC                   MOV EAX, [EBP-04H]
004865D0: 8BE5                     MOV ESP, EBP
004865D2: 5D                       POP EBP
004865D3: C3                       RET 
004865D4: CC                       INT 3 
004865D5: CC                       INT 3 
004865D6: CC                       INT 3 
004865D7: CC                       INT 3 
004865D8: CC                       INT 3 
004865D9: CC                       INT 3 
004865DA: CC                       INT 3 
004865DB: CC                       INT 3 
004865DC: CC                       INT 3 
004865DD: CC                       INT 3 
004865DE: CC                       INT 3 
004865DF: CC                       INT 3 
004865E0: 55                       PUSH EBP
004865E1: 8BEC                     MOV EBP, ESP
004865E3: 83EC14                   SUB ESP, 00000014H
004865E6: C745F400000000           MOV [EBP-0CH], 00000000H
004865ED: C745F800000000           MOV [EBP-08H], 00000000H
004865F4: 813D0CF050004EE640BB     CMP [0050F00CH], BB40E64EH
004865FE: 741F                     JZ 48661FH
00486600: A10CF05000               MOV EAX, [50F00CH]
00486605: 250000FFFF               AND EAX, FFFF0000H
0048660A: 7413                     JZ 48661FH
0048660C: 8B0D0CF05000             MOV ECX, [0050F00CH]
00486612: F7D1                     NOT ECX
00486614: 890D08F05000             MOV [0050F008H], ECX
0048661A: E99A000000               JMP 004866B9H
0048661F: 8D55F4                   LEA EDX, [EBP-0CH]
00486622: 52                       PUSH EDX
00486623: FF153C114E00             CALL [004E113CH] ; GetSystemTimeAsFileTime
00486629: 8B45F4                   MOV EAX, [EBP-0CH]
0048662C: 8945FC                   MOV [EBP-04H], EAX
0048662F: 8B4DFC                   MOV ECX, [EBP-04H]
00486632: 334DF8                   XOR ECX, [EBP-08H]
00486635: 894DFC                   MOV [EBP-04H], ECX
00486638: FF1568124E00             CALL [004E1268H] ; GetCurrentThreadId
0048663E: 3345FC                   XOR EAX, [EBP-04H]
00486641: 8945FC                   MOV [EBP-04H], EAX
00486644: FF1530114E00             CALL [004E1130H] ; GetCurrentProcessId
0048664A: 3345FC                   XOR EAX, [EBP-04H]
0048664D: 8945FC                   MOV [EBP-04H], EAX
00486650: 8D55EC                   LEA EDX, [EBP-14H]
00486653: 52                       PUSH EDX
00486654: FF1550114E00             CALL [004E1150H] ; QueryPerformanceCounter
0048665A: 8B45FC                   MOV EAX, [EBP-04H]
0048665D: 3345EC                   XOR EAX, [EBP-14H]
00486660: 8945FC                   MOV [EBP-04H], EAX
00486663: 8B4DFC                   MOV ECX, [EBP-04H]
00486666: 334DF0                   XOR ECX, [EBP-10H]
00486669: 894DFC                   MOV [EBP-04H], ECX
0048666C: 8B55FC                   MOV EDX, [EBP-04H]
0048666F: 8D45FC                   LEA EAX, [EBP-04H]
00486672: 33D0                     XOR EDX, EAX
00486674: 8955FC                   MOV [EBP-04H], EDX
00486677: 817DFC4EE640BB           CMP [EBP-04H], BB40E64EH
0048667E: 7509                     JNZ 486689H
00486680: C745FC4FE640BB           MOV [EBP-04H], BB40E64FH
00486687: EB1D                     JMP 4866A6H
00486689: 8B4DFC                   MOV ECX, [EBP-04H]
0048668C: 81E10000FFFF             AND ECX, FFFF0000H
00486692: 7512                     JNZ 4866A6H
00486694: 8B55FC                   MOV EDX, [EBP-04H]
00486697: 81CA11470000             OR EDX, 00004711H
0048669D: C1E210                   SHL EDX, 10H
004866A0: 0B55FC                   OR EDX, [EBP-04H]
004866A3: 8955FC                   MOV [EBP-04H], EDX
004866A6: 8B45FC                   MOV EAX, [EBP-04H]
004866A9: A30CF05000               MOV [50F00CH], EAX
004866AE: 8B4DFC                   MOV ECX, [EBP-04H]
004866B1: F7D1                     NOT ECX
004866B3: 890D08F05000             MOV [0050F008H], ECX
004866B9: 8BE5                     MOV ESP, EBP
004866BB: 5D                       POP EBP
004866BC: C3                       RET 
004866BD: CC                       INT 3 
004866BE: CC                       INT 3 
004866BF: CC                       INT 3 
004866C0: 55                       PUSH EBP
004866C1: 8BEC                     MOV EBP, ESP
004866C3: B801000000               MOV EAX, 00000001H
004866C8: 5D                       POP EBP
004866C9: C3                       RET 
004866CA: CC                       INT 3 
004866CB: CC                       INT 3 
004866CC: CC                       INT 3 
004866CD: CC                       INT 3 
004866CE: CC                       INT 3 
004866CF: CC                       INT 3 
004866D0: 55                       PUSH EBP
004866D1: 8BEC                     MOV EBP, ESP
004866D3: 33C0                     XOR EAX, EAX
004866D5: 5D                       POP EBP
004866D6: C3                       RET 
004866D7: CC                       INT 3 
004866D8: CC                       INT 3 
004866D9: CC                       INT 3 
004866DA: CC                       INT 3 
004866DB: CC                       INT 3 
004866DC: CC                       INT 3 
004866DD: CC                       INT 3 
004866DE: CC                       INT 3 
004866DF: CC                       INT 3 
004866E0: 55                       PUSH EBP
004866E1: 8BEC                     MOV EBP, ESP
004866E3: B800400000               MOV EAX, 00004000H
004866E8: 5D                       POP EBP
004866E9: C3                       RET 
004866EA: CC                       INT 3 
004866EB: CC                       INT 3 
004866EC: CC                       INT 3 
004866ED: CC                       INT 3 
004866EE: CC                       INT 3 
004866EF: CC                       INT 3 
004866F0: 55                       PUSH EBP
004866F1: 8BEC                     MOV EBP, ESP
004866F3: 6800000300               PUSH 00030000H
004866F8: 6800000100               PUSH 00010000H
004866FD: 6A00                     PUSH 00000000H
004866FF: E80C000300               CALL 004B6710H
00486704: 83C40C                   ADD ESP, 0000000CH
00486707: 85C0                     TEST EAX, EAX
00486709: 7407                     JZ 486712H
0048670B: 6A07                     PUSH 00000007H
0048670D: E83EF8FFFF               CALL 00485F50H
00486712: 5D                       POP EBP
00486713: C3                       RET 
00486714: CC                       INT 3 
00486715: CC                       INT 3 
00486716: CC                       INT 3 
00486717: CC                       INT 3 
00486718: CC                       INT 3 
00486719: CC                       INT 3 
0048671A: CC                       INT 3 
0048671B: CC                       INT 3 
0048671C: CC                       INT 3 
0048671D: CC                       INT 3 
0048671E: CC                       INT 3 
0048671F: CC                       INT 3 
00486720: 55                       PUSH EBP
00486721: 8BEC                     MOV EBP, ESP
00486723: 5D                       POP EBP
00486724: C3                       RET 
00486725: CC                       INT 3 
00486726: CC                       INT 3 
00486727: CC                       INT 3 
00486728: CC                       INT 3 
00486729: CC                       INT 3 
0048672A: CC                       INT 3 
0048672B: CC                       INT 3 
0048672C: CC                       INT 3 
0048672D: CC                       INT 3 
0048672E: CC                       INT 3 
0048672F: CC                       INT 3 
00486730: 55                       PUSH EBP
00486731: 8BEC                     MOV EBP, ESP
00486733: B8001E5100               MOV EAX, 00511E00H
00486738: 5D                       POP EBP
00486739: C3                       RET 
0048673A: CC                       INT 3 
0048673B: CC                       INT 3 
0048673C: CC                       INT 3 
0048673D: CC                       INT 3 
0048673E: CC                       INT 3 
0048673F: CC                       INT 3 
00486740: 55                       PUSH EBP
00486741: 8BEC                     MOV EBP, ESP
00486743: 83EC08                   SUB ESP, 00000008H
00486746: E825B7F7FF               CALL 00401E70H
0048674B: 8945FC                   MOV [EBP-04H], EAX
0048674E: 8B45FC                   MOV EAX, [EBP-04H]
00486751: 8B08                     MOV ECX, [EAX]
00486753: 83C904                   OR ECX, 00000004H
00486756: 8B5004                   MOV EDX, [EAX+04H]
00486759: 8B45FC                   MOV EAX, [EBP-04H]
0048675C: 8908                     MOV [EAX], ECX
0048675E: 895004                   MOV [EAX+04H], EDX
00486761: E8CAFFFFFF               CALL 00486730H
00486766: 8945F8                   MOV [EBP-08H], EAX
00486769: 8B4DF8                   MOV ECX, [EBP-08H]
0048676C: 8B11                     MOV EDX, [ECX]
0048676E: 83CA02                   OR EDX, 00000002H
00486771: 8B4104                   MOV EAX, [ECX+04H]
00486774: 8B4DF8                   MOV ECX, [EBP-08H]
00486777: 8911                     MOV [ECX], EDX
00486779: 894104                   MOV [ECX+04H], EAX
0048677C: 8BE5                     MOV ESP, EBP
0048677E: 5D                       POP EBP
0048677F: C3                       RET 
00486780: 55                       PUSH EBP
00486781: 8BEC                     MOV EBP, ESP
00486783: 51                       PUSH ECX
00486784: 833D14F0500000           CMP [0050F014H], 00000000H
0048678B: 7509                     JNZ 486796H
0048678D: C745FC01000000           MOV [EBP-04H], 00000001H
00486794: EB07                     JMP 48679DH
00486796: C745FC00000000           MOV [EBP-04H], 00000000H
0048679D: 8B45FC                   MOV EAX, [EBP-04H]
004867A0: 8BE5                     MOV ESP, EBP
004867A2: 5D                       POP EBP
004867A3: C3                       RET 
004867A4: CC                       INT 3 
004867A5: CC                       INT 3 
004867A6: CC                       INT 3 
004867A7: CC                       INT 3 
004867A8: CC                       INT 3 
004867A9: CC                       INT 3 
004867AA: CC                       INT 3 
004867AB: CC                       INT 3 
004867AC: CC                       INT 3 
004867AD: CC                       INT 3 
004867AE: CC                       INT 3 
004867AF: CC                       INT 3 
004867B0: 55                       PUSH EBP
004867B1: 8BEC                     MOV EBP, ESP
004867B3: B8605A5100               MOV EAX, 00515A60H
004867B8: 5D                       POP EBP
004867B9: C3                       RET 
004867BA: CC                       INT 3 
004867BB: CC                       INT 3 
004867BC: CC                       INT 3 
004867BD: CC                       INT 3 
004867BE: CC                       INT 3 
004867BF: CC                       INT 3 
004867C0: 55                       PUSH EBP
004867C1: 8BEC                     MOV EBP, ESP
004867C3: B85C5A5100               MOV EAX, 00515A5CH
004867C8: 5D                       POP EBP
004867C9: C3                       RET 
004867CA: CC                       INT 3 
004867CB: CC                       INT 3 
004867CC: CC                       INT 3 
004867CD: CC                       INT 3 
004867CE: CC                       INT 3 
004867CF: CC                       INT 3 
004867D0: 56                       PUSH ESI
004867D1: BE409E5000               MOV ESI, 00509E40H
004867D6: 8BC6                     MOV EAX, ESI
004867D8: 3D409E5000               CMP EAX, 00509E40H
004867DD: 731C                     JNB 4867FBH
004867DF: 57                       PUSH EDI
004867E0: 8B3E                     MOV EDI, [ESI]
004867E2: 85FF                     TEST EDI, EDI
004867E4: 7409                     JZ 4867EFH
004867E6: 8BCF                     MOV ECX, EDI
004867E8: E8B3F9FFFF               CALL 004861A0H
004867ED: FFD7                     CALL EDI
004867EF: 83C604                   ADD ESI, 00000004H
004867F2: 81FE409E5000             CMP ESI, 00509E40H
004867F8: 72E6                     JB 4867E0H
004867FA: 5F                       POP EDI
004867FB: 5E                       POP ESI
004867FC: C3                       RET 
004867FD: CC                       INT 3 
004867FE: CC                       INT 3 
004867FF: CC                       INT 3 
00486800: 56                       PUSH ESI
00486801: BE489E5000               MOV ESI, 00509E48H
00486806: 8BC6                     MOV EAX, ESI
00486808: 3D489E5000               CMP EAX, 00509E48H
0048680D: 731C                     JNB 48682BH
0048680F: 57                       PUSH EDI
00486810: 8B3E                     MOV EDI, [ESI]
00486812: 85FF                     TEST EDI, EDI
00486814: 7409                     JZ 48681FH
00486816: 8BCF                     MOV ECX, EDI
00486818: E883F9FFFF               CALL 004861A0H
0048681D: FFD7                     CALL EDI
0048681F: 83C604                   ADD ESI, 00000004H
00486822: 81FE489E5000             CMP ESI, 00509E48H
00486828: 72E6                     JB 486810H
0048682A: 5F                       POP EDI
0048682B: 5E                       POP ESI
0048682C: C3                       RET 
0048682D: CC                       INT 3 
0048682E: CC                       INT 3 
0048682F: CC                       INT 3 
00486830: 55                       PUSH EBP
00486831: 8BEC                     MOV EBP, ESP
00486833: 51                       PUSH ECX
00486834: 894DFC                   MOV [EBP-04H], ECX
00486837: 8BE5                     MOV ESP, EBP
00486839: 5D                       POP EBP
0048683A: C3                       RET 
0048683B: CC                       INT 3 
0048683C: CC                       INT 3 
0048683D: CC                       INT 3 
0048683E: CC                       INT 3 
0048683F: CC                       INT 3 
00486840: 55                       PUSH EBP
00486841: 8BEC                     MOV EBP, ESP
00486843: 51                       PUSH ECX
00486844: 813D38134E0030684800     CMP [004E1338H], 00486830H
0048684E: 7409                     JZ 486859H
00486850: C745FC01000000           MOV [EBP-04H], 00000001H
00486857: EB07                     JMP 486860H
00486859: C745FC00000000           MOV [EBP-04H], 00000000H
00486860: 8B45FC                   MOV EAX, [EBP-04H]
00486863: 8BE5                     MOV ESP, EBP
00486865: 5D                       POP EBP
00486866: C3                       RET 
00486867: CC                       INT 3 
00486868: CC                       INT 3 
00486869: CC                       INT 3 
0048686A: CC                       INT 3 
0048686B: CC                       INT 3 
0048686C: CC                       INT 3 
0048686D: CC                       INT 3 
0048686E: CC                       INT 3 
0048686F: CC                       INT 3 
00486870: 55                       PUSH EBP
00486871: 8BEC                     MOV EBP, ESP
00486873: 83EC08                   SUB ESP, 00000008H
00486876: 894DF8                   MOV [EBP-08H], ECX
00486879: B801000000               MOV EAX, 00000001H
0048687E: F00FC10518F05000         LOCK XADD [0050F018H], EAX
00486886: 40                       INC EAX
00486887: 752D                     JNZ 4868B6H
00486889: C745FC00000000           MOV [EBP-04H], 00000000H
00486890: EB09                     JMP 48689BH
00486892: 8B4DFC                   MOV ECX, [EBP-04H]
00486895: 83C101                   ADD ECX, 00000001H
00486898: 894DFC                   MOV [EBP-04H], ECX
0048689B: 837DFC08                 CMP [EBP-04H], 00000008H
0048689F: 7D15                     JNL 4868B6H
004868A1: 6B55FC18                 IMUL EDX, [EBP-04H], 18H
004868A5: 81C2101E5100             ADD EDX, 00511E10H
004868AB: 52                       PUSH EDX
004868AC: E84F170000               CALL 00488000H
004868B1: 83C404                   ADD ESP, 00000004H
004868B4: EBDC                     JMP 486892H
004868B6: 8B45F8                   MOV EAX, [EBP-08H]
004868B9: 8BE5                     MOV ESP, EBP
004868BB: 5D                       POP EBP
004868BC: C3                       RET 
004868BD: CC                       INT 3 
004868BE: CC                       INT 3 
004868BF: CC                       INT 3 
004868C0: 55                       PUSH EBP
004868C1: 8BEC                     MOV EBP, ESP
004868C3: 51                       PUSH ECX
004868C4: 894DFC                   MOV [EBP-04H], ECX
004868C7: 8B45FC                   MOV EAX, [EBP-04H]
004868CA: 8B4D08                   MOV ECX, [EBP+08H]
004868CD: 8908                     MOV [EAX], ECX
004868CF: 8B55FC                   MOV EDX, [EBP-04H]
004868D2: 833A00                   CMP [EDX], 00000000H
004868D5: 7507                     JNZ 4868DEH
004868D7: E814000300               CALL 004B68F0H
004868DC: EB1D                     JMP 4868FBH
004868DE: 8B45FC                   MOV EAX, [EBP-04H]
004868E1: 833808                   CMP [EAX], 00000008H
004868E4: 7D15                     JNL 4868FBH
004868E6: 8B4DFC                   MOV ECX, [EBP-04H]
004868E9: 6B1118                   IMUL EDX, [ECX], 18H
004868EC: 81C2101E5100             ADD EDX, 00511E10H
004868F2: 52                       PUSH EDX
004868F3: E828170000               CALL 00488020H
004868F8: 83C404                   ADD ESP, 00000004H
004868FB: 8B45FC                   MOV EAX, [EBP-04H]
004868FE: 8BE5                     MOV ESP, EBP
00486900: 5D                       POP EBP
00486901: C20400                   RETN 0004H
00486904: CC                       INT 3 
00486905: CC                       INT 3 
00486906: CC                       INT 3 
00486907: CC                       INT 3 
00486908: CC                       INT 3 
00486909: CC                       INT 3 
0048690A: CC                       INT 3 
0048690B: CC                       INT 3 
0048690C: CC                       INT 3 
0048690D: CC                       INT 3 
0048690E: CC                       INT 3 
0048690F: CC                       INT 3 
00486910: 55                       PUSH EBP
00486911: 8BEC                     MOV EBP, ESP
00486913: 83EC08                   SUB ESP, 00000008H
00486916: 894DF8                   MOV [EBP-08H], ECX
00486919: 83C8FF                   OR EAX, FFFFFFFFH
0048691C: F00FC10518F05000         LOCK XADD [0050F018H], EAX
00486924: 48                       DEC EAX
00486925: 792D                     JNS 486954H
00486927: C745FC00000000           MOV [EBP-04H], 00000000H
0048692E: EB09                     JMP 486939H
00486930: 8B4DFC                   MOV ECX, [EBP-04H]
00486933: 83C101                   ADD ECX, 00000001H
00486936: 894DFC                   MOV [EBP-04H], ECX
00486939: 837DFC08                 CMP [EBP-04H], 00000008H
0048693D: 7D15                     JNL 486954H
0048693F: 6B55FC18                 IMUL EDX, [EBP-04H], 18H
00486943: 81C2101E5100             ADD EDX, 00511E10H
00486949: 52                       PUSH EDX
0048694A: E8A1160000               CALL 00487FF0H
0048694F: 83C404                   ADD ESP, 00000004H
00486952: EBDC                     JMP 486930H
00486954: 8BE5                     MOV ESP, EBP
00486956: 5D                       POP EBP
00486957: C3                       RET 
00486958: CC                       INT 3 
00486959: CC                       INT 3 
0048695A: CC                       INT 3 
0048695B: CC                       INT 3 
0048695C: CC                       INT 3 
0048695D: CC                       INT 3 
0048695E: CC                       INT 3 
0048695F: CC                       INT 3 
00486960: 55                       PUSH EBP
00486961: 8BEC                     MOV EBP, ESP
00486963: 51                       PUSH ECX
00486964: 894DFC                   MOV [EBP-04H], ECX
00486967: 8B45FC                   MOV EAX, [EBP-04H]
0048696A: 833800                   CMP [EAX], 00000000H
0048696D: 7507                     JNZ 486976H
0048696F: E89CFF0200               CALL 004B6910H
00486974: EB1C                     JMP 486992H
00486976: 8B4DFC                   MOV ECX, [EBP-04H]
00486979: 833908                   CMP [ECX], 00000008H
0048697C: 7D14                     JNL 486992H
0048697E: 8B55FC                   MOV EDX, [EBP-04H]
00486981: 6B0218                   IMUL EAX, [EDX], 18H
00486984: 05101E5100               ADD EAX, 00511E10H
00486989: 50                       PUSH EAX
0048698A: E8A1160000               CALL 00488030H
0048698F: 83C404                   ADD ESP, 00000004H
00486992: 8BE5                     MOV ESP, EBP
00486994: 5D                       POP EBP
00486995: C3                       RET 
00486996: CC                       INT 3 
00486997: CC                       INT 3 
00486998: CC                       INT 3 
00486999: CC                       INT 3 
0048699A: CC                       INT 3 
0048699B: CC                       INT 3 
0048699C: CC                       INT 3 
0048699D: CC                       INT 3 
0048699E: CC                       INT 3 
0048699F: CC                       INT 3 
004869A0: 55                       PUSH EBP
004869A1: 8BEC                     MOV EBP, ESP
004869A3: 51                       PUSH ECX
004869A4: 894DFC                   MOV [EBP-04H], ECX
004869A7: 8B45FC                   MOV EAX, [EBP-04H]
004869AA: C70000000000             MOV [EAX], 00000000H
004869B0: 8B4DFC                   MOV ECX, [EBP-04H]
004869B3: C6410400                 MOV BYTE PTR [ECX+04H], 00H
004869B7: 8B5508                   MOV EDX, [EBP+08H]
004869BA: 52                       PUSH EDX
004869BB: 8B4DFC                   MOV ECX, [EBP-04H]
004869BE: E8CD020000               CALL 00486C90H
004869C3: 8B45FC                   MOV EAX, [EBP-04H]
004869C6: 8BE5                     MOV ESP, EBP
004869C8: 5D                       POP EBP
004869C9: C20400                   RETN 0004H
004869CC: CC                       INT 3 
004869CD: CC                       INT 3 
004869CE: CC                       INT 3 
004869CF: CC                       INT 3 
004869D0: 55                       PUSH EBP
004869D1: 8BEC                     MOV EBP, ESP
004869D3: 51                       PUSH ECX
004869D4: 894DFC                   MOV [EBP-04H], ECX
004869D7: 8B45FC                   MOV EAX, [EBP-04H]
004869DA: 8B4D08                   MOV ECX, [EBP+08H]
004869DD: 8908                     MOV [EAX], ECX
004869DF: 8B55FC                   MOV EDX, [EBP-04H]
004869E2: 8B450C                   MOV EAX, [EBP+0CH]
004869E5: 894204                   MOV [EDX+04H], EAX
004869E8: 8B45FC                   MOV EAX, [EBP-04H]
004869EB: 8BE5                     MOV ESP, EBP
004869ED: 5D                       POP EBP
004869EE: C20800                   RETN 0008H
004869F1: CC                       INT 3 
004869F2: CC                       INT 3 
004869F3: CC                       INT 3 
004869F4: CC                       INT 3 
004869F5: CC                       INT 3 
004869F6: CC                       INT 3 
004869F7: CC                       INT 3 
004869F8: CC                       INT 3 
004869F9: CC                       INT 3 
004869FA: CC                       INT 3 
004869FB: CC                       INT 3 
004869FC: CC                       INT 3 
004869FD: CC                       INT 3 
004869FE: CC                       INT 3 
004869FF: CC                       INT 3 
00486A00: 55                       PUSH EBP
00486A01: 8BEC                     MOV EBP, ESP
00486A03: 6AFF                     PUSH FFFFFFFFH
00486A05: 68B8FF4D00               PUSH 004DFFB8H
00486A0A: 64A100000000             MOV EAX, FS:[00H]
00486A10: 50                       PUSH EAX
00486A11: 51                       PUSH ECX
00486A12: A10CF05000               MOV EAX, [50F00CH]
00486A17: 33C5                     XOR EAX, EBP
00486A19: 50                       PUSH EAX
00486A1A: 8D45F4                   LEA EAX, [EBP-0CH]
00486A1D: 64A300000000             MOV FS:[00H], EAX
00486A23: 894DF0                   MOV [EBP-10H], ECX
00486A26: 6A01                     PUSH 00000001H
00486A28: 8B4DF0                   MOV ECX, [EBP-10H]
00486A2B: E810BBF7FF               CALL 00402540H
00486A30: C745FC00000000           MOV [EBP-04H], 00000000H
00486A37: 8B45F0                   MOV EAX, [EBP-10H]
00486A3A: C7005C164E00             MOV [EAX], 004E165CH
00486A40: 8B4DF0                   MOV ECX, [EBP-10H]
00486A43: C7410800000000           MOV [ECX+08H], 00000000H
00486A4A: 8B55F0                   MOV EDX, [EBP-10H]
00486A4D: C7420C00000000           MOV [EDX+0CH], 00000000H
00486A54: 8B45F0                   MOV EAX, [EBP-10H]
00486A57: C7401000000000           MOV [EAX+10H], 00000000H
00486A5E: 8B4DF0                   MOV ECX, [EBP-10H]
00486A61: 8A5508                   MOV DL, [EBP+08H]
00486A64: 885114                   MOV [ECX+14H], DL
00486A67: 68106C5000               PUSH 00506C10H
00486A6C: 8B4DF0                   MOV ECX, [EBP-10H]
00486A6F: 83C118                   ADD ECX, 00000018H
00486A72: E829FFFFFF               CALL 004869A0H
00486A77: C745FCFFFFFFFF           MOV [EBP-04H], FFFFFFFFH
00486A7E: 8B45F0                   MOV EAX, [EBP-10H]
00486A81: 8B4DF4                   MOV ECX, [EBP-0CH]
00486A84: 64890D00000000           MOV FS:[00000000H], ECX
00486A8B: 59                       POP ECX
00486A8C: 8BE5                     MOV ESP, EBP
00486A8E: 5D                       POP EBP
00486A8F: C20400                   RETN 0004H
00486A92: CC                       INT 3 
00486A93: CC                       INT 3 
00486A94: CC                       INT 3 
00486A95: CC                       INT 3 
00486A96: CC                       INT 3 
00486A97: CC                       INT 3 
00486A98: CC                       INT 3 
00486A99: CC                       INT 3 
00486A9A: CC                       INT 3 
00486A9B: CC                       INT 3 
00486A9C: CC                       INT 3 
00486A9D: CC                       INT 3 
00486A9E: CC                       INT 3 
00486A9F: CC                       INT 3 
00486AA0: 55                       PUSH EBP
00486AA1: 8BEC                     MOV EBP, ESP
00486AA3: 51                       PUSH ECX
00486AA4: 894DFC                   MOV [EBP-04H], ECX
00486AA7: 8B45FC                   MOV EAX, [EBP-04H]
00486AAA: 8B4D08                   MOV ECX, [EBP+08H]
00486AAD: 894804                   MOV [EAX+04H], ECX
00486AB0: 8B45FC                   MOV EAX, [EBP-04H]
00486AB3: 8BE5                     MOV ESP, EBP
00486AB5: 5D                       POP EBP
00486AB6: C20400                   RETN 0004H
00486AB9: CC                       INT 3 
00486ABA: CC                       INT 3 
00486ABB: CC                       INT 3 
00486ABC: CC                       INT 3 
00486ABD: CC                       INT 3 
00486ABE: CC                       INT 3 
00486ABF: CC                       INT 3 
00486AC0: 55                       PUSH EBP
00486AC1: 8BEC                     MOV EBP, ESP
00486AC3: 51                       PUSH ECX
00486AC4: 894DFC                   MOV [EBP-04H], ECX
00486AC7: 8B45FC                   MOV EAX, [EBP-04H]
00486ACA: 8BE5                     MOV ESP, EBP
00486ACC: 5D                       POP EBP
00486ACD: C20400                   RETN 0004H
00486AD0: 55                       PUSH EBP
00486AD1: 8BEC                     MOV EBP, ESP
00486AD3: 6AFF                     PUSH FFFFFFFFH
00486AD5: 68E0FF4D00               PUSH 004DFFE0H
00486ADA: 64A100000000             MOV EAX, FS:[00H]
00486AE0: 50                       PUSH EAX
00486AE1: 83EC18                   SUB ESP, 00000018H
00486AE4: 56                       PUSH ESI
00486AE5: A10CF05000               MOV EAX, [50F00CH]
00486AEA: 33C5                     XOR EAX, EBP
00486AEC: 50                       PUSH EAX
00486AED: 8D45F4                   LEA EAX, [EBP-0CH]
00486AF0: 64A300000000             MOV FS:[00H], EAX
00486AF6: 894DEC                   MOV [EBP-14H], ECX
00486AF9: 8B45EC                   MOV EAX, [EBP-14H]
00486AFC: 8B4804                   MOV ECX, [EAX+04H]
00486AFF: 8B55EC                   MOV EDX, [EBP-14H]
00486B02: 8B7204                   MOV ESI, [EDX+04H]
00486B05: 8B01                     MOV EAX, [ECX]
00486B07: 8B4808                   MOV ECX, [EAX+08H]
00486B0A: 894DE8                   MOV [EBP-18H], ECX
00486B0D: 8B4DE8                   MOV ECX, [EBP-18H]
00486B10: E88BF6FFFF               CALL 004861A0H
00486B15: 8BCE                     MOV ECX, ESI
00486B17: FF55E8                   CALL [EBP-18H]
00486B1A: 8945E0                   MOV [EBP-20H], EAX
00486B1D: 8B55E0                   MOV EDX, [EBP-20H]
00486B20: 8955F0                   MOV [EBP-10H], EDX
00486B23: 837DF000                 CMP [EBP-10H], 00000000H
00486B27: 741F                     JZ 486B48H
00486B29: 6A01                     PUSH 00000001H
00486B2B: 8B45F0                   MOV EAX, [EBP-10H]
00486B2E: 8B08                     MOV ECX, [EAX]
00486B30: 8B11                     MOV EDX, [ECX]
00486B32: 8955E4                   MOV [EBP-1CH], EDX
00486B35: 8B4DE4                   MOV ECX, [EBP-1CH]
00486B38: E863F6FFFF               CALL 004861A0H
00486B3D: 8B4DF0                   MOV ECX, [EBP-10H]
00486B40: FF55E4                   CALL [EBP-1CH]
00486B43: 8945DC                   MOV [EBP-24H], EAX
00486B46: EB07                     JMP 486B4FH
00486B48: C745DC00000000           MOV [EBP-24H], 00000000H
00486B4F: 8B4DF4                   MOV ECX, [EBP-0CH]
00486B52: 64890D00000000           MOV FS:[00000000H], ECX
00486B59: 59                       POP ECX
00486B5A: 5E                       POP ESI
00486B5B: 8BE5                     MOV ESP, EBP
00486B5D: 5D                       POP EBP
00486B5E: C3                       RET 
00486B5F: CC                       INT 3 
00486B60: 55                       PUSH EBP
00486B61: 8BEC                     MOV EBP, ESP
00486B63: 83EC14                   SUB ESP, 00000014H
00486B66: 894DEC                   MOV [EBP-14H], ECX
00486B69: 833DD81E510000           CMP [00511ED8H], 00000000H
00486B70: 743D                     JZ 486BAFH
00486B72: A1D81E5100               MOV EAX, [511ED8H]
00486B77: 8945FC                   MOV [EBP-04H], EAX
00486B7A: 8B4DFC                   MOV ECX, [EBP-04H]
00486B7D: 8B11                     MOV EDX, [ECX]
00486B7F: 8915D81E5100             MOV [00511ED8H], EDX
00486B85: 8B45FC                   MOV EAX, [EBP-04H]
00486B88: 8945F4                   MOV [EBP-0CH], EAX
00486B8B: 8B4DF4                   MOV ECX, [EBP-0CH]
00486B8E: 894DF8                   MOV [EBP-08H], ECX
00486B91: 837DF800                 CMP [EBP-08H], 00000000H
00486B95: 740F                     JZ 486BA6H
00486B97: 6A01                     PUSH 00000001H
00486B99: 8B4DF8                   MOV ECX, [EBP-08H]
00486B9C: E88F010000               CALL 00486D30H
00486BA1: 8945F0                   MOV [EBP-10H], EAX
00486BA4: EB07                     JMP 486BADH
00486BA6: C745F000000000           MOV [EBP-10H], 00000000H
00486BAD: EBBA                     JMP 486B69H
00486BAF: 8BE5                     MOV ESP, EBP
00486BB1: 5D                       POP EBP
00486BB2: C3                       RET 
00486BB3: CC                       INT 3 
00486BB4: CC                       INT 3 
00486BB5: CC                       INT 3 
00486BB6: CC                       INT 3 
00486BB7: CC                       INT 3 
00486BB8: CC                       INT 3 
00486BB9: CC                       INT 3 
00486BBA: CC                       INT 3 
00486BBB: CC                       INT 3 
00486BBC: CC                       INT 3 
00486BBD: CC                       INT 3 
00486BBE: CC                       INT 3 
00486BBF: CC                       INT 3 
00486BC0: 55                       PUSH EBP
00486BC1: 8BEC                     MOV EBP, ESP
00486BC3: 6AFF                     PUSH FFFFFFFFH
00486BC5: 6810D54D00               PUSH 004DD510H
00486BCA: 64A100000000             MOV EAX, FS:[00H]
00486BD0: 50                       PUSH EAX
00486BD1: 51                       PUSH ECX
00486BD2: A10CF05000               MOV EAX, [50F00CH]
00486BD7: 33C5                     XOR EAX, EBP
00486BD9: 50                       PUSH EAX
00486BDA: 8D45F4                   LEA EAX, [EBP-0CH]
00486BDD: 64A300000000             MOV FS:[00H], EAX
00486BE3: 894DF0                   MOV [EBP-10H], ECX
00486BE6: 8B45F0                   MOV EAX, [EBP-10H]
00486BE9: C7005C164E00             MOV [EAX], 004E165CH
00486BEF: 8B4DF0                   MOV ECX, [EBP-10H]
00486BF2: 51                       PUSH ECX
00486BF3: E808040000               CALL 00487000H
00486BF8: 83C404                   ADD ESP, 00000004H
00486BFB: 8B4DF0                   MOV ECX, [EBP-10H]
00486BFE: 83C118                   ADD ECX, 00000018H
00486C01: E87A30F8FF               CALL 00409C80H
00486C06: 8B4DF0                   MOV ECX, [EBP-10H]
00486C09: E852B9F7FF               CALL 00402560H
00486C0E: 8B4DF4                   MOV ECX, [EBP-0CH]
00486C11: 64890D00000000           MOV FS:[00000000H], ECX
00486C18: 59                       POP ECX
00486C19: 8BE5                     MOV ESP, EBP
00486C1B: 5D                       POP EBP
00486C1C: C3                       RET 
00486C1D: CC                       INT 3 
00486C1E: CC                       INT 3 
00486C1F: CC                       INT 3 
00486C20: 55                       PUSH EBP
00486C21: 8BEC                     MOV EBP, ESP
00486C23: 83EC08                   SUB ESP, 00000008H
00486C26: 837D0800                 CMP [EBP+08H], 00000000H
00486C2A: 7608                     JBE 486C34H
00486C2C: 8B4508                   MOV EAX, [EBP+08H]
00486C2F: 8945FC                   MOV [EBP-04H], EAX
00486C32: EB07                     JMP 486C3BH
00486C34: C745FC01000000           MOV [EBP-04H], 00000001H
00486C3B: 6A22                     PUSH 00000022H
00486C3D: 681C164E00               PUSH 004E161CH -> f:\dd\vctools\crt\crtw32\stdcpp\locale0.cpp
00486C42: 6A02                     PUSH 00000002H
00486C44: 8B4DFC                   MOV ECX, [EBP-04H]
00486C47: 51                       PUSH ECX
00486C48: E8F3310200               CALL 004A9E40H
00486C4D: 83C410                   ADD ESP, 00000010H
00486C50: 8945F8                   MOV [EBP-08H], EAX
00486C53: 837DF800                 CMP [EBP-08H], 00000000H
00486C57: 7505                     JNZ 486C5EH
00486C59: E862080000               CALL 004874C0H
00486C5E: 8B45F8                   MOV EAX, [EBP-08H]
00486C61: 8BE5                     MOV ESP, EBP
00486C63: 5D                       POP EBP
00486C64: C3                       RET 
00486C65: CC                       INT 3 
00486C66: CC                       INT 3 
00486C67: CC                       INT 3 
00486C68: CC                       INT 3 
00486C69: CC                       INT 3 
00486C6A: CC                       INT 3 
00486C6B: CC                       INT 3 
00486C6C: CC                       INT 3 
00486C6D: CC                       INT 3 
00486C6E: CC                       INT 3 
00486C6F: CC                       INT 3 
00486C70: 55                       PUSH EBP
00486C71: 8BEC                     MOV EBP, ESP
00486C73: 6A02                     PUSH 00000002H
00486C75: 8B4508                   MOV EAX, [EBP+08H]
00486C78: 50                       PUSH EAX
00486C79: E882300200               CALL 004A9D00H
00486C7E: 83C408                   ADD ESP, 00000008H
00486C81: 5D                       POP EBP
00486C82: C3                       RET 
00486C83: CC                       INT 3 
00486C84: CC                       INT 3 
00486C85: CC                       INT 3 
00486C86: CC                       INT 3 
00486C87: CC                       INT 3 
00486C88: CC                       INT 3 
00486C89: CC                       INT 3 
00486C8A: CC                       INT 3 
00486C8B: CC                       INT 3 
00486C8C: CC                       INT 3 
00486C8D: CC                       INT 3 
00486C8E: CC                       INT 3 
00486C8F: CC                       INT 3 
00486C90: 55                       PUSH EBP
00486C91: 8BEC                     MOV EBP, ESP
00486C93: 83EC0C                   SUB ESP, 0000000CH
00486C96: 894DF8                   MOV [EBP-08H], ECX
00486C99: 8B45F8                   MOV EAX, [EBP-08H]
00486C9C: 8B08                     MOV ECX, [EAX]
00486C9E: 3B4D08                   CMP ECX, [EBP+08H]
00486CA1: 7476                     JZ 486D19H
00486CA3: 8B4DF8                   MOV ECX, [EBP-08H]
00486CA6: E8D52FF8FF               CALL 00409C80H
00486CAB: 837D0800                 CMP [EBP+08H], 00000000H
00486CAF: 7468                     JZ 486D19H
00486CB1: 8B5508                   MOV EDX, [EBP+08H]
00486CB4: 8955FC                   MOV [EBP-04H], EDX
00486CB7: 8B45FC                   MOV EAX, [EBP-04H]
00486CBA: 0FBE08                   MOVSX ECX, BYTE PTR [EAX]
00486CBD: 85C9                     TEST ECX, ECX
00486CBF: 740B                     JZ 486CCCH
00486CC1: 8B55FC                   MOV EDX, [EBP-04H]
00486CC4: 83C201                   ADD EDX, 00000001H
00486CC7: 8955FC                   MOV [EBP-04H], EDX
00486CCA: EBEB                     JMP 486CB7H
00486CCC: 8B45FC                   MOV EAX, [EBP-04H]
00486CCF: 83C001                   ADD EAX, 00000001H
00486CD2: 8945FC                   MOV [EBP-04H], EAX
00486CD5: 8B4DFC                   MOV ECX, [EBP-04H]
00486CD8: 2B4D08                   SUB ECX, [EBP+08H]
00486CDB: 894DF4                   MOV [EBP-0CH], ECX
00486CDE: 682E0E0000               PUSH 00000E2EH
00486CE3: 686C164E00               PUSH 004E166CH -> f:\dd\vctools\crt\crtw32\stdhpp\xutility
00486CE8: 6A02                     PUSH 00000002H
00486CEA: 8B55F4                   MOV EDX, [EBP-0CH]
00486CED: 52                       PUSH EDX
00486CEE: E84D310200               CALL 004A9E40H
00486CF3: 83C410                   ADD ESP, 00000010H
00486CF6: 8B4DF8                   MOV ECX, [EBP-08H]
00486CF9: 8901                     MOV [ECX], EAX
00486CFB: 8B55F8                   MOV EDX, [EBP-08H]
00486CFE: 833A00                   CMP [EDX], 00000000H
00486D01: 7416                     JZ 486D19H
00486D03: 8B45F4                   MOV EAX, [EBP-0CH]
00486D06: 50                       PUSH EAX
00486D07: 8B4D08                   MOV ECX, [EBP+08H]
00486D0A: 51                       PUSH ECX
00486D0B: 8B55F8                   MOV EDX, [EBP-08H]
00486D0E: 8B02                     MOV EAX, [EDX]
00486D10: 50                       PUSH EAX
00486D11: E89A560000               CALL 0048C3B0H
00486D16: 83C40C                   ADD ESP, 0000000CH
00486D19: 8B45F8                   MOV EAX, [EBP-08H]
00486D1C: 8BE5                     MOV ESP, EBP
00486D1E: 5D                       POP EBP
00486D1F: C20400                   RETN 0004H
00486D22: CC                       INT 3 
00486D23: CC                       INT 3 
00486D24: CC                       INT 3 
00486D25: CC                       INT 3 
00486D26: CC                       INT 3 
00486D27: CC                       INT 3 
00486D28: CC                       INT 3 
00486D29: CC                       INT 3 
00486D2A: CC                       INT 3 
00486D2B: CC                       INT 3 
00486D2C: CC                       INT 3 
00486D2D: CC                       INT 3 
00486D2E: CC                       INT 3 
00486D2F: CC                       INT 3 
00486D30: 55                       PUSH EBP
00486D31: 8BEC                     MOV EBP, ESP
00486D33: 51                       PUSH ECX
00486D34: 894DFC                   MOV [EBP-04H], ECX
00486D37: 8B4DFC                   MOV ECX, [EBP-04H]
00486D3A: E891FDFFFF               CALL 00486AD0H
00486D3F: 8B4508                   MOV EAX, [EBP+08H]
00486D42: 83E001                   AND EAX, 00000001H
00486D45: 7424                     JZ 486D6BH
00486D47: 8B4D08                   MOV ECX, [EBP+08H]
00486D4A: 83E104                   AND ECX, 00000004H
00486D4D: 750E                     JNZ 486D5DH
00486D4F: 8B55FC                   MOV EDX, [EBP-04H]
00486D52: 52                       PUSH EDX
00486D53: E818FFFFFF               CALL 00486C70H
00486D58: 83C404                   ADD ESP, 00000004H
00486D5B: EB0E                     JMP 486D6BH
00486D5D: 6A08                     PUSH 00000008H
00486D5F: 8B45FC                   MOV EAX, [EBP-04H]
00486D62: 50                       PUSH EAX
00486D63: E8B8B3F7FF               CALL 00402120H
00486D68: 83C408                   ADD ESP, 00000008H
00486D6B: 8B45FC                   MOV EAX, [EBP-04H]
00486D6E: 8BE5                     MOV ESP, EBP
00486D70: 5D                       POP EBP
00486D71: C20400                   RETN 0004H
00486D74: CC                       INT 3 
00486D75: CC                       INT 3 
00486D76: CC                       INT 3 
00486D77: CC                       INT 3 
00486D78: CC                       INT 3 
00486D79: CC                       INT 3 
00486D7A: CC                       INT 3 
00486D7B: CC                       INT 3 
00486D7C: CC                       INT 3 
00486D7D: CC                       INT 3 
00486D7E: CC                       INT 3 
00486D7F: CC                       INT 3 
00486D80: 55                       PUSH EBP
00486D81: 8BEC                     MOV EBP, ESP
00486D83: 51                       PUSH ECX
00486D84: 894DFC                   MOV [EBP-04H], ECX
00486D87: 8B4DFC                   MOV ECX, [EBP-04H]
00486D8A: E831FEFFFF               CALL 00486BC0H
00486D8F: 8B4508                   MOV EAX, [EBP+08H]
00486D92: 83E001                   AND EAX, 00000001H
00486D95: 7424                     JZ 486DBBH
00486D97: 8B4D08                   MOV ECX, [EBP+08H]
00486D9A: 83E104                   AND ECX, 00000004H
00486D9D: 750E                     JNZ 486DADH
00486D9F: 8B55FC                   MOV EDX, [EBP-04H]
00486DA2: 52                       PUSH EDX
00486DA3: E848B7F7FF               CALL 004024F0H
00486DA8: 83C404                   ADD ESP, 00000004H
00486DAB: EB0E                     JMP 486DBBH
00486DAD: 6A20                     PUSH 00000020H
00486DAF: 8B45FC                   MOV EAX, [EBP-04H]
00486DB2: 50                       PUSH EAX
00486DB3: E868B3F7FF               CALL 00402120H
00486DB8: 83C408                   ADD ESP, 00000008H
00486DBB: 8B45FC                   MOV EAX, [EBP-04H]
00486DBE: 8BE5                     MOV ESP, EBP
00486DC0: 5D                       POP EBP
00486DC1: C20400                   RETN 0004H
00486DC4: CC                       INT 3 
00486DC5: CC                       INT 3 
00486DC6: CC                       INT 3 
00486DC7: CC                       INT 3 
00486DC8: CC                       INT 3 
00486DC9: CC                       INT 3 
00486DCA: CC                       INT 3 
00486DCB: CC                       INT 3 
00486DCC: CC                       INT 3 
00486DCD: CC                       INT 3 
00486DCE: CC                       INT 3 
00486DCF: CC                       INT 3 
00486DD0: 55                       PUSH EBP
00486DD1: 8BEC                     MOV EBP, ESP
00486DD3: 83EC08                   SUB ESP, 00000008H
00486DD6: 894DFC                   MOV [EBP-04H], ECX
00486DD9: 8B45FC                   MOV EAX, [EBP-04H]
00486DDC: 833800                   CMP [EAX], 00000000H
00486DDF: 740A                     JZ 486DEBH
00486DE1: 8B4DFC                   MOV ECX, [EBP-04H]
00486DE4: 8B11                     MOV EDX, [ECX]
00486DE6: 8955F8                   MOV [EBP-08H], EDX
00486DE9: EB09                     JMP 486DF4H
00486DEB: 8B45FC                   MOV EAX, [EBP-04H]
00486DEE: 83C004                   ADD EAX, 00000004H
00486DF1: 8945F8                   MOV [EBP-08H], EAX
00486DF4: 8B45F8                   MOV EAX, [EBP-08H]
00486DF7: 8BE5                     MOV ESP, EBP
00486DF9: 5D                       POP EBP
00486DFA: C3                       RET 
00486DFB: CC                       INT 3 
00486DFC: CC                       INT 3 
00486DFD: CC                       INT 3 
00486DFE: CC                       INT 3 
00486DFF: CC                       INT 3 
00486E00: 55                       PUSH EBP
00486E01: 8BEC                     MOV EBP, ESP
00486E03: 83EC08                   SUB ESP, 00000008H
00486E06: 894DF8                   MOV [EBP-08H], ECX
00486E09: 8B45F8                   MOV EAX, [EBP-08H]
00486E0C: 833800                   CMP [EAX], 00000000H
00486E0F: 7509                     JNZ 486E1AH
00486E11: C745FC01000000           MOV [EBP-04H], 00000001H
00486E18: EB07                     JMP 486E21H
00486E1A: C745FC00000000           MOV [EBP-04H], 00000000H
00486E21: 8A45FC                   MOV AL, [EBP-04H]
00486E24: 8BE5                     MOV ESP, EBP
00486E26: 5D                       POP EBP
00486E27: C3                       RET 
00486E28: CC                       INT 3 
00486E29: CC                       INT 3 
00486E2A: CC                       INT 3 
00486E2B: CC                       INT 3 
00486E2C: CC                       INT 3 
00486E2D: CC                       INT 3 
00486E2E: CC                       INT 3 
00486E2F: CC                       INT 3 
00486E30: 55                       PUSH EBP
00486E31: 8BEC                     MOV EBP, ESP
00486E33: 6AFF                     PUSH FFFFFFFFH
00486E35: 680B004E00               PUSH 004E000BH
00486E3A: 64A100000000             MOV EAX, FS:[00H]
00486E40: 50                       PUSH EAX
00486E41: 83EC0C                   SUB ESP, 0000000CH
00486E44: A10CF05000               MOV EAX, [50F00CH]
00486E49: 33C5                     XOR EAX, EBP
00486E4B: 50                       PUSH EAX
00486E4C: 8D45F4                   LEA EAX, [EBP-0CH]
00486E4F: 64A300000000             MOV FS:[00H], EAX
00486E55: 6A08                     PUSH 00000008H
00486E57: E8C4FDFFFF               CALL 00486C20H
00486E5C: 83C404                   ADD ESP, 00000004H
00486E5F: 8945F0                   MOV [EBP-10H], EAX
00486E62: C745FC00000000           MOV [EBP-04H], 00000000H
00486E69: 837DF000                 CMP [EBP-10H], 00000000H
00486E6D: 7418                     JZ 486E87H
00486E6F: 8B4508                   MOV EAX, [EBP+08H]
00486E72: 50                       PUSH EAX
00486E73: 8B0DD81E5100             MOV ECX, [00511ED8H]
00486E79: 51                       PUSH ECX
00486E7A: 8B4DF0                   MOV ECX, [EBP-10H]
00486E7D: E84EFBFFFF               CALL 004869D0H
00486E82: 8945EC                   MOV [EBP-14H], EAX
00486E85: EB07                     JMP 486E8EH
00486E87: C745EC00000000           MOV [EBP-14H], 00000000H
00486E8E: 8B55EC                   MOV EDX, [EBP-14H]
00486E91: 8955E8                   MOV [EBP-18H], EDX
00486E94: C745FCFFFFFFFF           MOV [EBP-04H], FFFFFFFFH
00486E9B: 8B45E8                   MOV EAX, [EBP-18H]
00486E9E: A3D81E5100               MOV [511ED8H], EAX
00486EA3: 8B4DF4                   MOV ECX, [EBP-0CH]
00486EA6: 64890D00000000           MOV FS:[00000000H], ECX
00486EAD: 59                       POP ECX
00486EAE: 8BE5                     MOV ESP, EBP
00486EB0: 5D                       POP EBP
00486EB1: C3                       RET 
00486EB2: CC                       INT 3 
00486EB3: CC                       INT 3 
00486EB4: CC                       INT 3 
00486EB5: CC                       INT 3 
00486EB6: CC                       INT 3 
00486EB7: CC                       INT 3 
00486EB8: CC                       INT 3 
00486EB9: CC                       INT 3 
00486EBA: CC                       INT 3 
00486EBB: CC                       INT 3 
00486EBC: CC                       INT 3 
00486EBD: CC                       INT 3 
00486EBE: CC                       INT 3 
00486EBF: CC                       INT 3 
00486EC0: 55                       PUSH EBP
00486EC1: 8BEC                     MOV EBP, ESP
00486EC3: A1DC1E5100               MOV EAX, [511EDCH]
00486EC8: 5D                       POP EBP
00486EC9: C3                       RET 
00486ECA: CC                       INT 3 
00486ECB: CC                       INT 3 
00486ECC: CC                       INT 3 
00486ECD: CC                       INT 3 
00486ECE: CC                       INT 3 
00486ECF: CC                       INT 3 
00486ED0: 55                       PUSH EBP
00486ED1: 8BEC                     MOV EBP, ESP
00486ED3: 6AFF                     PUSH FFFFFFFFH
00486ED5: 684A004E00               PUSH 004E004AH
00486EDA: 64A100000000             MOV EAX, FS:[00H]
00486EE0: 50                       PUSH EAX
00486EE1: 83EC1C                   SUB ESP, 0000001CH
00486EE4: A10CF05000               MOV EAX, [50F00CH]
00486EE9: 33C5                     XOR EAX, EBP
00486EEB: 50                       PUSH EAX
00486EEC: 8D45F4                   LEA EAX, [EBP-0CH]
00486EEF: 64A300000000             MOV FS:[00H], EAX
00486EF5: C745F000000000           MOV [EBP-10H], 00000000H
00486EFC: 6A00                     PUSH 00000000H
00486EFE: 8D4DDC                   LEA ECX, [EBP-24H]
00486F01: E8BAF9FFFF               CALL 004868C0H
00486F06: C745FC00000000           MOV [EBP-04H], 00000000H
00486F0D: E8AEFFFFFF               CALL 00486EC0H
00486F12: 8945F0                   MOV [EBP-10H], EAX
00486F15: 837DF000                 CMP [EBP-10H], 00000000H
00486F19: 0F859A000000             JNZ 00486FB9H
00486F1F: 6A00                     PUSH 00000000H
00486F21: E88A020000               CALL 004871B0H
00486F26: 83C404                   ADD ESP, 00000004H
00486F29: 8945F0                   MOV [EBP-10H], EAX
00486F2C: 8B45F0                   MOV EAX, [EBP-10H]
00486F2F: 50                       PUSH EAX
00486F30: E8FB020000               CALL 00487230H
00486F35: 83C404                   ADD ESP, 00000004H
00486F38: 8B4DF0                   MOV ECX, [EBP-10H]
00486F3B: C741103F000000           MOV [ECX+10H], 0000003FH
