00401140: 55                       PUSH EBP
00401141: 89E5                     MOV EBP, ESP
00401143: 83EC18                   SUB ESP, 00000018H
00401146: C7042402000000           MOV [ESP], 00000002H
0040114D: FF1558114100             CALL [00411158H] ; __set_app_type
00401153: E8C8FEFFFF               CALL 00401020H
00401158: 90                       NOP 
00401159: 8DB42600000000           LEA ESI, [ESI+]
00401160: 55                       PUSH EBP
00401161: 89E5                     MOV EBP, ESP
00401163: 83EC18                   SUB ESP, 00000018H
00401166: C7042401000000           MOV [ESP], 00000001H
0040116D: FF1558114100             CALL [00411158H] ; __set_app_type
00401173: E8A8FEFFFF               CALL 00401020H
00401178: 90                       NOP 
00401179: 8DB42600000000           LEA ESI, [ESI+]
00401180: 55                       PUSH EBP
00401181: 89E5                     MOV EBP, ESP
00401183: 53                       PUSH EBX
00401184: 83EC14                   SUB ESP, 00000014H
00401187: 8B4508                   MOV EAX, [EBP+08H]
0040118A: 8B00                     MOV EAX, [EAX]
0040118C: 8B00                     MOV EAX, [EAX]
0040118E: 3D910000C0               CMP EAX, C0000091H
00401193: 773B                     JNBE 4011D0H
00401195: 3D8D0000C0               CMP EAX, C000008DH
0040119A: 724B                     JB 4011E7H
0040119C: BB01000000               MOV EBX, 00000001H
004011A1: C744240400000000         MOV [ESP+04H], 00000000H
004011A9: C7042408000000           MOV [ESP], 00000008H
004011B0: E8E31E0000               CALL 00403098H
004011B5: 83F801                   CMP EAX, 00000001H
004011B8: 0F84F1000000             JZ 004012AFH
004011BE: 85C0                     TEST EAX, EAX
004011C0: 0F859E000000             JNZ 00401264H
004011C6: 31C0                     XOR EAX, EAX
004011C8: 83C414                   ADD ESP, 00000014H
004011CB: 5B                       POP EBX
004011CC: 5D                       POP EBP
004011CD: C20400                   RETN 0004H
004011D0: 3D940000C0               CMP EAX, C0000094H
004011D5: 744B                     JZ 401222H
004011D7: 3D960000C0               CMP EAX, C0000096H
004011DC: 7417                     JZ 4011F5H
004011DE: 3D930000C0               CMP EAX, C0000093H
004011E3: 75E1                     JNZ 4011C6H
004011E5: EBB5                     JMP 40119CH
004011E7: 3D050000C0               CMP EAX, C0000005H
004011EC: 7442                     JZ 401230H
004011EE: 3D1D0000C0               CMP EAX, C000001DH
004011F3: 75D1                     JNZ 4011C6H
004011F5: C744240400000000         MOV [ESP+04H], 00000000H
004011FD: C7042404000000           MOV [ESP], 00000004H
00401204: E88F1E0000               CALL 00403098H
00401209: 83F801                   CMP EAX, 00000001H
0040120C: 7469                     JZ 401277H
0040120E: 85C0                     TEST EAX, EAX
00401210: 74B4                     JZ 4011C6H
00401212: C7042404000000           MOV [ESP], 00000004H
00401219: FFD0                     CALL EAX
0040121B: B8FFFFFFFF               MOV EAX, FFFFFFFFH
00401220: EBA6                     JMP 4011C8H
00401222: 31DB                     XOR EBX, EBX
00401224: E978FFFFFF               JMP 004011A1H
00401229: 8DB42600000000           LEA ESI, [ESI+]
00401230: C744240400000000         MOV [ESP+04H], 00000000H
00401238: C704240B000000           MOV [ESP], 0000000BH
0040123F: E8541E0000               CALL 00403098H
00401244: 83F801                   CMP EAX, 00000001H
00401247: 744A                     JZ 401293H
00401249: 85C0                     TEST EAX, EAX
0040124B: 0F8475FFFFFF             JZ 004011C6H
00401251: C704240B000000           MOV [ESP], 0000000BH
00401258: FFD0                     CALL EAX
0040125A: B8FFFFFFFF               MOV EAX, FFFFFFFFH
0040125F: E964FFFFFF               JMP 004011C8H
00401264: C7042408000000           MOV [ESP], 00000008H
0040126B: FFD0                     CALL EAX
0040126D: B8FFFFFFFF               MOV EAX, FFFFFFFFH
00401272: E951FFFFFF               JMP 004011C8H
00401277: C744240401000000         MOV [ESP+04H], 00000001H
0040127F: C7042404000000           MOV [ESP], 00000004H
00401286: E80D1E0000               CALL 00403098H
0040128B: 83C8FF                   OR EAX, FFFFFFFFH
0040128E: E935FFFFFF               JMP 004011C8H
00401293: C744240401000000         MOV [ESP+04H], 00000001H
0040129B: C704240B000000           MOV [ESP], 0000000BH
004012A2: E8F11D0000               CALL 00403098H
004012A7: 83C8FF                   OR EAX, FFFFFFFFH
004012AA: E919FFFFFF               JMP 004011C8H
004012AF: C744240401000000         MOV [ESP+04H], 00000001H
004012B7: C7042408000000           MOV [ESP], 00000008H
004012BE: E8D51D0000               CALL 00403098H
004012C3: 85DB                     TEST EBX, EBX
004012C5: 750A                     JNZ 4012D1H
004012C7: B8FFFFFFFF               MOV EAX, FFFFFFFFH
004012CC: E9F7FEFFFF               JMP 004011C8H
004012D1: E87A1B0000               CALL 00402E50H
004012D6: EBEF                     JMP 4012C7H
004012D8: 90                       NOP 
004012D9: 90                       NOP 
004012DA: 90                       NOP 
004012DB: 90                       NOP 
004012DC: 90                       NOP 
004012DD: 90                       NOP 
004012DE: 90                       NOP 
004012DF: 90                       NOP 
004012E0: 55                       PUSH EBP
004012E1: 89E5                     MOV EBP, ESP
004012E3: 83EC18                   SUB ESP, 00000018H
004012E6: A1A0F34000               MOV EAX, [40F3A0H]
004012EB: 85C0                     TEST EAX, EAX
004012ED: 743A                     JZ 401329H
004012EF: C704247CF24000           MOV [ESP], 0040F27CH
004012F6: E8051E0000               CALL 00403100H
004012FB: 89C2                     MOV EDX, EAX
004012FD: 83EC04                   SUB ESP, 00000004H
00401300: 85D2                     TEST EDX, EDX
00401302: B800000000               MOV EAX, 00000000H
00401307: 7413                     JZ 40131CH
00401309: C744240489F24000         MOV [ESP+04H], 0040F289H
00401311: 891424                   MOV [ESP], EDX
00401314: E8EF1D0000               CALL 00403108H
00401319: 83EC08                   SUB ESP, 00000008H
0040131C: 85C0                     TEST EAX, EAX
0040131E: 7409                     JZ 401329H
00401320: C70424A0F34000           MOV [ESP], 0040F3A0H
00401327: FFD0                     CALL EAX
00401329: C9                       LEAVE 
0040132A: C3                       RET 
0040132B: 90                       NOP 
0040132C: 8D742600                 LEA ESI, [ESI+]
00401330: 55                       PUSH EBP
00401331: 89E5                     MOV EBP, ESP
00401333: 5D                       POP EBP
00401334: C3                       RET 
00401335: 90                       NOP 
00401336: 90                       NOP 
00401337: 90                       NOP 
00401338: 90                       NOP 
00401339: 90                       NOP 
0040133A: 90                       NOP 
0040133B: 90                       NOP 
0040133C: 90                       NOP 
0040133D: 90                       NOP 
0040133E: 90                       NOP 
0040133F: 90                       NOP 
00401340: 55                       PUSH EBP
00401341: 89E5                     MOV EBP, ESP
00401343: 83EC10                   SUB ESP, 00000010H
00401346: C745F800000000           MOV [EBP-08H], 00000000H
0040134D: E93F020000               JMP 00401591H
00401352: 101500000000             ADC [00000000H], DL
00401358: 67001C                   ADD [SI], BL
0040135B: 67660B00                 OR AX, [BX+SI]
0040135F: 670000                   ADD [BX+SI], AL
00401362: 670000                   ADD [BX+SI], AL
00401365: 101500000000             ADC [00000000H], DL
0040136B: 670000                   ADD [BX+SI], AL
0040136E: 6654                     PUSH SP
00401370: 670002                   ADD [BP+SI], AL
00401373: 6650                     PUSH AX
00401375: 671000                   ADC [BX+SI], AL
00401378: 6766F01307               LOCK ADC AX, [BX]
0040137D: 67660B00                 OR AX, [BX+SI]
00401381: 67660B00                 OR AX, [BX+SI]
00401385: 6693                     XCHG BX, AX
00401387: 101500000000             ADC [00000000H], DL
0040138D: 6766F01307               LOCK ADC AX, [BX]
00401392: 00C4                     ADD AH, AL
00401394: 67660100                 ADD [BX+SI], AX
00401398: 671000                   ADC [BX+SI], AL
0040139B: 670002                   ADD [BP+SI], AL
0040139E: 671007                   ADC [BX], AL
004013A1: 67001C                   ADD [SI], BL
004013A4: 671A05                   SBB AL, [DI]
004013A7: 0E                       PUSH CS
004013A8: 670000                   ADD [BX+SI], AL
004013AB: 6700720E                 ADD [BP+SI+0EH], DH
004013AF: 671000                   ADC [BX+SI], AL
004013B2: 6650                     PUSH AX
004013B4: 6766130C                 ADC CX, [SI]
004013B8: 670038                   ADD [BX+SI], BH
004013BB: 6654                     PUSH SP
004013BD: 670F0000                 SLDT WORD PTR [EAX]
004013C1: 671000                   ADC [BX+SI], AL
004013C4: 671000                   ADC [BX+SI], AL
004013C7: 6766F01307               LOCK ADC AX, [BX]
004013CC: 67660B00                 OR AX, [BX+SI]
004013D0: 670F0000                 SLDT WORD PTR [EAX]
004013D4: 670013                   ADD [BP+DI], DL
004013D7: 6657                     PUSH DI
004013D9: 67660B00                 OR AX, [BX+SI]
004013DD: 6700720E                 ADD [BP+SI+0EH], DH
004013E1: 6693                     XCHG BX, AX
004013E3: 671007                   ADC [BX], AL
004013E6: 670013                   ADD [BP+DI], DL
004013E9: 67660100                 ADD [BX+SI], AX
004013ED: 670000                   ADD [BX+SI], AL
004013F0: 670000                   ADD [BX+SI], AL
004013F3: 670010                   ADD [BX+SI], DL
004013F6: 670070FA                 ADD [BX+SI-06H], DH
004013FA: 6766130C                 ADC CX, [SI]
004013FE: 671007                   ADC [BX], AL
00401401: 6654                     PUSH SP
00401403: 101500000000             ADC [00000000H], DL
00401409: 670F0000                 SLDT WORD PTR [EAX]
0040140D: 670000                   ADD [BX+SI], AL
00401410: 670F0000                 SLDT WORD PTR [EAX]
00401414: 670000                   ADD [BX+SI], AL
00401417: 671800                   SBB [BX+SI], AL
0040141A: 6650                     PUSH AX
0040141C: 670002                   ADD [BP+SI], AL
0040141F: 67660100                 ADD [BX+SI], AX
00401423: 670000                   ADD [BX+SI], AL
00401426: 67661905                 SBB [DI], AX
0040142A: 670000                   ADD [BX+SI], AL
0040142D: 6650                     PUSH AX
0040142F: 670F0000                 SLDT WORD PTR [EAX]
00401433: 671000                   ADC [BX+SI], AL
00401436: 670000                   ADD [BX+SI], AL
00401439: 670000                   ADD [BX+SI], AL
0040143C: 101500000000             ADC [00000000H], DL
00401442: 67660B00                 OR AX, [BX+SI]
00401446: 670038                   ADD [BX+SI], BH
00401449: 67001C                   ADD [SI], BL
0040144C: 101500000000             ADC [00000000H], DL
00401452: 670010                   ADD [BX+SI], DL
00401455: 0E                       PUSH CS
00401456: 670000                   ADD [BX+SI], AL
00401459: 0E                       PUSH CS
0040145A: 670000                   ADD [BX+SI], AL
0040145D: 671A05                   SBB AL, [DI]
00401460: 670038                   ADD [BX+SI], BH
00401463: 670000                   ADD [BX+SI], AL
00401466: 0E                       PUSH CS
00401467: 6650                     PUSH AX
00401469: 670F0000                 SLDT WORD PTR [EAX]
0040146D: 6657                     PUSH DI
0040146F: 6766F01307               LOCK ADC AX, [BX]
00401474: 670000                   ADD [BX+SI], AL
00401477: 670013                   ADD [BP+DI], DL
0040147A: 670000                   ADD [BX+SI], AL
0040147D: 0E                       PUSH CS
0040147E: 671000                   ADC [BX+SI], AL
00401481: 670002                   ADD [BP+SI], AL
00401484: 67661905                 SBB [DI], AX
00401488: 670000                   ADD [BX+SI], AL
0040148B: 0E                       PUSH CS
0040148C: 670013                   ADD [BP+DI], DL
0040148F: 67001C                   ADD [SI], BL
00401492: 6650                     PUSH AX
00401494: 0E                       PUSH CS
00401495: 6693                     XCHG BX, AX
00401497: 6700720E                 ADD [BP+SI+0EH], DH
0040149B: 6766F01307               LOCK ADC AX, [BX]
004014A0: 670000                   ADD [BX+SI], AL
004014A3: 67660B00                 OR AX, [BX+SI]
004014A7: 670038                   ADD [BX+SI], BH
004014AA: 6693                     XCHG BX, AX
004014AC: 670038                   ADD [BX+SI], BH
004014AF: 6650                     PUSH AX
004014B1: 67660B00                 OR AX, [BX+SI]
004014B5: 6657                     PUSH DI
004014B7: 67001C                   ADD [SI], BL
004014BA: 670010                   ADD [BX+SI], DL
004014BD: 0E                       PUSH CS
004014BE: 101500000000             ADC [00000000H], DL
004014C4: 670070FA                 ADD [BX+SI-06H], DH
004014C8: 837DE800                 CMP [EBP-18H], 00000000H
004014CC: 741C                     JZ 4014EAH
004014CE: C7442408AAF24000         MOV [ESP+08H], 0040F2AAH
004014D6: C7442404A0F24000         MOV [ESP+04H], 0040F2A0H
004014DE: C7042400404000           MOV [ESP], 00404000H
004014E5: 8B45E8                   MOV EAX, [EBP-18H]
004014E8: FFD0                     CALL EAX
004014EA: EB67                     JMP 401553H
004014EC: 8955D4                   MOV [EBP-2CH], EDX
004014EF: B860404000               MOV EAX, 00404060H
004014F4: 83C01E                   ADD EAX, 0000001EH
004014F7: 0FB700                   MOVZX EAX, WORD PTR [EAX]
004014FA: 668945DA                 MOV [EBP-26H], AX
004014FE: B860404000               MOV EAX, 00404060H
00401503: 83C018                   ADD EAX, 00000018H
00401506: E9CD000000               JMP 004015D8H
0040150B: C745E400000000           MOV [EBP-1CH], 00000000H
00401512: C745F000000000           MOV [EBP-10H], 00000000H
00401519: E925010000               JMP 00401643H
0040151E: 8B45E0                   MOV EAX, [EBP-20H]
00401521: 890424                   MOV [ESP], EAX
00401524: E8C2080000               CALL 00401DEBH
00401529: 8945EC                   MOV [EBP-14H], EAX
0040152C: C744240401000000         MOV [ESP+04H], 00000001H
00401534: EB65                     JMP 40159BH
00401536: E8651B0000               CALL 004030A0H
0040153B: 8945E0                   MOV [EBP-20H], EAX
0040153E: EBCB                     JMP 40150BH
00401540: 890424                   MOV [ESP], EAX
00401543: E8F8FDFFFF               CALL 00401340H
00401548: 8B45E0                   MOV EAX, [EBP-20H]
0040154B: 8B55F0                   MOV EDX, [EBP-10H]
0040154E: C1E203                   SHL EDX, 03H
00401551: EB2E                     JMP 401581H
00401553: B800000000               MOV EAX, 00000000H
00401558: 83C450                   ADD ESP, 00000050H
0040155B: 5B                       POP EBX
0040155C: 5E                       POP ESI
0040155D: EB10                     JMP 40156FH
0040155F: 8B55D4                   MOV EDX, [EBP-2CH]
00401562: 8B5DC0                   MOV EBX, [EBP-40H]
00401565: EB55                     JMP 4015BCH
00401567: 752D                     JNZ 401596H
00401569: C9                       LEAVE 
0040156A: E906010000               JMP 00401675H
0040156F: 5D                       POP EBP
00401570: EB3C                     JMP 4015AEH
00401572: 8045FF04                 ADD BYTE PTR [EBP-01H], 04H
00401576: 8B5508                   MOV EDX, [EBP+08H]
00401579: 8B45F8                   MOV EAX, [EBP-08H]
0040157C: E9A8000000               JMP 00401629H
00401581: 8D0C10                   LEA ECX, [EAX+EDX]
00401584: B860404000               MOV EAX, 00404060H
00401589: 8B55F4                   MOV EDX, [EBP-0CH]
0040158C: E9CC000000               JMP 0040165DH
00401591: E99F000000               JMP 00401635H
00401596: 8B5508                   MOV EDX, [EBP+08H]
00401599: EB50                     JMP 4015EBH
0040159B: 8B45EC                   MOV EAX, [EBP-14H]
0040159E: 890424                   MOV [ESP], EAX
004015A1: E8010F0000               CALL 004024A7H
004015A6: 8945E8                   MOV [EBP-18H], EAX
004015A9: E91AFFFFFF               JMP 004014C8H
004015AE: C20400                   RETN 0004H
004015B1: 55                       PUSH EBP
004015B2: 89E5                     MOV EBP, ESP
004015B4: 83EC28                   SUB ESP, 00000028H
004015B7: E9D2000000               JMP 0040168EH
004015BC: 31C3                     XOR EBX, EAX
004015BE: 8B75C4                   MOV ESI, [EBP-3CH]
004015C1: 31D6                     XOR ESI, EDX
004015C3: EB0F                     JMP 4015D4H
004015C5: 3B45DC                   CMP EAX, [EBP-24H]
004015C8: 0F9CC0                   SETL AL
004015CB: 84C0                     TEST AL, AL
004015CD: 757D                     JNZ 40164CH
004015CF: E94AFFFFFF               JMP 0040151EH
004015D4: 8919                     MOV [ECX], EBX
004015D6: EB26                     JMP 4015FEH
004015D8: 8B00                     MOV EAX, [EAX]
004015DA: 8945DC                   MOV [EBP-24H], EAX
004015DD: 8B45DC                   MOV EAX, [EBP-24H]
004015E0: C1E003                   SHL EAX, 03H
004015E3: 890424                   MOV [ESP], EAX
004015E6: E94BFFFFFF               JMP 00401536H
004015EB: 8B45F8                   MOV EAX, [EBP-08H]
004015EE: 8D0402                   LEA EAX, [EDX+EAX]
004015F1: 0FB600                   MOVZX EAX, BYTE PTR [EAX]
004015F4: EB00                     JMP 4015F6H
004015F6: 8845FF                   MOV [EBP-01H], AL
004015F9: E974FFFFFF               JMP 00401572H
004015FE: 897104                   MOV [ECX+04H], ESI
00401601: 8345F001                 ADD [EBP-10H], 00000001H
00401605: 8345F401                 ADD [EBP-0CH], 00000001H
00401609: 8B45F0                   MOV EAX, [EBP-10H]
0040160C: EBB7                     JMP 4015C5H
0040160E: 66C745DA0000             MOV WORD PTR [EBP-26H], 0000H
00401614: B860404000               MOV EAX, 00404060H
00401619: 83C010                   ADD EAX, 00000010H
0040161C: 8B5004                   MOV EDX, [EAX+04H]
0040161F: 8B00                     MOV EAX, [EAX]
00401621: 8945D0                   MOV [EBP-30H], EAX
00401624: E9C3FEFFFF               JMP 004014ECH
00401629: 01C2                     ADD EDX, EAX
0040162B: 0FB645FF                 MOVZX EAX, BYTE PTR [EBP-01H]
0040162F: 8802                     MOV [EDX], AL
00401631: 8345F801                 ADD [EBP-08H], 00000001H
00401635: 837DF807                 CMP [EBP-08H], 00000007H
00401639: 0F9EC0                   SETLE AL
0040163C: 84C0                     TEST AL, AL
0040163E: E924FFFFFF               JMP 00401567H
00401643: C745F400000000           MOV [EBP-0CH], 00000000H
0040164A: EBBD                     JMP 401609H
0040164C: 837DF402                 CMP [EBP-0CH], 00000002H
00401650: 7503                     JNZ 401655H
00401652: D165F4                   SHL [EBP-0CH], 01H
00401655: 8D45D0                   LEA EAX, [EBP-30H]
00401658: E9E3FEFFFF               JMP 00401540H
0040165D: C1E203                   SHL EDX, 03H
00401660: 01D0                     ADD EAX, EDX
00401662: 8B18                     MOV EBX, [EAX]
00401664: 8B7004                   MOV ESI, [EAX+04H]
00401667: 895DC0                   MOV [EBP-40H], EBX
0040166A: 8975C4                   MOV [EBP-3CH], ESI
0040166D: 8B45D0                   MOV EAX, [EBP-30H]
00401670: E9EAFEFFFF               JMP 0040155FH
00401675: C3                       RET 
00401676: 55                       PUSH EBP
00401677: 89E5                     MOV EBP, ESP
00401679: 56                       PUSH ESI
0040167A: 53                       PUSH EBX
0040167B: 83EC50                   SUB ESP, 00000050H
0040167E: C745D000000000           MOV [EBP-30H], 00000000H
00401685: C745D400000000           MOV [EBP-2CH], 00000000H
0040168C: EB80                     JMP 40160EH
0040168E: C7042400000000           MOV [ESP], 00000000H
00401695: E8DCFFFFFF               CALL 00401676H
0040169A: 83EC04                   SUB ESP, 00000004H
0040169D: 8945F4                   MOV [EBP-0CH], EAX
004016A0: B800000000               MOV EAX, 00000000H
004016A5: C9                       LEAVE 
004016A6: C21000                   RETN 0010H
004016A9: 90                       NOP 
004016AA: 90                       NOP 
004016AB: 90                       NOP 
004016AC: 55                       PUSH EBP
004016AD: 89E5                     MOV EBP, ESP
004016AF: 8B4508                   MOV EAX, [EBP+08H]
004016B2: 8B00                     MOV EAX, [EAX]
004016B4: E9CA0B0000               JMP 00402283H
004016B9: 671000                   ADC [BX+SI], AL
004016BC: 670000                   ADD [BX+SI], AL
004016BF: 671A05                   SBB AL, [DI]
004016C2: 101500000000             ADC [00000000H], DL
004016C8: 0E                       PUSH CS
004016C9: 67660100                 ADD [BX+SI], AX
004016CD: 671A05                   SBB AL, [DI]
004016D0: 670000                   ADD [BX+SI], AL
004016D3: 670000                   ADD [BX+SI], AL
004016D6: 670038                   ADD [BX+SI], BH
004016D9: 670000                   ADD [BX+SI], AL
004016DC: 670020                   ADD [BX+SI], AH
004016DF: 670000                   ADD [BX+SI], AL
004016E2: 67660B00                 OR AX, [BX+SI]
004016E6: 670010                   ADD [BX+SI], DL
004016E9: 670070FA                 ADD [BX+SI-06H], DH
004016ED: 671007                   ADC [BX], AL
004016F0: 670000                   ADD [BX+SI], AL
004016F3: 6657                     PUSH DI
004016F5: 67660100                 ADD [BX+SI], AX
004016F9: 670013                   ADD [BP+DI], DL
004016FC: 0E                       PUSH CS
004016FD: 6766F01307               LOCK ADC AX, [BX]
00401702: 6766F01307               LOCK ADC AX, [BX]
00401707: 670000                   ADD [BX+SI], AL
0040170A: 67660B00                 OR AX, [BX+SI]
0040170E: 101500000000             ADC [00000000H], DL
00401714: 670000                   ADD [BX+SI], AL
00401717: 670070FA                 ADD [BX+SI-06H], DH
0040171B: 670002                   ADD [BP+SI], AL
0040171E: 671007                   ADC [BX], AL
00401721: 670000                   ADD [BX+SI], AL
00401724: 670000                   ADD [BX+SI], AL
00401727: 670000                   ADD [BX+SI], AL
0040172A: 670010                   ADD [BX+SI], DL
0040172D: 670000                   ADD [BX+SI], AL
00401730: 670000                   ADD [BX+SI], AL
00401733: 67660B00                 OR AX, [BX+SI]
00401737: 671007                   ADC [BX], AL
0040173A: 67660B00                 OR AX, [BX+SI]
0040173E: 671000                   ADC [BX+SI], AL
00401741: 67660B00                 OR AX, [BX+SI]
00401745: 6657                     PUSH DI
00401747: 670000                   ADD [BX+SI], AL
0040174A: 670000                   ADD [BX+SI], AL
0040174D: 00C4                     ADD AH, AL
0040174F: 671007                   ADC [BX], AL
00401752: 101500000000             ADC [00000000H], DL
00401758: 670F0000                 SLDT WORD PTR [EAX]
0040175C: 670000                   ADD [BX+SI], AL
0040175F: 67660100                 ADD [BX+SI], AX
00401763: 67660100                 ADD [BX+SI], AX
00401767: 670000                   ADD [BX+SI], AL
0040176A: 670010                   ADD [BX+SI], DL
0040176D: 670010                   ADD [BX+SI], DL
00401770: 670010                   ADD [BX+SI], DL
00401773: 671800                   SBB [BX+SI], AL
00401776: 670000                   ADD [BX+SI], AL
00401779: 670038                   ADD [BX+SI], BH
0040177C: 671007                   ADC [BX], AL
0040177F: 0E                       PUSH CS
00401780: 671A05                   SBB AL, [DI]
00401783: 670020                   ADD [BX+SI], AH
00401786: 00C0                     ADD AL, AL
00401788: 6693                     XCHG BX, AX
0040178A: 67001C                   ADD [SI], BL
0040178D: 670000                   ADD [BX+SI], AL
00401790: 670000                   ADD [BX+SI], AL
00401793: 00C0                     ADD AL, AL
00401795: 67660100                 ADD [BX+SI], AX
00401799: 670F0000                 SLDT WORD PTR [EAX]
0040179D: 670000                   ADD [BX+SI], AL
004017A0: 670000                   ADD [BX+SI], AL
004017A3: 670F0000                 SLDT WORD PTR [EAX]
004017A7: 67661905                 SBB [DI], AX
004017AB: 0E                       PUSH CS
004017AC: 6766130C                 ADC CX, [SI]
004017B0: 671007                   ADC [BX], AL
004017B3: 670020                   ADD [BX+SI], AH
004017B6: 6657                     PUSH DI
004017B8: 670002                   ADD [BP+SI], AL
004017BB: 67660B00                 OR AX, [BX+SI]
004017BF: 00C4                     ADD AH, AL
004017C1: 6766130C                 ADC CX, [SI]
004017C5: 670000                   ADD [BX+SI], AL
004017C8: 6657                     PUSH DI
004017CA: 6657                     PUSH DI
004017CC: 67660100                 ADD [BX+SI], AX
004017D0: 6700720E                 ADD [BP+SI+0EH], DH
004017D4: 670000                   ADD [BX+SI], AL
004017D7: 670000                   ADD [BX+SI], AL
004017DA: 6650                     PUSH AX
004017DC: 670038                   ADD [BX+SI], BH
004017DF: 670000                   ADD [BX+SI], AL
004017E2: 67660100                 ADD [BX+SI], AX
004017E6: 67001C                   ADD [SI], BL
004017E9: 671007                   ADC [BX], AL
004017EC: 670000                   ADD [BX+SI], AL
004017EF: 670038                   ADD [BX+SI], BH
004017F2: 670020                   ADD [BX+SI], AH
004017F5: 670000                   ADD [BX+SI], AL
004017F8: 67660B00                 OR AX, [BX+SI]
004017FC: 670020                   ADD [BX+SI], AH
004017FF: 6650                     PUSH AX
00401801: 671A05                   SBB AL, [DI]
00401804: 670038                   ADD [BX+SI], BH
00401807: 671007                   ADC [BX], AL
0040180A: 6657                     PUSH DI
0040180C: 670000                   ADD [BX+SI], AL
0040180F: 670000                   ADD [BX+SI], AL
00401812: 671A05                   SBB AL, [DI]
00401815: 6766130C                 ADC CX, [SI]
00401819: 6654                     PUSH SP
0040181B: 6766130C                 ADC CX, [SI]
0040181F: 8B00                     MOV EAX, [EAX]
00401821: 85C0                     TEST EAX, EAX
00401823: 0F8988010000             JNS 004019B1H
00401829: 8B45E4                   MOV EAX, [EBP-1CH]
0040182C: 8B00                     MOV EAX, [EAX]
0040182E: E967060000               JMP 00401E9AH
00401833: 663B45D6                 CMP AX, [EBP-2AH]
00401837: E9E4090000               JMP 00402220H
0040183C: 8B45DC                   MOV EAX, [EBP-24H]
0040183F: 8B00                     MOV EAX, [EAX]
00401841: 8D0402                   LEA EAX, [EDX+EAX]
00401844: E9980B0000               JMP 004023E1H
00401849: 90                       NOP 
0040184A: 8345E401                 ADD [EBP-1CH], 00000001H
0040184E: 8345F428                 ADD [EBP-0CH], 00000028H
00401852: 8B4510                   MOV EAX, [EBP+10H]
00401855: 8B00                     MOV EAX, [EAX]
00401857: E9F1070000               JMP 0040204DH
0040185C: 8B4004                   MOV EAX, [EAX+04H]
0040185F: 8945D8                   MOV [EBP-28H], EAX
00401862: E9F70A0000               JMP 0040235EH
00401867: B800000000               MOV EAX, 00000000H
0040186C: E976050000               JMP 00401DE7H
00401871: E94E020000               JMP 00401AC4H
00401876: 8B4004                   MOV EAX, [EAX+04H]
00401879: 89C2                     MOV EDX, EAX
0040187B: 8B45F0                   MOV EAX, [EBP-10H]
0040187E: E92E020000               JMP 00401AB1H
00401883: 89542404                 MOV [ESP+04H], EDX
00401887: 890424                   MOV [ESP], EAX
0040188A: E8A1180000               CALL 00403130H
0040188F: 83EC10                   SUB ESP, 00000010H
00401892: 8945F0                   MOV [EBP-10H], EAX
00401895: 8B55F0                   MOV EDX, [EBP-10H]
00401898: 8B45F4                   MOV EAX, [EBP-0CH]
0040189B: E99F0B0000               JMP 0040243FH
004018A0: 8B55D8                   MOV EDX, [EBP-28H]
004018A3: 8B45E0                   MOV EAX, [EBP-20H]
004018A6: 8B4010                   MOV EAX, [EAX+10H]
004018A9: E92C070000               JMP 00401FDAH
004018AE: 83EC0C                   SUB ESP, 0000000CH
004018B1: 8945F0                   MOV [EBP-10H], EAX
004018B4: 8B4508                   MOV EAX, [EBP+08H]
004018B7: 8B5808                   MOV EBX, [EAX+08H]
004018BA: E889180000               CALL 00403148H
004018BF: 895C2408                 MOV [ESP+08H], EBX
004018C3: C744240400000000         MOV [ESP+04H], 00000000H
004018CB: E977040000               JMP 00401D47H
004018D0: E974FFFFFF               JMP 00401849H
004018D5: 890424                   MOV [ESP], EAX
004018D8: E826050000               CALL 00401E03H
004018DD: E9F7030000               JMP 00401CD9H
004018E2: 8B45D8                   MOV EAX, [EBP-28H]
004018E5: 890424                   MOV [ESP], EAX
004018E8: E943070000               JMP 00402030H
004018ED: 83EC38                   SUB ESP, 00000038H
004018F0: 8B4510                   MOV EAX, [EBP+10H]
004018F3: 8B4004                   MOV EAX, [EAX+04H]
004018F6: 8945EC                   MOV [EBP-14H], EAX
004018F9: 8B4510                   MOV EAX, [EBP+10H]
004018FC: 8B00                     MOV EAX, [EAX]
004018FE: 89C2                     MOV EDX, EAX
00401900: E944030000               JMP 00401C49H
00401905: 8D0402                   LEA EAX, [EDX+EAX]
00401908: 8945F0                   MOV [EBP-10H], EAX
0040190B: 8B45F0                   MOV EAX, [EBP-10H]
0040190E: 8B4018                   MOV EAX, [EAX+18H]
00401911: 85C0                     TEST EAX, EAX
00401913: 0F84C3020000             JZ 00401BDCH
00401919: E94A090000               JMP 00402268H
0040191E: E825180000               CALL 00403148H
00401923: 895C2408                 MOV [ESP+08H], EBX
00401927: E9BA070000               JMP 004020E6H
0040192C: 0F843A040000             JZ 00401D6CH
00401932: 8B55D8                   MOV EDX, [EBP-28H]
00401935: E902FFFFFF               JMP 0040183CH
0040193A: E98A0A0000               JMP 004023C9H
0040193F: E9840A0000               JMP 004023C8H
00401944: 8B4054                   MOV EAX, [EAX+54H]
00401947: 8D0402                   LEA EAX, [EDX+EAX]
0040194A: 89442408                 MOV [ESP+08H], EAX
0040194E: 8B45DC                   MOV EAX, [EBP-24H]
00401951: 89442404                 MOV [ESP+04H], EAX
00401955: 8B45E8                   MOV EAX, [EBP-18H]
00401958: E915060000               JMP 00401F72H
0040195D: B800000000               MOV EAX, 00000000H
00401962: E962060000               JMP 00401FC9H
00401967: 8B45E0                   MOV EAX, [EBP-20H]
0040196A: 8B5050                   MOV EDX, [EAX+50H]
0040196D: E941080000               JMP 004021B3H
00401972: 8B00                     MOV EAX, [EAX]
00401974: 85C0                     TEST EAX, EAX
00401976: 0F95C0                   SETNZ AL
00401979: 84C0                     TEST AL, AL
0040197B: 0F85D5000000             JNZ 00401A56H
00401981: E9F5090000               JMP 0040237BH
00401986: 8945E4                   MOV [EBP-1CH], EAX
00401989: 8B45E4                   MOV EAX, [EBP-1CH]
0040198C: 8B4004                   MOV EAX, [EAX+04H]
0040198F: 85C0                     TEST EAX, EAX
00401991: 0F84E4090000             JZ 0040237BH
00401997: E90E020000               JMP 00401BAAH
0040199C: 8B45E4                   MOV EAX, [EBP-1CH]
0040199F: 890424                   MOV [ESP], EAX
004019A2: E889170000               CALL 00403130H
004019A7: E928050000               JMP 00401ED4H
004019AC: E90A090000               JMP 004022BBH
004019B1: 8B55D8                   MOV EDX, [EBP-28H]
004019B4: 8B45E4                   MOV EAX, [EBP-1CH]
004019B7: 8B00                     MOV EAX, [EAX]
004019B9: 8D0402                   LEA EAX, [EDX+EAX]
004019BC: 8945F4                   MOV [EBP-0CH], EAX
004019BF: E9F70B0000               JMP 004025BBH
004019C4: 89E5                     MOV EBP, ESP
004019C6: 83EC30                   SUB ESP, 00000030H
004019C9: 8B4508                   MOV EAX, [EBP+08H]
004019CC: 8B4004                   MOV EAX, [EAX+04H]
004019CF: 8945E0                   MOV [EBP-20H], EAX
004019D2: 8B4508                   MOV EAX, [EBP+08H]
004019D5: 8B00                     MOV EAX, [EAX]
004019D7: 05A0000000               ADD EAX, 000000A0H
004019DC: EBA8                     JMP 401986H
004019DE: 8B450C                   MOV EAX, [EBP+0CH]
004019E1: 890424                   MOV [ESP], EAX
004019E4: E8D7160000               CALL 004030C0H
004019E9: E968060000               JMP 00402056H
004019EE: 83EC10                   SUB ESP, 00000010H
004019F1: 85C0                     TEST EAX, EAX
004019F3: 8345D801                 ADD [EBP-28H], 00000001H
004019F7: 8345DC28                 ADD [EBP-24H], 00000028H
004019FB: 8B4508                   MOV EAX, [EBP+08H]
004019FE: 8B00                     MOV EAX, [EAX]
00401A00: E990030000               JMP 00401D95H
00401A05: 8345E804                 ADD [EBP-18H], 00000004H
00401A09: 8B45E4                   MOV EAX, [EBP-1CH]
00401A0C: 8B00                     MOV EAX, [EAX]
00401A0E: 85C0                     TEST EAX, EAX
00401A10: E9FF010000               JMP 00401C14H
00401A15: 83EC0C                   SUB ESP, 0000000CH
00401A18: 8B4508                   MOV EAX, [EBP+08H]
00401A1B: 8B55F0                   MOV EDX, [EBP-10H]
00401A1E: 895008                   MOV [EAX+08H], EDX
00401A21: 8B4508                   MOV EAX, [EBP+08H]
00401A24: 8B4008                   MOV EAX, [EAX+08H]
00401A27: 85C0                     TEST EAX, EAX
00401A29: E994010000               JMP 00401BC2H
00401A2E: 8B45D8                   MOV EAX, [EBP-28H]
00401A31: 8B00                     MOV EAX, [EAX]
00401A33: 83C078                   ADD EAX, 00000078H
00401A36: 8945F4                   MOV [EBP-0CH], EAX
00401A39: 8B45F4                   MOV EAX, [EBP-0CH]
00401A3C: E9EC020000               JMP 00401D2DH
00401A41: B800000000               MOV EAX, 00000000H
00401A46: E99C030000               JMP 00401DE7H
00401A4B: 8B55DC                   MOV EDX, [EBP-24H]
00401A4E: 8B45F4                   MOV EAX, [EBP-0CH]
00401A51: E94F0B0000               JMP 004025A5H
00401A56: C745EC00000000           MOV [EBP-14H], 00000000H
00401A5D: C745F000000000           MOV [EBP-10H], 00000000H
00401A64: C745DC00000000           MOV [EBP-24H], 00000000H
00401A6B: E9FB080000               JMP 0040236BH
00401A70: 8B45DC                   MOV EAX, [EBP-24H]
00401A73: EB69                     JMP 401ADEH
00401A75: 8B55E8                   MOV EDX, [EBP-18H]
00401A78: 89542404                 MOV [ESP+04H], EDX
00401A7C: 890424                   MOV [ESP], EAX
00401A7F: E88C160000               CALL 00403110H
00401A84: E965FFFFFF               JMP 004019EEH
00401A89: 8B4024                   MOV EAX, [EAX+24H]
00401A8C: 2580000000               AND EAX, 00000080H
00401A91: 85C0                     TEST EAX, EAX
00401A93: 0F846C0B0000             JZ 00402605H
00401A99: 8B4508                   MOV EAX, [EBP+08H]
00401A9C: E9BA0B0000               JMP 0040265BH
00401AA1: 8945DC                   MOV [EBP-24H], EAX
00401AA4: 8B45DC                   MOV EAX, [EBP-24H]
00401AA7: 8B4004                   MOV EAX, [EAX+04H]
00401AAA: 85C0                     TEST EAX, EAX
00401AAC: E97BFEFFFF               JMP 0040192CH
00401AB1: 8B00                     MOV EAX, [EAX]
00401AB3: 8B4028                   MOV EAX, [EAX+28H]
00401AB6: 8D0402                   LEA EAX, [EDX+EAX]
00401AB9: 8945F4                   MOV [EBP-0CH], EAX
00401ABC: 8B45F0                   MOV EAX, [EBP-10H]
00401ABF: E9B0030000               JMP 00401E74H
00401AC4: 8B55DC                   MOV EDX, [EBP-24H]
00401AC7: 8B45F0                   MOV EAX, [EBP-10H]
00401ACA: 8B4020                   MOV EAX, [EAX+20H]
00401ACD: 8D0402                   LEA EAX, [EDX+EAX]
00401AD0: 8945E8                   MOV [EBP-18H], EAX
00401AD3: 8B55DC                   MOV EDX, [EBP-24H]
00401AD6: 8B45F0                   MOV EAX, [EBP-10H]
00401AD9: E9C5050000               JMP 004020A3H
00401ADE: 8B4008                   MOV EAX, [EAX+08H]
00401AE1: 8D55D4                   LEA EDX, [EBP-2CH]
00401AE4: EB36                     JMP 401B1CH
00401AE6: 8B4004                   MOV EAX, [EAX+04H]
00401AE9: 0145E8                   ADD [EBP-18H], EAX
00401AEC: E9E8080000               JMP 004023D9H
00401AF1: 8B00                     MOV EAX, [EAX]
00401AF3: 8B55E4                   MOV EDX, [EBP-1CH]
00401AF6: 895034                   MOV [EAX+34H], EDX
00401AF9: E9DF060000               JMP 004021DDH
00401AFE: 8B45EC                   MOV EAX, [EBP-14H]
00401B01: 890424                   MOV [ESP], EAX
00401B04: E8FF150000               CALL 00403108H
00401B09: 83EC08                   SUB ESP, 00000008H
00401B0C: 8B55E8                   MOV EDX, [EBP-18H]
00401B0F: E9D8000000               JMP 00401BECH
00401B14: 8B45D8                   MOV EAX, [EBP-28H]
00401B17: E9CC060000               JMP 004021E8H
00401B1C: 8954240C                 MOV [ESP+0CH], EDX
00401B20: 8B55E4                   MOV EDX, [EBP-1CH]
00401B23: 89542408                 MOV [ESP+08H], EDX
00401B27: E949FFFFFF               JMP 00401A75H
00401B2C: 8B45F4                   MOV EAX, [EBP-0CH]
00401B2F: 8B400C                   MOV EAX, [EAX+0CH]
00401B32: 0345EC                   ADD EAX, [EBP-14H]
00401B35: C744240C04000000         MOV [ESP+0CH], 00000004H
00401B3D: C744240800100000         MOV [ESP+08H], 00001000H
00401B45: E939FDFFFF               JMP 00401883H
00401B4A: C645D501                 MOV BYTE PTR [EBP-2BH], 01H
00401B4E: 8B450C                   MOV EAX, [EBP+0CH]
00401B51: C1E810                   SHR EAX, 10H
00401B54: E9FB010000               JMP 00401D54H
00401B59: 8B45F0                   MOV EAX, [EBP-10H]
00401B5C: 8B4018                   MOV EAX, [EAX+18H]
00401B5F: 3B45E4                   CMP EAX, [EBP-1CH]
00401B62: 0F97C0                   SETNBE AL
00401B65: 84C0                     TEST AL, AL
00401B67: 0F8552030000             JNZ 00401EBFH
00401B6D: E92E040000               JMP 00401FA0H
00401B72: 8B45E0                   MOV EAX, [EBP-20H]
00401B75: 8B400C                   MOV EAX, [EAX+0CH]
00401B78: 8D0402                   LEA EAX, [EDX+EAX]
00401B7B: E989030000               JMP 00401F09H
00401B80: 83EC0C                   SUB ESP, 0000000CH
00401B83: 8945D8                   MOV [EBP-28H], EAX
00401B86: 8B45D8                   MOV EAX, [EBP-28H]
00401B89: 8B55E4                   MOV EDX, [EBP-1CH]
00401B8C: E977060000               JMP 00402208H
00401B91: 814DE400020000           OR [EBP-1CH], 00000200H
00401B98: 8B45DC                   MOV EAX, [EBP-24H]
00401B9B: 8B4010                   MOV EAX, [EAX+10H]
00401B9E: 8945E8                   MOV [EBP-18H], EAX
00401BA1: 837DE800                 CMP [EBP-18H], 00000000H
00401BA5: E910090000               JMP 004024BAH
00401BAA: 8B55E0                   MOV EDX, [EBP-20H]
00401BAD: 8B45E4                   MOV EAX, [EBP-1CH]
00401BB0: 8B00                     MOV EAX, [EAX]
00401BB2: 8D0402                   LEA EAX, [EDX+EAX]
00401BB5: 8945E8                   MOV [EBP-18H], EAX
00401BB8: E92FFFFFFF               JMP 00401AECH
00401BBD: E994FEFFFF               JMP 00401A56H
00401BC2: 0F858D060000             JNZ 00402255H
00401BC8: C745D400000000           MOV [EBP-2CH], 00000000H
00401BCF: E97C060000               JMP 00402250H
00401BD4: 85C0                     TEST EAX, EAX
00401BD6: 0F85E8FEFFFF             JNZ 00401AC4H
00401BDC: E986FCFFFF               JMP 00401867H
00401BE1: 8945F4                   MOV [EBP-0CH], EAX
00401BE4: 8B45F4                   MOV EAX, [EBP-0CH]
00401BE7: E95E0A0000               JMP 0040264AH
00401BEC: 8902                     MOV [EDX], EAX
00401BEE: E9B9FDFFFF               JMP 004019ACH
00401BF3: 8B45F4                   MOV EAX, [EBP-0CH]
00401BF6: 8B5010                   MOV EDX, [EAX+10H]
00401BF9: 8B45F4                   MOV EAX, [EBP-0CH]
00401BFC: 8B400C                   MOV EAX, [EAX+0CH]
00401BFF: 0345EC                   ADD EAX, [EBP-14H]
00401C02: C744240C04000000         MOV [ESP+0CH], 00000004H
00401C0A: E95A090000               JMP 00402569H
00401C0F: 8B4014                   MOV EAX, [EAX+14H]
00401C12: EBC0                     JMP 401BD4H
00401C14: 0F95C0                   SETNZ AL
00401C17: 84C0                     TEST AL, AL
00401C19: 0F8595010000             JNZ 00401DB4H
00401C1F: 837DD400                 CMP [EBP-2CH], 00000000H
00401C23: E9B3090000               JMP 004025DBH
00401C28: 85C0                     TEST EAX, EAX
00401C2A: 0F84F0030000             JZ 00402020H
00401C30: 8B45DC                   MOV EAX, [EBP-24H]
00401C33: 8B5010                   MOV EDX, [EAX+10H]
00401C36: 8B45DC                   MOV EAX, [EBP-24H]
00401C39: 8B4008                   MOV EAX, [EAX+08H]
00401C3C: C744240800400000         MOV [ESP+08H], 00004000H
00401C44: E95A0A0000               JMP 004026A3H
00401C49: 8B4510                   MOV EAX, [EBP+10H]
00401C4C: 8B00                     MOV EAX, [EAX]
00401C4E: 0FB74014                 MOVZX EAX, WORD PTR [EAX+14H]
00401C52: 0FB7C0                   MOVZX EAX, AX
00401C55: 01C2                     ADD EDX, EAX
00401C57: B800000000               MOV EAX, 00000000H
00401C5C: E927090000               JMP 00402588H
00401C61: 3B45EC                   CMP EAX, [EBP-14H]
00401C64: 0F9FC0                   SETNLE AL
00401C67: 84C0                     TEST AL, AL
00401C69: 0F8591080000             JNZ 00402500H
00401C6F: 8B45F0                   MOV EAX, [EBP-10H]
00401C72: 8B5808                   MOV EBX, [EAX+08H]
00401C75: E8CE140000               CALL 00403148H
00401C7A: 895C2408                 MOV [ESP+08H], EBX
00401C7E: E9D6070000               JMP 00402459H
00401C83: 890424                   MOV [ESP], EAX
00401C86: E8AD140000               CALL 00403138H
00401C8B: 83EC04                   SUB ESP, 00000004H
00401C8E: 8345EC01                 ADD [EBP-14H], 00000001H
00401C92: 8B45F0                   MOV EAX, [EBP-10H]
00401C95: 8B400C                   MOV EAX, [EAX+0CH]
00401C98: EBC7                     JMP 401C61H
00401C9A: C1F80C                   SAR EAX, 0CH
00401C9D: 8945F8                   MOV [EBP-08H], EAX
00401CA0: 8B45F0                   MOV EAX, [EBP-10H]
00401CA3: 0FB700                   MOVZX EAX, WORD PTR [EAX]
00401CA6: 0FB7C0                   MOVZX EAX, AX
00401CA9: 25FF0F0000               AND EAX, 00000FFFH
00401CAE: E9BC030000               JMP 0040206FH
00401CB3: F7D8                     NEG EAX
00401CB5: 0345E4                   ADD EAX, [EBP-1CH]
00401CB8: 8945EC                   MOV [EBP-14H], EAX
00401CBB: 837DEC00                 CMP [EBP-14H], 00000000H
00401CBF: 7418                     JZ 401CD9H
00401CC1: 8B45EC                   MOV EAX, [EBP-14H]
00401CC4: E905030000               JMP 00401FCEH
00401CC9: E9FB020000               JMP 00401FC9H
00401CCE: 90                       NOP 
00401CCF: E9E5020000               JMP 00401FB9H
00401CD4: E94B070000               JMP 00402424H
00401CD9: 8B45D8                   MOV EAX, [EBP-28H]
00401CDC: 890424                   MOV [ESP], EAX
00401CDF: EB00                     JMP 401CE1H
00401CE1: E897060000               CALL 0040237DH
00401CE6: 85C0                     TEST EAX, EAX
00401CE8: E9B7000000               JMP 00401DA4H
00401CED: 8D0402                   LEA EAX, [EDX+EAX]
00401CF0: 8945DC                   MOV [EBP-24H], EAX
00401CF3: C745E000000000           MOV [EBP-20H], 00000000H
00401CFA: C745D800000000           MOV [EBP-28H], 00000000H
00401D01: E9F5FCFFFF               JMP 004019FBH
00401D06: 8B45DC                   MOV EAX, [EBP-24H]
00401D09: 8B4024                   MOV EAX, [EAX+24H]
00401D0C: E96F090000               JMP 00402680H
00401D11: C745D400000000           MOV [EBP-2CH], 00000000H
00401D18: EB52                     JMP 401D6CH
00401D1A: 8B4508                   MOV EAX, [EBP+08H]
00401D1D: 8B400C                   MOV EAX, [EAX+0CH]
00401D20: 83C001                   ADD EAX, 00000001H
00401D23: C1E002                   SHL EAX, 02H
00401D26: 89C3                     MOV EBX, EAX
00401D28: E9F1FBFFFF               JMP 0040191EH
00401D2D: 8B4004                   MOV EAX, [EAX+04H]
00401D30: 85C0                     TEST EAX, EAX
00401D32: 0F8513FDFFFF             JNZ 00401A4BH
00401D38: E904FDFFFF               JMP 00401A41H
00401D3D: 8D1411                   LEA EDX, [ECX+EDX]
00401D40: 01D2                     ADD EDX, EDX
00401D42: E9B8050000               JMP 004022FFH
00401D47: 890424                   MOV [ESP], EAX
00401D4A: E801140000               CALL 00403150H
00401D4F: E9C1FCFFFF               JMP 00401A15H
00401D54: 85C0                     TEST EAX, EAX
00401D56: 0F85F2030000             JNZ 0040214EH
00401D5C: E9E9030000               JMP 0040214AH
00401D61: 84C0                     TEST AL, AL
00401D63: 0F8580060000             JNZ 004023E9H
00401D69: EB01                     JMP 401D6CH
00401D6B: 90                       NOP 
00401D6C: E9E2030000               JMP 00402153H
00401D71: C1E202                   SHL EDX, 02H
00401D74: 01D0                     ADD EAX, EDX
00401D76: 8B00                     MOV EAX, [EAX]
00401D78: E906FFFFFF               JMP 00401C83H
00401D7D: 0F84A7060000             JZ 0040242AH
00401D83: 8B45D8                   MOV EAX, [EBP-28H]
00401D86: C7401001000000           MOV [EAX+10H], 00000001H
00401D8D: 8B45D8                   MOV EAX, [EBP-28H]
00401D90: E934FFFFFF               JMP 00401CC9H
00401D95: 0FB74006                 MOVZX EAX, WORD PTR [EAX+06H]
00401D99: 0FB7C0                   MOVZX EAX, AX
00401D9C: 3B45D8                   CMP EAX, [EBP-28H]
00401D9F: E9E3060000               JMP 00402487H
00401DA4: 0F94C0                   SETZ AL
00401DA7: 84C0                     TEST AL, AL
00401DA9: 0F851FFFFFFF             JNZ 00401CCEH
00401DAF: E92EFBFFFF               JMP 004018E2H
00401DB4: 8B45E4                   MOV EAX, [EBP-1CH]
00401DB7: E963FAFFFF               JMP 0040181FH
00401DBC: 8B4008                   MOV EAX, [EAX+08H]
00401DBF: 8B55EC                   MOV EDX, [EBP-14H]
00401DC2: C1E202                   SHL EDX, 02H
00401DC5: 01D0                     ADD EAX, EDX
00401DC7: 8B00                     MOV EAX, [EAX]
00401DC9: E9DA000000               JMP 00401EA8H
00401DCE: 0F841FFCFFFF             JZ 004019F3H
00401DD4: E997FCFFFF               JMP 00401A70H
00401DD9: C1E002                   SHL EAX, 02H
00401DDC: 8D0401                   LEA EAX, [ECX+EAX]
00401DDF: 0345DC                   ADD EAX, [EBP-24H]
00401DE2: 8B00                     MOV EAX, [EAX]
00401DE4: 8D0402                   LEA EAX, [EDX+EAX]
00401DE7: C9                       LEAVE 
00401DE8: EB2D                     JMP 401E17H
00401DEA: C3                       RET 
00401DEB: 55                       PUSH EBP
00401DEC: 89E5                     MOV EBP, ESP
00401DEE: 83EC38                   SUB ESP, 00000038H
00401DF1: 8B4508                   MOV EAX, [EBP+08H]
00401DF4: 8945DC                   MOV [EBP-24H], EAX
00401DF7: 8B45DC                   MOV EAX, [EBP-24H]
00401DFA: 0FB700                   MOVZX EAX, WORD PTR [EAX]
00401DFD: E9AD080000               JMP 004026AFH
00401E02: C3                       RET 
00401E03: 55                       PUSH EBP
00401E04: E9BBFBFFFF               JMP 004019C4H
00401E09: 8B00                     MOV EAX, [EAX]
00401E0B: 8D0402                   LEA EAX, [EDX+EAX]
00401E0E: 89442404                 MOV [ESP+04H], EAX
00401E12: E9C7FBFFFF               JMP 004019DEH
00401E17: C3                       RET 
00401E18: 55                       PUSH EBP
00401E19: 89E5                     MOV EBP, ESP
00401E1B: 53                       PUSH EBX
00401E1C: 83EC24                   SUB ESP, 00000024H
00401E1F: 8B4508                   MOV EAX, [EBP+08H]
00401E22: E91F050000               JMP 00402346H
00401E27: 8B4050                   MOV EAX, [EAX+50H]
00401E2A: C744240C04000000         MOV [ESP+0CH], 00000004H
00401E32: C744240800200000         MOV [ESP+08H], 00002000H
00401E3A: 89442404                 MOV [ESP+04H], EAX
00401E3E: C7042400000000           MOV [ESP], 00000000H
00401E45: E8E6120000               CALL 00403130H
00401E4A: 83EC10                   SUB ESP, 00000010H
00401E4D: E988040000               JMP 004022DAH
00401E52: 85C0                     TEST EAX, EAX
00401E54: 0F84AC010000             JZ 00402006H
00401E5A: 8B45F0                   MOV EAX, [EBP-10H]
00401E5D: E914FAFFFF               JMP 00401876H
00401E62: 8B450C                   MOV EAX, [EBP+0CH]
00401E65: 83E801                   SUB EAX, 00000001H
00401E68: 668945D6                 MOV [EBP-2AH], AX
00401E6C: 8B4508                   MOV EAX, [EBP+08H]
00401E6F: 8945D8                   MOV [EBP-28H], EAX
00401E72: EB6B                     JMP 401EDFH
00401E74: 8B4004                   MOV EAX, [EAX+04H]
00401E77: C744240800000000         MOV [ESP+08H], 00000000H
00401E7F: C744240400000000         MOV [ESP+04H], 00000000H
00401E87: 890424                   MOV [ESP], EAX
00401E8A: 8B45F4                   MOV EAX, [EBP-0CH]
00401E8D: FFD0                     CALL EAX
00401E8F: 83EC0C                   SUB ESP, 0000000CH
00401E92: 8B45F0                   MOV EAX, [EBP-10H]
00401E95: E965010000               JMP 00401FFFH
00401E9A: 25FFFF0000               AND EAX, 0000FFFFH
00401E9F: 89442404                 MOV [ESP+04H], EAX
00401EA3: E956FCFFFF               JMP 00401AFEH
00401EA8: 83F8FF                   CMP EAX, FFFFFFFFH
00401EAB: 0F84DDFDFFFF             JZ 00401C8EH
00401EB1: 8B45F0                   MOV EAX, [EBP-10H]
00401EB4: 8B4008                   MOV EAX, [EAX+08H]
00401EB7: 8B55EC                   MOV EDX, [EBP-14H]
00401EBA: E9B2FEFFFF               JMP 00401D71H
00401EBF: 807DD500                 CMP BYTE PTR [EBP-2BH], 00H
00401EC3: 0F8473030000             JZ 0040223CH
00401EC9: 8B55DC                   MOV EDX, [EBP-24H]
00401ECC: 8B45E8                   MOV EAX, [EBP-18H]
00401ECF: E935FFFFFF               JMP 00401E09H
00401ED4: 83EC10                   SUB ESP, 00000010H
00401ED7: 8945E8                   MOV [EBP-18H], EAX
00401EDA: E950050000               JMP 0040242FH
00401EDF: 8B45D8                   MOV EAX, [EBP-28H]
00401EE2: E9CF040000               JMP 004023B6H
00401EE7: 89542408                 MOV [ESP+08H], EDX
00401EEB: E9FC070000               JMP 004026ECH
00401EF0: 8B45F0                   MOV EAX, [EBP-10H]
00401EF3: 8B4014                   MOV EAX, [EAX+14H]
00401EF6: 39C2                     CMP EDX, EAX
00401EF8: 760A                     JBE 401F04H
00401EFA: B800000000               MOV EAX, 00000000H
00401EFF: E9E3FEFFFF               JMP 00401DE7H
00401F04: E90D060000               JMP 00402516H
00401F09: 890424                   MOV [ESP], EAX
00401F0C: E807120000               CALL 00403118H
00401F11: 83EC04                   SUB ESP, 00000004H
00401F14: 8945EC                   MOV [EBP-14H], EAX
00401F17: 837DEC00                 CMP [EBP-14H], 00000000H
00401F1B: 0F85F9FDFFFF             JNZ 00401D1AH
00401F21: E9EBFDFFFF               JMP 00401D11H
00401F26: 8B400C                   MOV EAX, [EAX+0CH]
00401F29: 85C0                     TEST EAX, EAX
00401F2B: 0F848C010000             JZ 004020BDH
00401F31: B801000000               MOV EAX, 00000001H
00401F36: E987010000               JMP 004020C2H
00401F3B: E97D010000               JMP 004020BDH
00401F40: 0F8577010000             JNZ 004020BDH
00401F46: 8B45E0                   MOV EAX, [EBP-20H]
00401F49: EBDB                     JMP 401F26H
00401F4B: E8E0110000               CALL 00403130H
00401F50: 83EC10                   SUB ESP, 00000010H
00401F53: 8B45E0                   MOV EAX, [EBP-20H]
00401F56: 8B4054                   MOV EAX, [EAX+54H]
00401F59: C744240C04000000         MOV [ESP+0CH], 00000004H
00401F61: C744240800100000         MOV [ESP+08H], 00001000H
00401F69: 89442404                 MOV [ESP+04H], EAX
00401F6D: E92AFAFFFF               JMP 0040199CH
00401F72: 890424                   MOV [ESP], EAX
00401F75: E83E110000               CALL 004030B8H
00401F7A: 8B55E8                   MOV EDX, [EBP-18H]
00401F7D: 8B45DC                   MOV EAX, [EBP-24H]
00401F80: 8B403C                   MOV EAX, [EAX+3CH]
00401F83: E924060000               JMP 004025ACH
00401F88: 890424                   MOV [ESP], EAX
00401F8B: E8B0110000               CALL 00403140H
00401F90: 83EC0C                   SUB ESP, 0000000CH
00401F93: E8B0110000               CALL 00403148H
00401F98: 8B55F0                   MOV EDX, [EBP-10H]
00401F9B: E947FFFFFF               JMP 00401EE7H
00401FA0: 837DE0FF                 CMP [EBP-20H], FFFFFFFFH
00401FA4: 750A                     JNZ 401FB0H
00401FA6: B800000000               MOV EAX, 00000000H
00401FAB: E937FEFFFF               JMP 00401DE7H
00401FB0: 8B55E0                   MOV EDX, [EBP-20H]
00401FB3: E938FFFFFF               JMP 00401EF0H
00401FB8: 90                       NOP 
00401FB9: 8B45D8                   MOV EAX, [EBP-28H]
00401FBC: 890424                   MOV [ESP], EAX
00401FBF: E854FEFFFF               CALL 00401E18H
00401FC4: B800000000               MOV EAX, 00000000H
00401FC9: E9D7040000               JMP 004024A5H
00401FCE: 89442404                 MOV [ESP+04H], EAX
00401FD2: 8B45D8                   MOV EAX, [EBP-28H]
00401FD5: E9FBF8FFFF               JMP 004018D5H
00401FDA: 8D0402                   LEA EAX, [EDX+EAX]
00401FDD: 8945E8                   MOV [EBP-18H], EAX
00401FE0: E924FAFFFF               JMP 00401A09H
00401FE5: E9E8060000               JMP 004026D2H
00401FEA: C744240400000000         MOV [ESP+04H], 00000000H
00401FF2: 890424                   MOV [ESP], EAX
00401FF5: E82E110000               CALL 00403128H
00401FFA: E981FBFFFF               JMP 00401B80H
00401FFF: C7401000000000           MOV [EAX+10H], 00000000H
00402006: 8B45F0                   MOV EAX, [EBP-10H]
00402009: 8B4008                   MOV EAX, [EAX+08H]
0040200C: 85C0                     TEST EAX, EAX
0040200E: E9DB040000               JMP 004024EEH
00402013: E828110000               CALL 00403140H
00402018: 83EC0C                   SUB ESP, 0000000CH
0040201B: E9D3F9FFFF               JMP 004019F3H
00402020: 8B4DEC                   MOV ECX, [EBP-14H]
00402023: 8B55F0                   MOV EDX, [EBP-10H]
00402026: 8B45F4                   MOV EAX, [EBP-0CH]
00402029: 01C9                     ADD ECX, ECX
0040202B: E90DFDFFFF               JMP 00401D3DH
00402030: E863000000               CALL 00402098H
00402035: 8B45D8                   MOV EAX, [EBP-28H]
00402038: 8B00                     MOV EAX, [EAX]
0040203A: 8B4028                   MOV EAX, [EAX+28H]
0040203D: 85C0                     TEST EAX, EAX
0040203F: 0F8448FDFFFF             JZ 00401D8DH
00402045: 8B55E4                   MOV EDX, [EBP-1CH]
00402048: E945020000               JMP 00402292H
0040204D: 0FB74006                 MOVZX EAX, WORD PTR [EAX+06H]
00402051: E952010000               JMP 004021A8H
00402056: 85C0                     TEST EAX, EAX
00402058: 0F85D5010000             JNZ 00402233H
0040205E: 8B45EC                   MOV EAX, [EBP-14H]
00402061: 0FB700                   MOVZX EAX, WORD PTR [EAX]
00402064: 0FB7C0                   MOVZX EAX, AX
00402067: 8945E0                   MOV [EBP-20H], EAX
0040206A: E93D030000               JMP 004023ACH
0040206F: 8945FC                   MOV [EBP-04H], EAX
00402072: 8B45F8                   MOV EAX, [EBP-08H]
00402075: 85C0                     TEST EAX, EAX
00402077: 0F84C2F8FFFF             JZ 0040193FH
0040207D: 83F803                   CMP EAX, 00000003H
00402080: 0F8543030000             JNZ 004023C9H
00402086: E97D040000               JMP 00402508H
0040208B: 0F9FC0                   SETNLE AL
0040208E: 84C0                     TEST AL, AL
00402090: 0F8507050000             JNZ 0040259DH
00402096: C9                       LEAVE 
00402097: C3                       RET 
00402098: 55                       PUSH EBP
00402099: 89E5                     MOV EBP, ESP
0040209B: 83EC48                   SUB ESP, 00000048H
0040209E: E9CD010000               JMP 00402270H
004020A3: 8B4024                   MOV EAX, [EAX+24H]
004020A6: 8D0402                   LEA EAX, [EDX+EAX]
004020A9: 8945EC                   MOV [EBP-14H], EAX
004020AC: C745E400000000           MOV [EBP-1CH], 00000000H
004020B3: E929040000               JMP 004024E1H
004020B8: E902FEFFFF               JMP 00401EBFH
004020BD: B800000000               MOV EAX, 00000000H
004020C2: E99AFCFFFF               JMP 00401D61H
004020C7: 8B45F4                   MOV EAX, [EBP-0CH]
004020CA: 8B5010                   MOV EDX, [EAX+10H]
004020CD: 8B45F4                   MOV EAX, [EBP-0CH]
004020D0: 8B4014                   MOV EAX, [EAX+14H]
004020D3: 034508                   ADD EAX, [EBP+08H]
004020D6: 89542408                 MOV [ESP+08H], EDX
004020DA: 89442404                 MOV [ESP+04H], EAX
004020DE: 8B45F0                   MOV EAX, [EBP-10H]
004020E1: E9A7000000               JMP 0040218DH
004020E6: C744240400000000         MOV [ESP+04H], 00000000H
004020EE: 890424                   MOV [ESP], EAX
004020F1: E832100000               CALL 00403128H
004020F6: E9B3F7FFFF               JMP 004018AEH
004020FB: 8B00                     MOV EAX, [EAX]
004020FD: 8B4020                   MOV EAX, [EAX+20H]
00402100: 8945E8                   MOV [EBP-18H], EAX
00402103: E9FD040000               JMP 00402605H
00402108: 8B45DC                   MOV EAX, [EBP-24H]
0040210B: E979F9FFFF               JMP 00401A89H
00402110: 8B45E0                   MOV EAX, [EBP-20H]
00402113: 8B4050                   MOV EAX, [EAX+50H]
00402116: C744240C04000000         MOV [ESP+0CH], 00000004H
0040211E: C744240800100000         MOV [ESP+08H], 00001000H
00402126: 89442404                 MOV [ESP+04H], EAX
0040212A: 8B45E4                   MOV EAX, [EBP-1CH]
0040212D: 890424                   MOV [ESP], EAX
00402130: E916FEFFFF               JMP 00401F4BH
00402135: 8945E4                   MOV [EBP-1CH], EAX
00402138: 837DE400                 CMP [EBP-1CH], 00000000H
0040213C: 0F85F6040000             JNZ 00402638H