006B274E: FF2500204000             JMP [00402000H] ; _CorExeMain
006B2754: 0000                     ADD [EAX], AL
006B2756: 0000                     ADD [EAX], AL
006B2758: 0000                     ADD [EAX], AL
006B275A: 0000                     ADD [EAX], AL
006B275C: 0000                     ADD [EAX], AL
006B275E: 0000                     ADD [EAX], AL
006B2760: 0000                     ADD [EAX], AL
006B2762: 0000                     ADD [EAX], AL
006B2764: 0000                     ADD [EAX], AL
006B2766: 0000                     ADD [EAX], AL
006B2768: 0000                     ADD [EAX], AL
006B276A: 0000                     ADD [EAX], AL
006B276C: 0000                     ADD [EAX], AL
006B276E: 0000                     ADD [EAX], AL
006B2770: 0000                     ADD [EAX], AL
006B2772: 0000                     ADD [EAX], AL
006B2774: 0000                     ADD [EAX], AL
006B2776: 0000                     ADD [EAX], AL
006B2778: 0000                     ADD [EAX], AL
006B277A: 0000                     ADD [EAX], AL
006B277C: 0000                     ADD [EAX], AL
006B277E: 0000                     ADD [EAX], AL
006B2780: 0000                     ADD [EAX], AL
006B2782: 0000                     ADD [EAX], AL
006B2784: 0000                     ADD [EAX], AL
006B2786: 0000                     ADD [EAX], AL
006B2788: 0000                     ADD [EAX], AL
006B278A: 0000                     ADD [EAX], AL
006B278C: 0000                     ADD [EAX], AL
006B278E: 0000                     ADD [EAX], AL
006B2790: 0000                     ADD [EAX], AL
006B2792: 0000                     ADD [EAX], AL
006B2794: 0000                     ADD [EAX], AL
006B2796: 0000                     ADD [EAX], AL
006B2798: 0000                     ADD [EAX], AL
006B279A: 0000                     ADD [EAX], AL
006B279C: 0000                     ADD [EAX], AL
006B279E: 0000                     ADD [EAX], AL
006B27A0: 0000                     ADD [EAX], AL
006B27A2: 0000                     ADD [EAX], AL
006B27A4: 0000                     ADD [EAX], AL
006B27A6: 0000                     ADD [EAX], AL
006B27A8: 0000                     ADD [EAX], AL
006B27AA: 0000                     ADD [EAX], AL
006B27AC: 0000                     ADD [EAX], AL
006B27AE: 0000                     ADD [EAX], AL
006B27B0: 0000                     ADD [EAX], AL
006B27B2: 0000                     ADD [EAX], AL
006B27B4: 0000                     ADD [EAX], AL
006B27B6: 0000                     ADD [EAX], AL
006B27B8: 0000                     ADD [EAX], AL
006B27BA: 0000                     ADD [EAX], AL
006B27BC: 0000                     ADD [EAX], AL
006B27BE: 0000                     ADD [EAX], AL
006B27C0: 0000                     ADD [EAX], AL
006B27C2: 0000                     ADD [EAX], AL
006B27C4: 0000                     ADD [EAX], AL
006B27C6: 0000                     ADD [EAX], AL
006B27C8: 0000                     ADD [EAX], AL
006B27CA: 0000                     ADD [EAX], AL
006B27CC: 0000                     ADD [EAX], AL
006B27CE: 0000                     ADD [EAX], AL
006B27D0: 0000                     ADD [EAX], AL
006B27D2: 0000                     ADD [EAX], AL
006B27D4: 0000                     ADD [EAX], AL
006B27D6: 0000                     ADD [EAX], AL
006B27D8: 0000                     ADD [EAX], AL
006B27DA: 0000                     ADD [EAX], AL
006B27DC: 0000                     ADD [EAX], AL
006B27DE: 0000                     ADD [EAX], AL
006B27E0: 0000                     ADD [EAX], AL
006B27E2: 0000                     ADD [EAX], AL
006B27E4: 0000                     ADD [EAX], AL
006B27E6: 0000                     ADD [EAX], AL
006B27E8: 0000                     ADD [EAX], AL
006B27EA: 0000                     ADD [EAX], AL
006B27EC: 0000                     ADD [EAX], AL
006B27EE: 0000                     ADD [EAX], AL
006B27F0: 0000                     ADD [EAX], AL
006B27F2: 0000                     ADD [EAX], AL
006B27F4: 0000                     ADD [EAX], AL
006B27F6: 0000                     ADD [EAX], AL
006B27F8: 0000                     ADD [EAX], AL
006B27FA: 0000                     ADD [EAX], AL
006B27FC: 0000                     ADD [EAX], AL
006B27FE: 0000                     ADD [EAX], AL
006B2800: 0000                     ADD [EAX], AL
006B2802: 0000                     ADD [EAX], AL
006B2804: 0000                     ADD [EAX], AL
006B2806: 0000                     ADD [EAX], AL
006B2808: 0000                     ADD [EAX], AL
006B280A: 0000                     ADD [EAX], AL
006B280C: 0000                     ADD [EAX], AL
006B280E: 0200                     ADD AL, [EAX]
006B2810: 1000                     ADC [EAX], AL
006B2812: 0000                     ADD [EAX], AL
006B2814: 2000                     AND [EAX], AL
006B2816: 008018000000             ADD [EAX+00000018H], AL
006B281C: 50                       PUSH EAX
006B281D: 0000                     ADD [EAX], AL
006B281F: 800000                   ADD BYTE PTR [EAX], 00H
006B2822: 0000                     ADD [EAX], AL
006B2824: 0000                     ADD [EAX], AL
006B2826: 0000                     ADD [EAX], AL
006B2828: 0000                     ADD [EAX], AL
006B282A: 0000                     ADD [EAX], AL
006B282C: 0000                     ADD [EAX], AL
006B282E: 0100                     ADD [EAX], EAX
006B2830: 0100                     ADD [EAX], EAX
006B2832: 0000                     ADD [EAX], AL
006B2834: 3800                     CMP [EAX], AL
006B2836: 008000000000             ADD [EAX], AL
006B283C: 0000                     ADD [EAX], AL
006B283E: 0000                     ADD [EAX], AL
006B2840: 0000                     ADD [EAX], AL
006B2842: 0000                     ADD [EAX], AL
006B2844: 0000                     ADD [EAX], AL
006B2846: 0100                     ADD [EAX], EAX
006B2848: 0000                     ADD [EAX], AL
006B284A: 0000                     ADD [EAX], AL
006B284C: 800000                   ADD BYTE PTR [EAX], 00H
006B284F: 0000                     ADD [EAX], AL
006B2851: 0000                     ADD [EAX], AL
006B2853: 0000                     ADD [EAX], AL
006B2855: 0000                     ADD [EAX], AL
006B2857: 0000                     ADD [EAX], AL
006B2859: 0000                     ADD [EAX], AL
006B285B: 0000                     ADD [EAX], AL
006B285D: 0001                     ADD [ECX], AL
006B285F: 0001                     ADD [ECX], AL
006B2861: 0000                     ADD [EAX], AL
006B2863: 006800                   ADD [EAX], CH
006B2866: 008000000000             ADD [EAX], AL
006B286C: 0000                     ADD [EAX], AL
006B286E: 0000                     ADD [EAX], AL
006B2870: 0000                     ADD [EAX], AL
006B2872: 0000                     ADD [EAX], AL
006B2874: 0000                     ADD [EAX], AL
006B2876: 0100                     ADD [EAX], EAX
006B2878: 0000                     ADD [EAX], AL
006B287A: 0000                     ADD [EAX], AL
006B287C: C00300                   ROL BYTE PTR [EBX], 00H
006B287F: 0090402B0030             ADD [EAX+30002B40H], DL
006B2885: 0300                     ADD EAX, [EAX]
006B2887: 0000                     ADD [EAX], AL
006B2889: 0000                     ADD [EAX], AL
006B288B: 0000                     ADD [EAX], AL
006B288D: 0000                     ADD [EAX], AL
006B288F: 0030                     ADD [EAX], DH
006B2891: 033400                   ADD ESI, [EAX+EAX]
006B2894: 0000                     ADD [EAX], AL
006B2896: 56                       PUSH ESI
006B2897: 005300                   ADD [EBX], DL
006B289A: 5F                       POP EDI
006B289B: 005600                   ADD [ESI], DL
006B289E: 45                       INC EBP
006B289F: 005200                   ADD [EDX], DL
006B28A2: 53                       PUSH EBX
006B28A3: 004900                   ADD [ECX], CL
006B28A6: 4F                       DEC EDI
006B28A7: 004E00                   ADD [ESI], CL
006B28AA: 5F                       POP EDI
006B28AB: 004900                   ADD [ECX], CL
006B28AE: 4E                       DEC ESI
006B28AF: 004600                   ADD [ESI], AL
006B28B2: 4F                       DEC EDI
006B28B3: 0000                     ADD [EAX], AL
006B28B5: 0000                     ADD [EAX], AL
006B28B7: 00BD04EFFE00             ADD [EBP+00FEEF04H], BH
006B28BD: 0001                     ADD [ECX], AL
006B28BF: 0000                     ADD [EAX], AL
006B28C1: 0002                     ADD [EDX], AL
006B28C3: 00A300000000             ADD [EBX], AH
006B28C9: 0002                     ADD [EDX], AL
006B28CB: 00A30000003F             ADD [EBX+3F000000H], AH
006B28D1: 0000                     ADD [EAX], AL
006B28D3: 0000                     ADD [EAX], AL
006B28D5: 0000                     ADD [EAX], AL
006B28D7: 000400                   ADD [EAX+EAX], AL
006B28DA: 0000                     ADD [EAX], AL
006B28DC: 0100                     ADD [EAX], EAX
006B28DE: 0000                     ADD [EAX], AL
006B28E0: 0000                     ADD [EAX], AL
006B28E2: 0000                     ADD [EAX], AL
006B28E4: 0000                     ADD [EAX], AL
006B28E6: 0000                     ADD [EAX], AL
006B28E8: 0000                     ADD [EAX], AL
006B28EA: 0000                     ADD [EAX], AL
006B28EC: 44                       INC ESP
006B28ED: 0000                     ADD [EAX], AL
006B28EF: 0001                     ADD [ECX], AL
006B28F1: 005600                   ADD [ESI], DL
006B28F4: 61                       POPAD 
006B28F5: 007200                   ADD [EDX], DH
006B28F8: 46                       INC ESI
006B28F9: 006900                   ADD [ECX], CH
006B28FC: 6C                       INSB 
006B28FD: 006500                   ADD [EBP], AH
006B2900: 49                       DEC ECX
006B2901: 006E00                   ADD [ESI], CH
006B2904: 66006F00                 ADD [EDI], CH
006B2908: 0000                     ADD [EAX], AL
006B290A: 0000                     ADD [EAX], AL
006B290C: 2400                     AND AL, 00H
006B290E: 0400                     ADD AL, 00H
006B2910: 0000                     ADD [EAX], AL
006B2912: 54                       PUSH ESP
006B2913: 007200                   ADD [EDX], DH
006B2916: 61                       POPAD 
006B2917: 006E00                   ADD [ESI], CH
006B291A: 7300                     JNB 6B291CH
006B291C: 6C                       INSB 
006B291D: 006100                   ADD [ECX], AH
006B2920: 7400                     JZ 6B2922H
006B2922: 69006F006E00             IMUL EAX, [EAX], 006E006FH
006B2928: 0000                     ADD [EAX], AL
006B292A: 0000                     ADD [EAX], AL
006B292C: 0000                     ADD [EAX], AL
006B292E: B004                     MOV AL, 04H
006B2930: 90                       NOP 
006B2931: 0200                     ADD AL, [EAX]
006B2933: 0001                     ADD [ECX], AL
006B2935: 005300                   ADD [EBX], DL
006B2938: 7400                     JZ 6B293AH
006B293A: 7200                     JB 6B293CH
006B293C: 69006E006700             IMUL EAX, [EAX], 0067006EH
006B2942: 46                       INC ESI
006B2943: 006900                   ADD [ECX], CH
006B2946: 6C                       INSB 
006B2947: 006500                   ADD [EBP], AH
006B294A: 49                       DEC ECX
006B294B: 006E00                   ADD [ESI], CH
006B294E: 66006F00                 ADD [EDI], CH
006B2952: 0000                     ADD [EAX], AL
006B2954: 6C                       INSB 
006B2955: 0200                     ADD AL, [EAX]
006B2957: 0001                     ADD [ECX], AL
006B2959: 0030                     ADD [EAX], DH
006B295B: 0030                     ADD [EAX], DH
006B295D: 0030                     ADD [EAX], DH
006B295F: 0030                     ADD [EAX], DH
006B2961: 0030                     ADD [EAX], DH
006B2963: 003400                   ADD [EAX+EAX], DH
006B2966: 6200                     BOUND EAX, [EAX]
006B2968: 3000                     XOR [EAX], AL
006B296A: 0000                     ADD [EAX], AL
006B296C: 36000F                   ADD SS:[EDI], CL
006B296F: 0001                     ADD [ECX], AL
006B2971: 004300                   ADD [EBX], AL
006B2974: 6F                       OUTSD 
006B2975: 006D00                   ADD [EBP], CH
006B2978: 6D                       INSD 
006B2979: 006500                   ADD [EBP], AH
006B297C: 6E                       OUTSB 
006B297D: 00740073                 ADD [EAX+EAX+73H], DH
006B2981: 0000                     ADD [EAX], AL
006B2983: 004100                   ADD [ECX], AL
006B2986: 6200                     BOUND EAX, [EAX]
006B2988: 61                       POPAD 
006B2989: 006E00                   ADD [ESI], CH
006B298C: 7400                     JZ 6B298EH
006B298E: 65007300                 ADD GS:[EBX], DH
006B2992: 2000                     AND [EAX], AL
006B2994: 54                       PUSH ESP
006B2995: 007200                   ADD [EDX], DH
006B2998: 6F                       OUTSD 
006B2999: 006A00                   ADD [EDX], CH
006B299C: 61                       POPAD 
006B299D: 006E00                   ADD [ESI], CH
006B29A0: 0000                     ADD [EAX], AL
006B29A2: 0000                     ADD [EAX], AL
006B29A4: 2200                     AND AL, [EAX]
006B29A6: 0100                     ADD [EAX], EAX
006B29A8: 0100                     ADD [EAX], EAX
006B29AA: 43                       INC EBX
006B29AB: 006F00                   ADD [EDI], CH
006B29AE: 6D                       INSD 
006B29AF: 007000                   ADD [EAX], DH
006B29B2: 61                       POPAD 
006B29B3: 006E00                   ADD [ESI], CH
006B29B6: 7900                     JNS 6B29B8H
006B29B8: 4E                       DEC ESI
006B29B9: 006100                   ADD [ECX], AH
006B29BC: 6D                       INSD 
006B29BD: 006500                   ADD [EBP], AH
006B29C0: 0000                     ADD [EAX], AL
006B29C2: 0000                     ADD [EAX], AL
006B29C4: 0000                     ADD [EAX], AL
006B29C6: 0000                     ADD [EAX], AL
006B29C8: 3800                     CMP [EAX], AL
006B29CA: 0800                     OR [EAX], AL
006B29CC: 0100                     ADD [EAX], EAX
006B29CE: 46                       INC ESI
006B29CF: 006900                   ADD [ECX], CH
006B29D2: 6C                       INSB 
006B29D3: 006500                   ADD [EBP], AH
006B29D6: 44                       INC ESP
006B29D7: 006500                   ADD [EBP], AH
006B29DA: 7300                     JNB 6B29DCH
006B29DC: 6300                     ARPL EAX, [EAX]
006B29DE: 7200                     JB 6B29E0H
006B29E0: 690070007400             IMUL EAX, [EAX], 00740070H
006B29E6: 69006F006E00             IMUL EAX, [EAX], 006E006FH
006B29EC: 0000                     ADD [EAX], AL
006B29EE: 0000                     ADD [EAX], AL
006B29F0: 41                       INC ECX
006B29F1: 006200                   ADD [EDX], AH
006B29F4: 61                       POPAD 
006B29F5: 006E00                   ADD [ESI], CH
006B29F8: 7400                     JZ 6B29FAH
006B29FA: 65007300                 ADD GS:[EBX], DH
006B29FE: 0000                     ADD [EAX], AL
006B2A00: 3400                     XOR AL, 00H
006B2A02: 0A00                     OR AL, [EAX]
006B2A04: 0100                     ADD [EAX], EAX
006B2A06: 46                       INC ESI
006B2A07: 006900                   ADD [ECX], CH
006B2A0A: 6C                       INSB 
006B2A0B: 006500                   ADD [EBP], AH
006B2A0E: 56                       PUSH ESI
006B2A0F: 006500                   ADD [EBP], AH
006B2A12: 7200                     JB 6B2A14H
006B2A14: 7300                     JNB 6B2A16H
006B2A16: 69006F006E00             IMUL EAX, [EAX], 006E006FH
006B2A1C: 0000                     ADD [EAX], AL
006B2A1E: 0000                     ADD [EAX], AL
006B2A20: 3200                     XOR AL, [EAX]
006B2A22: 2E0030                   ADD CS:[EAX], DH
006B2A25: 002E                     ADD [ESI], CH
006B2A27: 0030                     ADD [EAX], DH
006B2A29: 002E                     ADD [ESI], CH
006B2A2B: 0031                     ADD [ECX], DH
006B2A2D: 0036                     ADD [ESI], DH
006B2A2F: 0033                     ADD [EBX], DH
006B2A31: 0000                     ADD [EAX], AL
006B2A33: 0038                     ADD [EAX], BH
006B2A35: 000C00                   ADD [EAX+EAX], CL
006B2A38: 0100                     ADD [EAX], EAX
006B2A3A: 49                       DEC ECX
006B2A3B: 006E00                   ADD [ESI], CH
006B2A3E: 7400                     JZ 6B2A40H
006B2A40: 65007200                 ADD GS:[EDX], DH
006B2A44: 6E                       OUTSB 
006B2A45: 006100                   ADD [ECX], AH
006B2A48: 6C                       INSB 
006B2A49: 004E00                   ADD [ESI], CL
006B2A4C: 61                       POPAD 
006B2A4D: 006D00                   ADD [EBP], CH
006B2A50: 650000                   ADD GS:[EAX], AL
006B2A53: 004100                   ADD [ECX], AL
006B2A56: 6200                     BOUND EAX, [EAX]
006B2A58: 61                       POPAD 
006B2A59: 006E00                   ADD [ESI], CH
006B2A5C: 7400                     JZ 6B2A5EH
006B2A5E: 65007300                 ADD GS:[EBX], DH
006B2A62: 2E006500                 ADD CS:[EBP], AH
006B2A66: 7800                     JS 6B2A68H
006B2A68: 650000                   ADD GS:[EAX], AL
006B2A6B: 00440010                 ADD [EAX+EAX+10H], AL
006B2A6F: 0001                     ADD [ECX], AL
006B2A71: 004C0065                 ADD [EAX+EAX+65H], CL
006B2A75: 006700                   ADD [EDI], AH
006B2A78: 61                       POPAD 
006B2A79: 006C0043                 ADD [EAX+EAX+43H], CH
006B2A7D: 006F00                   ADD [EDI], CH
006B2A80: 7000                     JO 6B2A82H
006B2A82: 7900                     JNS 6B2A84H
006B2A84: 7200                     JB 6B2A86H
006B2A86: 690067006800             IMUL EAX, [EAX], 00680067H
006B2A8C: 7400                     JZ 6B2A8EH
006B2A8E: 0000                     ADD [EAX], AL
006B2A90: 43                       INC EBX
006B2A91: 006F00                   ADD [EDI], CH
006B2A94: 7000                     JO 6B2A96H
006B2A96: 7900                     JNS 6B2A98H
006B2A98: 7200                     JB 6B2A9AH
006B2A9A: 690067006800             IMUL EAX, [EAX], 00680067H
006B2AA0: 7400                     JZ 6B2AA2H
006B2AA2: 2000                     AND [EAX], AL
006B2AA4: 2000                     AND [EAX], AL
006B2AA6: 3200                     XOR AL, [EAX]
006B2AA8: 3000                     XOR [EAX], AL
006B2AAA: 3100                     XOR [EAX], EAX
006B2AAC: 3800                     CMP [EAX], AL
006B2AAE: 0000                     ADD [EAX], AL
006B2AB0: 2A00                     SUB AL, [EAX]
006B2AB2: 0100                     ADD [EAX], EAX
006B2AB4: 0100                     ADD [EAX], EAX
006B2AB6: 4C                       DEC ESP
006B2AB7: 006500                   ADD [EBP], AH
006B2ABA: 67006100                 ADD [BX+DI], AH
006B2ABE: 6C                       INSB 
006B2ABF: 00540072                 ADD [EAX+EAX+72H], DL
006B2AC3: 006100                   ADD [ECX], AH
006B2AC6: 64006500                 ADD FS:[EBP], AH
006B2ACA: 6D                       INSD 
006B2ACB: 006100                   ADD [ECX], AH
006B2ACE: 7200                     JB 6B2AD0H
006B2AD0: 6B0073                   IMUL EAX, [EAX], 73H
006B2AD3: 0000                     ADD [EAX], AL
006B2AD5: 0000                     ADD [EAX], AL
006B2AD7: 0000                     ADD [EAX], AL
006B2AD9: 0000                     ADD [EAX], AL
006B2ADB: 004000                   ADD [EAX], AL
006B2ADE: 0C00                     OR AL, 00H
006B2AE0: 0100                     ADD [EAX], EAX
006B2AE2: 4F                       DEC EDI
006B2AE3: 007200                   ADD [EDX], DH
006B2AE6: 690067006900             IMUL EAX, [EAX], 00690067H
006B2AEC: 6E                       OUTSB 
006B2AED: 006100                   ADD [ECX], AH
006B2AF0: 6C                       INSB 
006B2AF1: 004600                   ADD [ESI], AL
006B2AF4: 69006C006500             IMUL EAX, [EAX], 0065006CH
006B2AFA: 6E                       OUTSB 
006B2AFB: 006100                   ADD [ECX], AH
006B2AFE: 6D                       INSD 
006B2AFF: 006500                   ADD [EBP], AH
006B2B02: 0000                     ADD [EAX], AL
006B2B04: 41                       INC ECX
006B2B05: 006200                   ADD [EDX], AH
006B2B08: 61                       POPAD 
006B2B09: 006E00                   ADD [ESI], CH
006B2B0C: 7400                     JZ 6B2B0EH
006B2B0E: 65007300                 ADD GS:[EBX], DH
006B2B12: 2E006500                 ADD CS:[EBP], AH
006B2B16: 7800                     JS 6B2B18H
006B2B18: 650000                   ADD GS:[EAX], AL
006B2B1B: 0030                     ADD [EAX], DH
006B2B1D: 0008                     ADD [EAX], CL
006B2B1F: 0001                     ADD [ECX], AL
006B2B21: 005000                   ADD [EAX], DL
006B2B24: 7200                     JB 6B2B26H
006B2B26: 6F                       OUTSD 
006B2B27: 00640075                 ADD [EAX+EAX+75H], AH
006B2B2B: 006300                   ADD [EBX], AH
006B2B2E: 7400                     JZ 6B2B30H
006B2B30: 4E                       DEC ESI
006B2B31: 006100                   ADD [ECX], AH
006B2B34: 6D                       INSD 
006B2B35: 006500                   ADD [EBP], AH
006B2B38: 0000                     ADD [EAX], AL
006B2B3A: 0000                     ADD [EAX], AL
006B2B3C: 41                       INC ECX
006B2B3D: 006200                   ADD [EDX], AH
006B2B40: 61                       POPAD 
006B2B41: 006E00                   ADD [ESI], CH
006B2B44: 7400                     JZ 6B2B46H
006B2B46: 65007300                 ADD GS:[EBX], DH
006B2B4A: 0000                     ADD [EAX], AL
006B2B4C: 3800                     CMP [EAX], AL
006B2B4E: 0A00                     OR AL, [EAX]
006B2B50: 0100                     ADD [EAX], EAX
006B2B52: 50                       PUSH EAX
006B2B53: 007200                   ADD [EDX], DH
006B2B56: 6F                       OUTSD 
006B2B57: 00640075                 ADD [EAX+EAX+75H], AH
006B2B5B: 006300                   ADD [EBX], AH
006B2B5E: 7400                     JZ 6B2B60H
006B2B60: 56                       PUSH ESI
006B2B61: 006500                   ADD [EBP], AH
006B2B64: 7200                     JB 6B2B66H
006B2B66: 7300                     JNB 6B2B68H
006B2B68: 69006F006E00             IMUL EAX, [EAX], 006E006FH
006B2B6E: 0000                     ADD [EAX], AL
006B2B70: 3200                     XOR AL, [EAX]
006B2B72: 2E0030                   ADD CS:[EAX], DH
006B2B75: 002E                     ADD [ESI], CH
006B2B77: 0030                     ADD [EAX], DH
006B2B79: 002E                     ADD [ESI], CH
006B2B7B: 0031                     ADD [ECX], DH
006B2B7D: 0036                     ADD [ESI], DH
006B2B7F: 0033                     ADD [EBX], DH
006B2B81: 0000                     ADD [EAX], AL
006B2B83: 003C00                   ADD [EAX+EAX], BH
006B2B86: 0A00                     OR AL, [EAX]
006B2B88: 0100                     ADD [EAX], EAX
006B2B8A: 41                       INC ECX
006B2B8B: 007300                   ADD [EBX], DH
006B2B8E: 7300                     JNB 6B2B90H
006B2B90: 65006D00                 ADD GS:[EBP], CH
006B2B94: 6200                     BOUND EAX, [EAX]
006B2B96: 6C                       INSB 
006B2B97: 007900                   ADD [ECX], BH
006B2B9A: 2000                     AND [EAX], AL
006B2B9C: 56                       PUSH ESI
006B2B9D: 006500                   ADD [EBP], AH
006B2BA0: 7200                     JB 6B2BA2H
006B2BA2: 7300                     JNB 6B2BA4H
006B2BA4: 69006F006E00             IMUL EAX, [EAX], 006E006FH
006B2BAA: 0000                     ADD [EAX], AL
006B2BAC: 3200                     XOR AL, [EAX]
006B2BAE: 2E0030                   ADD CS:[EAX], DH
006B2BB1: 002E                     ADD [ESI], CH
006B2BB3: 0030                     ADD [EAX], DH
006B2BB5: 002E                     ADD [ESI], CH
006B2BB7: 0031                     ADD [ECX], DH
006B2BB9: 0036                     ADD [ESI], DH
006B2BBB: 0033                     ADD [EBX], DH
006B2BBD: 0000                     ADD [EAX], AL
006B2BBF: 00D0                     ADD AL, DL
006B2BC1: 43                       INC EBX
006B2BC2: 2B00                     SUB EAX, [EAX]
006B2BC4: 040C                     ADD AL, 0CH
006B2BC6: 0000                     ADD [EAX], AL
006B2BC8: 0000                     ADD [EAX], AL
006B2BCA: 0000                     ADD [EAX], AL
006B2BCC: 0000                     ADD [EAX], AL
006B2BCE: 0000                     ADD [EAX], AL
006B2BD0: EF                       OUT DX, EAX
006B2BD1: BBBF3C3F78               MOV EBX, 783F3CBFH
006B2BD6: 6D                       INSD 
006B2BD7: 6C                       INSB 
006B2BD8: 207665                   AND [ESI+65H], DH
006B2BDB: 7273                     JB 6B2C50H
006B2BDD: 696F6E3D22312E           IMUL EBP, [EDI+6EH], 2E31223DH
006B2BE4: 3022                     XOR [EDX], AH
006B2BE6: 20656E                   AND [EBP+6EH], AH
006B2BE9: 636F64                   ARPL EBP, [EDI+64H]
006B2BEC: 696E673D227574           IMUL EBP, [ESI+67H], 7475223DH
006B2BF3: 662D3822                 SUB AX, 2238H
006B2BF7: 3F                       AAS 
006B2BF8: 3E0A3C61                 OR BH, DS:[ECX+*2]
006B2BFC: 7373                     JNB 6B2C71H
006B2BFE: 656D                     INSD 
006B2C00: 626C7920                 BOUND EBP, [ECX+EDI*2+20H]
006B2C04: 6D                       INSD 
006B2C05: 61                       POPAD 
006B2C06: 6E                       OUTSB 
006B2C07: 69666573745665           IMUL ESP, [ESI+65H], 65567473H
006B2C0E: 7273                     JB 6B2C83H
006B2C10: 696F6E3D22312E           IMUL EBP, [EDI+6EH], 2E31223DH
006B2C17: 3022                     XOR [EDX], AH
006B2C19: 20786D                   AND [EAX+6DH], BH
006B2C1C: 6C                       INSB 
006B2C1D: 6E                       OUTSB 
006B2C1E: 733D                     JNB 6B2C5DH
006B2C20: 227572                   AND DH, [EBP+72H]
006B2C23: 6E                       OUTSB 
006B2C24: 3A7363                   CMP DH, [EBX+63H]
006B2C27: 68656D6173               PUSH 73616D65H
006B2C2C: 2D6D696372               SUB EAX, 7263696DH
006B2C31: 6F                       OUTSD 
006B2C32: 736F                     JNB 6B2CA3H
006B2C34: 66742D                   JZ 2C64H
006B2C37: 636F6D                   ARPL EBP, [EDI+6DH]
006B2C3A: 3A6173                   CMP AH, [ECX+73H]
006B2C3D: 6D                       INSD 
006B2C3E: 2E7631                   JBE 6B2C72H
006B2C41: 223E                     AND BH, [ESI]
006B2C43: 0A20                     OR AH, [EAX]
006B2C45: 203C61                   AND BH, [ECX+*2]
006B2C48: 7373                     JNB 6B2CBDH
006B2C4A: 656D                     INSD 
006B2C4C: 626C7949                 BOUND EBP, [ECX+EDI*2+49H]
006B2C50: 64656E                   OUTSB 
006B2C53: 7469                     JZ 6B2CBEH
006B2C55: 7479                     JZ 6B2CD0H
006B2C57: 207665                   AND [ESI+65H], DH
006B2C5A: 7273                     JB 6B2CCFH
006B2C5C: 696F6E3D22312E           IMUL EBP, [EDI+6EH], 2E31223DH
006B2C63: 302E                     XOR [ESI], CH
006B2C65: 302E                     XOR [ESI], CH
006B2C67: 3022                     XOR [EDX], AH
006B2C69: 206E61                   AND [ESI+61H], CH
006B2C6C: 6D                       INSD 
006B2C6D: 653D224D7941             CMP EAX, 41794D22H
006B2C73: 7070                     JO 6B2CE5H
006B2C75: 6C                       INSB 
006B2C76: 69636174696F6E           IMUL ESP, [EBX+61H], 6E6F6974H
006B2C7D: 2E61                     POPAD 
006B2C7F: 7070                     JO 6B2CF1H
006B2C81: 222F                     AND CH, [EDI]
006B2C83: 3E0A20                   OR AH, DS:[EAX]
006B2C86: 203C74                   AND [ESP+ESI*2], BH
006B2C89: 7275                     JB 6B2D00H
006B2C8B: 7374                     JNB 6B2D01H
006B2C8D: 49                       DEC ECX
006B2C8E: 6E                       OUTSB 
006B2C8F: 666F                     OUTSW 
006B2C91: 20786D                   AND [EAX+6DH], BH
006B2C94: 6C                       INSB 
006B2C95: 6E                       OUTSB 
006B2C96: 733D                     JNB 6B2CD5H
006B2C98: 227572                   AND DH, [EBP+72H]
006B2C9B: 6E                       OUTSB 
006B2C9C: 3A7363                   CMP DH, [EBX+63H]
006B2C9F: 68656D6173               PUSH 73616D65H
006B2CA4: 2D6D696372               SUB EAX, 7263696DH
006B2CA9: 6F                       OUTSD 
006B2CAA: 736F                     JNB 6B2D1BH
006B2CAC: 66742D                   JZ 2CDCH
006B2CAF: 636F6D                   ARPL EBP, [EDI+6DH]
006B2CB2: 3A6173                   CMP AH, [ECX+73H]
006B2CB5: 6D                       INSD 
006B2CB6: 2E7632                   JBE 6B2CEBH
006B2CB9: 223E                     AND BH, [ESI]
006B2CBB: 0A20                     OR AH, [EAX]
006B2CBD: 2020                     AND [EAX], AH
006B2CBF: 203C73                   AND [EBX+ESI*2], BH
006B2CC2: 65637572                 ARPL ESI, GS:[EBP+72H]
006B2CC6: 6974793E0A202020         IMUL ESI, [ECX+EDI*2+3EH], 2020200AH
006B2CCE: 2020                     AND [EAX], AH
006B2CD0: 203C72                   AND [EDX+ESI*2], BH
006B2CD3: 657175                   JNO 6B2D4BH
006B2CD6: 657374                   JNB 6B2D4DH
006B2CD9: 656450                   PUSH EAX
006B2CDC: 7269                     JB 6B2D47H
006B2CDE: 7669                     JBE 6B2D49H
006B2CE0: 6C                       INSB 
006B2CE1: 6567657320               JNB 6B2D06H
006B2CE6: 786D                     JS 6B2D55H
006B2CE8: 6C                       INSB 
006B2CE9: 6E                       OUTSB 
006B2CEA: 733D                     JNB 6B2D29H
006B2CEC: 227572                   AND DH, [EBP+72H]
006B2CEF: 6E                       OUTSB 
006B2CF0: 3A7363                   CMP DH, [EBX+63H]
006B2CF3: 68656D6173               PUSH 73616D65H
006B2CF8: 2D6D696372               SUB EAX, 7263696DH
006B2CFD: 6F                       OUTSD 
006B2CFE: 736F                     JNB 6B2D6FH
006B2D00: 66742D                   JZ 2D30H
006B2D03: 636F6D                   ARPL EBP, [EDI+6DH]
006B2D06: 3A6173                   CMP AH, [ECX+73H]
006B2D09: 6D                       INSD 
006B2D0A: 2E7633                   JBE 6B2D40H
006B2D0D: 223E                     AND BH, [ESI]
006B2D0F: 0A20                     OR AH, [EAX]
006B2D11: 2020                     AND [EAX], AH
006B2D13: 2020                     AND [EAX], AH
006B2D15: 2020                     AND [EAX], AH
006B2D17: 203C21                   AND [ECX+], BH
006B2D1A: 2D2D205541               SUB EAX, 4155202DH
006B2D1F: 43                       INC EBX
006B2D20: 204D61                   AND [EBP+61H], CL
006B2D23: 6E                       OUTSB 
006B2D24: 6966657374204F           IMUL ESP, [ESI+65H], 4F207473H
006B2D2B: 7074                     JO 6B2DA1H
006B2D2D: 696F6E730A2020           IMUL EBP, [EDI+6EH], 20200A73H
006B2D34: 2020                     AND [EAX], AH
006B2D36: 2020                     AND [EAX], AH
006B2D38: 2020                     AND [EAX], AH
006B2D3A: 2020                     AND [EAX], AH
006B2D3C: 2020                     AND [EAX], AH
006B2D3E: 204966                   AND [ECX+66H], CL
006B2D41: 20796F                   AND [ECX+6FH], BH
006B2D44: 7520                     JNZ 6B2D66H
006B2D46: 7761                     JNBE 6B2DA9H
006B2D48: 6E                       OUTSB 
006B2D49: 7420                     JZ 6B2D6BH
006B2D4B: 746F                     JZ 6B2DBCH
006B2D4D: 206368                   AND [EBX+68H], AH
006B2D50: 61                       POPAD 
006B2D51: 6E                       OUTSB 
006B2D52: 6765207468               AND GS:[SI+68H], DH
006B2D57: 65205769                 AND GS:[EDI+69H], DL
006B2D5B: 6E                       OUTSB 
006B2D5C: 646F                     OUTSD 
006B2D5E: 7773                     JNBE 6B2DD3H
006B2D60: 205573                   AND [EBP+73H], DL
006B2D63: 657220                   JB 6B2D86H
006B2D66: 41                       INC ECX
006B2D67: 63636F                   ARPL ESP, [EBX+6FH]
006B2D6A: 756E                     JNZ 6B2DDAH
006B2D6C: 7420                     JZ 6B2D8EH
006B2D6E: 43                       INC EBX
006B2D6F: 6F                       OUTSD 
006B2D70: 6E                       OUTSB 
006B2D71: 7472                     JZ 6B2DE5H
006B2D73: 6F                       OUTSD 
006B2D74: 6C                       INSB 
006B2D75: 206C6576                 AND CH, [EBP+*2]
006B2D79: 656C                     INSB 
006B2D7B: 207265                   AND [EDX+65H], DH
006B2D7E: 706C                     JO 6B2DECH
006B2D80: 61                       POPAD 
006B2D81: 636520                   ARPL ESP, [EBP+20H]
006B2D84: 7468                     JZ 6B2DEEH
006B2D86: 65200A                   AND GS:[EDX], CL
006B2D89: 2020                     AND [EAX], AH
006B2D8B: 2020                     AND [EAX], AH
006B2D8D: 2020                     AND [EAX], AH
006B2D8F: 2020                     AND [EAX], AH
006B2D91: 2020                     AND [EAX], AH
006B2D93: 2020                     AND [EAX], AH
006B2D95: 207265                   AND [EDX+65H], DH
006B2D98: 7175                     JNO 6B2E0FH
006B2D9A: 657374                   JNB 6B2E11H
006B2D9D: 656445                   INC EBP
006B2DA0: 7865                     JS 6B2E07H
006B2DA2: 637574                   ARPL ESI, [EBP+74H]
006B2DA5: 696F6E4C657665           IMUL EBP, [EDI+6EH], 6576654CH
006B2DAC: 6C                       INSB 
006B2DAD: 206E6F                   AND [ESI+6FH], CH
006B2DB0: 6465207769               AND GS:[EDI+69H], DH
006B2DB5: 7468                     JZ 6B2E1FH
006B2DB7: 206F6E                   AND [EDI+6EH], CH
006B2DBA: 65206F66                 AND GS:[EDI+66H], CH
006B2DBE: 20746865                 AND [EAX+EBP*2+65H], DH
006B2DC2: 20666F                   AND [ESI+6FH], AH
006B2DC5: 6C                       INSB 
006B2DC6: 6C                       INSB 
006B2DC7: 6F                       OUTSD 
006B2DC8: 7769                     JNBE 6B2E33H
006B2DCA: 6E                       OUTSB 
006B2DCB: 672E0A0A                 OR CL, CS:[BP+SI]
006B2DCF: 2020                     AND [EAX], AH
006B2DD1: 2020                     AND [EAX], AH
006B2DD3: 2020                     AND [EAX], AH
006B2DD5: 2020                     AND [EAX], AH
006B2DD7: 3C72                     CMP AL, 72H
006B2DD9: 657175                   JNO 6B2E51H
006B2DDC: 657374                   JNB 6B2E53H
006B2DDF: 656445                   INC EBP
006B2DE2: 7865                     JS 6B2E49H
006B2DE4: 637574                   ARPL ESI, [EBP+74H]
006B2DE7: 696F6E4C657665           IMUL EBP, [EDI+6EH], 6576654CH
006B2DEE: 6C                       INSB 
006B2DEF: 2020                     AND [EAX], AH
006B2DF1: 6C                       INSB 
006B2DF2: 657665                   JBE 6B2E5AH
006B2DF5: 6C                       INSB 
006B2DF6: 3D22617349               CMP EAX, 49736122H
006B2DFB: 6E                       OUTSB 
006B2DFC: 766F                     JBE 6B2E6DH
006B2DFE: 6B657222                 IMUL ESP, [EBP+72H], 22H
006B2E02: 207569                   AND [EBP+69H], DH
006B2E05: 41                       INC ECX
006B2E06: 636365                   ARPL ESP, [EBX+65H]
006B2E09: 7373                     JNB 6B2E7EH
006B2E0B: 3D2266616C               CMP EAX, 6C616622H
006B2E10: 7365                     JNB 6B2E77H
006B2E12: 2220                     AND AH, [EAX]
006B2E14: 2F                       DAS 
006B2E15: 3E0A20                   OR AH, DS:[EAX]
006B2E18: 2020                     AND [EAX], AH
006B2E1A: 2020                     AND [EAX], AH
006B2E1C: 2020                     AND [EAX], AH
006B2E1E: 203C72                   AND [EDX+ESI*2], BH
006B2E21: 657175                   JNO 6B2E99H
006B2E24: 657374                   JNB 6B2E9BH
006B2E27: 656445                   INC EBP
006B2E2A: 7865                     JS 6B2E91H
006B2E2C: 637574                   ARPL ESI, [EBP+74H]
006B2E2F: 696F6E4C657665           IMUL EBP, [EDI+6EH], 6576654CH
006B2E36: 6C                       INSB 
006B2E37: 2020                     AND [EAX], AH
006B2E39: 6C                       INSB 
006B2E3A: 657665                   JBE 6B2EA2H
006B2E3D: 6C                       INSB 
006B2E3E: 3D22726571               CMP EAX, 71657222H
006B2E43: 7569                     JNZ 6B2EAEH
006B2E45: 7265                     JB 6B2EACH
006B2E47: 41                       INC ECX
006B2E48: 646D                     INSD 
006B2E4A: 696E6973747261           IMUL EBP, [ESI+69H], 61727473H
006B2E51: 746F                     JZ 6B2EC2H
006B2E53: 7222                     JB 6B2E77H
006B2E55: 207569                   AND [EBP+69H], DH
006B2E58: 41                       INC ECX
006B2E59: 636365                   ARPL ESP, [EBX+65H]
006B2E5C: 7373                     JNB 6B2ED1H
006B2E5E: 3D2266616C               CMP EAX, 6C616622H
006B2E63: 7365                     JNB 6B2ECAH
006B2E65: 2220                     AND AH, [EAX]
006B2E67: 2F                       DAS 
006B2E68: 3E0A20                   OR AH, DS:[EAX]
006B2E6B: 2020                     AND [EAX], AH
006B2E6D: 2020                     AND [EAX], AH
006B2E6F: 2020                     AND [EAX], AH
006B2E71: 203C72                   AND [EDX+ESI*2], BH
006B2E74: 657175                   JNO 6B2EECH
006B2E77: 657374                   JNB 6B2EEEH
006B2E7A: 656445                   INC EBP
006B2E7D: 7865                     JS 6B2EE4H
006B2E7F: 637574                   ARPL ESI, [EBP+74H]
006B2E82: 696F6E4C657665           IMUL EBP, [EDI+6EH], 6576654CH
006B2E89: 6C                       INSB 
006B2E8A: 2020                     AND [EAX], AH
006B2E8C: 6C                       INSB 
006B2E8D: 657665                   JBE 6B2EF5H
006B2E90: 6C                       INSB 
006B2E91: 3D22686967               CMP EAX, 67696822H
006B2E96: 6865737441               PUSH 41747365H
006B2E9B: 7661                     JBE 6B2EFEH
006B2E9D: 696C61626C652220         IMUL EBP, [ECX+*2]
006B2EA5: 7569                     JNZ 6B2F10H
006B2EA7: 41                       INC ECX
006B2EA8: 636365                   ARPL ESP, [EBX+65H]
006B2EAB: 7373                     JNB 6B2F20H
006B2EAD: 3D2266616C               CMP EAX, 6C616622H
006B2EB2: 7365                     JNB 6B2F19H
006B2EB4: 2220                     AND AH, [EAX]
006B2EB6: 2F                       DAS 
006B2EB7: 3E0A0A                   OR CL, DS:[EDX]
006B2EBA: 2020                     AND [EAX], AH
006B2EBC: 2020                     AND [EAX], AH
006B2EBE: 2020                     AND [EAX], AH
006B2EC0: 2020                     AND [EAX], AH
006B2EC2: 2020                     AND [EAX], AH
006B2EC4: 2020                     AND [EAX], AH
006B2EC6: 53                       PUSH EBX
006B2EC7: 7065                     JO 6B2F2EH
006B2EC9: 636966                   ARPL EBP, [ECX+66H]
006B2ECC: 7969                     JNS 6B2F37H
006B2ECE: 6E                       OUTSB 
006B2ECF: 67207265                 AND [BP+SI+65H], DH
006B2ED3: 7175                     JNO 6B2F4AH
006B2ED5: 657374                   JNB 6B2F4CH
006B2ED8: 656445                   INC EBP
006B2EDB: 7865                     JS 6B2F42H
006B2EDD: 637574                   ARPL ESI, [EBP+74H]
006B2EE0: 696F6E4C657665           IMUL EBP, [EDI+6EH], 6576654CH
006B2EE7: 6C                       INSB 
006B2EE8: 20656C                   AND [EBP+6CH], AH
006B2EEB: 656D                     INSD 
006B2EED: 656E                     OUTSB 
006B2EEF: 7420                     JZ 6B2F11H
006B2EF1: 7769                     JNBE 6B2F5CH
006B2EF3: 6C                       INSB 
006B2EF4: 6C                       INSB 
006B2EF5: 20646973                 AND [ECX+EBP*2+73H], AH
006B2EF9: 61                       POPAD 
006B2EFA: 626C6520                 BOUND EBP, [EBP+*2]
006B2EFE: 66696C6520616E           IMUL BP, [EBP+*2]
006B2F05: 64207265                 AND FS:[EDX+65H], DH
006B2F09: 6769737472792076         IMUL ESI, [BP+DI+74H], 76207972H
006B2F11: 69727475616C69           IMUL ESI, [EDX+74H], 696C6175H
006B2F18: 7A61                     JPE 6B2F7BH
006B2F1A: 7469                     JZ 6B2F85H
006B2F1C: 6F                       OUTSD 
006B2F1D: 6E                       OUTSB 
006B2F1E: 2E200A                   AND CS:[EDX], CL
006B2F21: 2020                     AND [EAX], AH
006B2F23: 2020                     AND [EAX], AH
006B2F25: 2020                     AND [EAX], AH
006B2F27: 2020                     AND [EAX], AH
006B2F29: 2020                     AND [EAX], AH
006B2F2B: 2020                     AND [EAX], AH
006B2F2D: 52                       PUSH EDX
006B2F2E: 656D                     INSD 
006B2F30: 6F                       OUTSD 
006B2F31: 7665                     JBE 6B2F98H
006B2F33: 20746869                 AND [EAX+EBP*2+69H], DH
006B2F37: 7320                     JNB 6B2F59H
006B2F39: 656C                     INSB 
006B2F3B: 656D                     INSD 
006B2F3D: 656E                     OUTSB 
006B2F3F: 7420                     JZ 6B2F61H
006B2F41: 696620796F7572           IMUL ESP, [ESI+20H], 72756F79H
006B2F48: 206170                   AND [ECX+70H], AH
006B2F4B: 706C                     JO 6B2FB9H
006B2F4D: 69636174696F6E           IMUL ESP, [EBX+61H], 6E6F6974H
006B2F54: 207265                   AND [EDX+65H], DH
006B2F57: 7175                     JNO 6B2FCEH
006B2F59: 69726573207468           IMUL ESI, [EDX+65H], 68742073H
006B2F60: 69732076697274           IMUL ESI, [EBX+20H], 74726976H
006B2F67: 7561                     JNZ 6B2FCAH
006B2F69: 6C                       INSB 
006B2F6A: 697A6174696F6E           IMUL EDI, [EDX+61H], 6E6F6974H
006B2F71: 20666F                   AND [ESI+6FH], AH
006B2F74: 7220                     JB 6B2F96H
006B2F76: 626163                   BOUND ESP, [ECX+63H]
006B2F79: 6B776172                 IMUL ESI, [EDI+61H], 72H
006B2F7D: 64730A                   JNB 6B2F8AH
006B2F80: 2020                     AND [EAX], AH
006B2F82: 2020                     AND [EAX], AH
006B2F84: 2020                     AND [EAX], AH
006B2F86: 2020                     AND [EAX], AH
006B2F88: 2020                     AND [EAX], AH
006B2F8A: 2020                     AND [EAX], AH
006B2F8C: 636F6D                   ARPL EBP, [EDI+6DH]
006B2F8F: 7061                     JO 6B2FF2H
006B2F91: 7469                     JZ 6B2FFCH
006B2F93: 62696C                   BOUND EBP, [ECX+6CH]
006B2F96: 6974792E0A202020         IMUL ESI, [ECX+EDI*2+2EH], 2020200AH
006B2F9E: 2020                     AND [EAX], AH
006B2FA0: 2020                     AND [EAX], AH
006B2FA2: 202D2D3E0A20             AND [200A3E2DH], CH
006B2FA8: 2020                     AND [EAX], AH
006B2FAA: 2020                     AND [EAX], AH
006B2FAC: 2020                     AND [EAX], AH
006B2FAE: 203C72                   AND [EDX+ESI*2], BH
006B2FB1: 657175                   JNO 6B3029H
006B2FB4: 657374                   JNB 6B302BH
006B2FB7: 656445                   INC EBP
006B2FBA: 7865                     JS 6B3021H
006B2FBC: 637574                   ARPL ESI, [EBP+74H]
006B2FBF: 696F6E4C657665           IMUL EBP, [EDI+6EH], 6576654CH
006B2FC6: 6C                       INSB 
006B2FC7: 206C6576                 AND CH, [EBP+*2]
006B2FCB: 656C                     INSB 
006B2FCD: 3D22726571               CMP EAX, 71657222H
006B2FD2: 7569                     JNZ 6B303DH
006B2FD4: 7265                     JB 6B303BH
006B2FD6: 41                       INC ECX
006B2FD7: 646D                     INSD 
006B2FD9: 696E6973747261           IMUL EBP, [ESI+69H], 61727473H
006B2FE0: 746F                     JZ 6B3051H
006B2FE2: 7222                     JB 6B3006H
006B2FE4: 207569                   AND [EBP+69H], DH
006B2FE7: 41                       INC ECX
006B2FE8: 636365                   ARPL ESP, [EBX+65H]
006B2FEB: 7373                     JNB 6B3060H
006B2FED: 3D2266616C               CMP EAX, 6C616622H
006B2FF2: 7365                     JNB 6B3059H
006B2FF4: 2220                     AND AH, [EAX]
006B2FF6: 2F                       DAS 
006B2FF7: 3E0A20                   OR AH, DS:[EAX]
006B2FFA: 2020                     AND [EAX], AH
006B2FFC: 2020                     AND [EAX], AH
006B2FFE: 203C2F                   AND [EDI+EBP], BH
006B3001: 7265                     JB 6B3068H
006B3003: 7175                     JNO 6B307AH
006B3005: 657374                   JNB 6B307CH
006B3008: 656450                   PUSH EAX
006B300B: 7269                     JB 6B3076H
006B300D: 7669                     JBE 6B3078H
006B300F: 6C                       INSB 
006B3010: 656765733E               JNB 6B3053H
006B3015: 0A20                     OR AH, [EAX]
006B3017: 2020                     AND [EAX], AH
006B3019: 203C2F                   AND [EDI+EBP], BH
006B301C: 7365                     JNB 6B3083H
006B301E: 637572                   ARPL ESI, [EBP+72H]
006B3021: 6974793E0A20203C         IMUL ESI, [ECX+EDI*2+3EH], 3C20200AH
006B3029: 2F                       DAS 
006B302A: 7472                     JZ 6B309EH
006B302C: 7573                     JNZ 6B30A1H
006B302E: 7449                     JZ 6B3079H
006B3030: 6E                       OUTSB 
006B3031: 666F                     OUTSW 
006B3033: 3E0A0A                   OR CL, DS:[EDX]
006B3036: 2020                     AND [EAX], AH
006B3038: 3C63                     CMP AL, 63H
006B303A: 6F                       OUTSD 
006B303B: 6D                       INSD 
006B303C: 7061                     JO 6B309FH
006B303E: 7469                     JZ 6B30A9H
006B3040: 62696C                   BOUND EBP, [ECX+6CH]
006B3043: 69747920786D6C6E         IMUL ESI, [ECX+EDI*2+20H], 6E6C6D78H
006B304B: 733D                     JNB 6B308AH
006B304D: 227572                   AND DH, [EBP+72H]
006B3050: 6E                       OUTSB 
006B3051: 3A7363                   CMP DH, [EBX+63H]
006B3054: 68656D6173               PUSH 73616D65H
006B3059: 2D6D696372               SUB EAX, 7263696DH
006B305E: 6F                       OUTSD 
006B305F: 736F                     JNB 6B30D0H
006B3061: 66742D                   JZ 3091H
006B3064: 636F6D                   ARPL EBP, [EDI+6DH]
006B3067: 3A636F                   CMP AH, [EBX+6FH]
006B306A: 6D                       INSD 
006B306B: 7061                     JO 6B30CEH
006B306D: 7469                     JZ 6B30D8H
006B306F: 62696C                   BOUND EBP, [ECX+6CH]
006B3072: 6974792E7631223E         IMUL ESI, [ECX+EDI*2+2EH], 3E223176H
006B307A: 0A20                     OR AH, [EAX]
006B307C: 2020                     AND [EAX], AH
006B307E: 203C61                   AND BH, [ECX+*2]
006B3081: 7070                     JO 6B30F3H
006B3083: 6C                       INSB 
006B3084: 69636174696F6E           IMUL ESP, [EBX+61H], 6E6F6974H
006B308B: 3E0A20                   OR AH, DS:[EAX]
006B308E: 2020                     AND [EAX], AH
006B3090: 2020                     AND [EAX], AH
006B3092: 203C21                   AND [ECX+], BH
006B3095: 2D2D204120               SUB EAX, 2041202DH
006B309A: 6C                       INSB 
006B309B: 697374206F6620           IMUL ESI, [EBX+74H], 20666F20H
006B30A2: 7468                     JZ 6B310CH
006B30A4: 65205769                 AND GS:[EDI+69H], DL
006B30A8: 6E                       OUTSB 
006B30A9: 646F                     OUTSD 
006B30AB: 7773                     JNBE 6B3120H
006B30AD: 207665                   AND [ESI+65H], DH
006B30B0: 7273                     JB 6B3125H
006B30B2: 696F6E73207468           IMUL EBP, [EDI+6EH], 68742073H
006B30B9: 61                       POPAD 
006B30BA: 7420                     JZ 6B30DCH
006B30BC: 7468                     JZ 6B3126H
006B30BE: 6973206170706C           IMUL ESI, [EBX+20H], 6C707061H
006B30C5: 69636174696F6E           IMUL ESP, [EBX+61H], 6E6F6974H
006B30CC: 206861                   AND [EAX+61H], CH
006B30CF: 7320                     JNB 6B30F1H
006B30D1: 626565                   BOUND ESP, [EBP+65H]
006B30D4: 6E                       OUTSB 
006B30D5: 20746573                 AND DH, [EBP+*2]
006B30D9: 7465                     JZ 6B3140H
006B30DB: 64206F6E                 AND FS:[EDI+6EH], CH
006B30DF: 20616E                   AND [ECX+6EH], AH
006B30E2: 64206973                 AND FS:[ECX+73H], CH
006B30E6: 0A20                     OR AH, [EAX]
006B30E8: 2020                     AND [EAX], AH
006B30EA: 2020                     AND [EAX], AH
006B30EC: 2020                     AND [EAX], AH
006B30EE: 2020                     AND [EAX], AH
006B30F0: 2020                     AND [EAX], AH
006B30F2: 69732064657369           IMUL ESI, [EBX+20H], 69736564H
006B30F9: 676E                     OUTSB 
006B30FB: 656420746F20             AND FS:[EDI+EBP*2+20H], DH
006B3101: 776F                     JNBE 6B3172H
006B3103: 726B                     JB 6B3170H
006B3105: 207769                   AND [EDI+69H], DH
006B3108: 7468                     JZ 6B3172H
006B310A: 2E20556E                 AND CS:[EBP+6EH], DL
006B310E: 636F6D                   ARPL EBP, [EDI+6DH]
006B3111: 6D                       INSD 
006B3112: 656E                     OUTSB 
006B3114: 7420                     JZ 6B3136H
006B3116: 7468                     JZ 6B3180H
006B3118: 65206170                 AND GS:[ECX+70H], AH
006B311C: 7072                     JO 6B3190H
006B311E: 6F                       OUTSD 
006B311F: 7072                     JO 6B3193H
006B3121: 6961746520656C           IMUL ESP, [ECX+74H], 6C652065H
006B3128: 656D                     INSD 
006B312A: 656E                     OUTSB 
006B312C: 7473                     JZ 6B31A1H
006B312E: 20616E                   AND [ECX+6EH], AH
006B3131: 64205769                 AND FS:[EDI+69H], DL
006B3135: 6E                       OUTSB 
006B3136: 646F                     OUTSD 
006B3138: 7773                     JNBE 6B31ADH
006B313A: 207769                   AND [EDI+69H], DH
006B313D: 6C                       INSB 
006B313E: 6C                       INSB 
006B313F: 200A                     AND [EDX], CL
006B3141: 2020                     AND [EAX], AH
006B3143: 2020                     AND [EAX], AH
006B3145: 2020                     AND [EAX], AH
006B3147: 2020                     AND [EAX], AH
006B3149: 2020                     AND [EAX], AH
006B314B: 206175                   AND [ECX+75H], AH
006B314E: 746F                     JZ 6B31BFH
006B3150: 6D                       INSD 
006B3151: 61                       POPAD 
006B3152: 7469                     JZ 6B31BDH
006B3154: 63616C                   ARPL ESP, [ECX+6CH]
006B3157: 6C                       INSB 
006B3158: 7920                     JNS 6B317AH
006B315A: 7365                     JNB 6B31C1H
006B315C: 6C                       INSB 
006B315D: 6563746564               ARPL ESI, GS:[EBP+*2]
006B3162: 20746865                 AND [EAX+EBP*2+65H], DH
006B3166: 206D6F                   AND [EBP+6FH], CH
006B3169: 7374                     JNB 6B31DFH
006B316B: 20636F                   AND [EBX+6FH], AH
006B316E: 6D                       INSD 
006B316F: 7061                     JO 6B31D2H
006B3171: 7469                     JZ 6B31DCH
006B3173: 626C6520                 BOUND EBP, [EBP+*2]
006B3177: 656E                     OUTSB 
006B3179: 7669                     JBE 6B31E4H
006B317B: 726F                     JB 6B31ECH
006B317D: 6E                       OUTSB 
006B317E: 6D                       INSD 
006B317F: 656E                     OUTSB 
006B3181: 742E                     JZ 6B31B1H
006B3183: 202D2D3E0A0A             AND [0A0A3E2DH], CH
006B3189: 2020                     AND [EAX], AH
006B318B: 2020                     AND [EAX], AH
006B318D: 2020                     AND [EAX], AH
006B318F: 3C21                     CMP AL, 21H
006B3191: 2D2D205769               SUB EAX, 6957202DH
006B3196: 6E                       OUTSB 
006B3197: 646F                     OUTSD 
006B3199: 7773                     JNBE 6B320EH
006B319B: 205669                   AND [ESI+69H], DL
006B319E: 7374                     JNB 6B3214H
006B31A0: 61                       POPAD 
006B31A1: 202D2D3E0A20             AND [200A3E2DH], CH
006B31A7: 2020                     AND [EAX], AH
006B31A9: 2020                     AND [EAX], AH
006B31AB: 203C21                   AND [ECX+], BH
006B31AE: 2D2D3C7375               SUB EAX, 75733C2DH
006B31B3: 7070                     JO 6B3225H
006B31B5: 6F                       OUTSD 
006B31B6: 7274                     JB 6B322CH
006B31B8: 65644F                   DEC EDI
006B31BB: 53                       PUSH EBX
006B31BC: 204964                   AND [ECX+64H], CL
006B31BF: 3D227B6532               CMP EAX, 32657B22H
006B31C4: 3031                     XOR [ECX], DH
006B31C6: 313435372D3135           XOR [ESI+35312D37H], ESI
006B31CD: 3436                     XOR AL, 36H
006B31CF: 2D34336335               SUB EAX, 35633334H
006B31D4: 2D61356665               SUB EAX, 65663561H
006B31D9: 2D30303864               SUB EAX, 64383030H
006B31DE: 65656533643366           XOR ESP, GS:[EBX+ESI+66H]
006B31E5: 307D22                   XOR [EBP+22H], BH
006B31E8: 202F                     AND [EDI], CH
006B31EA: 3E2D2D3E0A0A             SUB EAX, 0A0A3E2DH
006B31F0: 2020                     AND [EAX], AH
006B31F2: 2020                     AND [EAX], AH
006B31F4: 2020                     AND [EAX], AH
006B31F6: 3C21                     CMP AL, 21H
006B31F8: 2D2D205769               SUB EAX, 6957202DH
006B31FD: 6E                       OUTSB 
006B31FE: 646F                     OUTSD 
006B3200: 7773                     JNBE 6B3275H
006B3202: 2037                     AND [EDI], DH
006B3204: 202D2D3E0A20             AND [200A3E2DH], CH
006B320A: 2020                     AND [EAX], AH
006B320C: 2020                     AND [EAX], AH
006B320E: 203C21                   AND [ECX+], BH
006B3211: 2D2D3C7375               SUB EAX, 75733C2DH
006B3216: 7070                     JO 6B3288H
006B3218: 6F                       OUTSD 
006B3219: 7274                     JB 6B328FH
006B321B: 65644F                   DEC EDI
006B321E: 53                       PUSH EBX
006B321F: 204964                   AND [ECX+64H], CL
006B3222: 3D227B3335               CMP EAX, 35337B22H
006B3227: 3133                     XOR [EBX], ESI
006B3229: 386239                   CMP [EDX+39H], AH
006B322C: 61                       POPAD 
006B322D: 2D35643936               SUB EAX, 36396435H
006B3232: 2D34666264               SUB EAX, 64626634H
006B3237: 2D38653264               SUB EAX, 64326538H
006B323C: 2D61323434               SUB EAX, 34343261H
006B3241: 3032                     XOR [EDX], DH
006B3243: 323566393361             XOR DH, [61333966H]
006B3249: 7D22                     JNL 6B326DH
006B324B: 202F                     AND [EDI], CH
006B324D: 3E2D2D3E0A0A             SUB EAX, 0A0A3E2DH
006B3253: 2020                     AND [EAX], AH
006B3255: 2020                     AND [EAX], AH
006B3257: 2020                     AND [EAX], AH
006B3259: 3C21                     CMP AL, 21H
006B325B: 2D2D205769               SUB EAX, 6957202DH
006B3260: 6E                       OUTSB 
006B3261: 646F                     OUTSD 
006B3263: 7773                     JNBE 6B32D8H
006B3265: 2038                     AND [EAX], BH
006B3267: 202D2D3E0A20             AND [200A3E2DH], CH
006B326D: 2020                     AND [EAX], AH
006B326F: 2020                     AND [EAX], AH
006B3271: 203C21                   AND [ECX+], BH
006B3274: 2D2D3C7375               SUB EAX, 75733C2DH
006B3279: 7070                     JO 6B32EBH
006B327B: 6F                       OUTSD 
006B327C: 7274                     JB 6B32F2H
006B327E: 65644F                   DEC EDI
006B3281: 53                       PUSH EBX
006B3282: 204964                   AND [ECX+64H], CL
006B3285: 3D227B3461               CMP EAX, 61347B22H
006B328A: 326632                   XOR AH, [ESI+32H]
006B328D: 386533                   CMP [EBP+33H], AH
006B3290: 2D35336239               SUB EAX, 39623335H
006B3295: 2D34343431               SUB EAX, 31343434H
006B329A: 2D62613963               SUB EAX, 63396162H
006B329F: 2D64363964               SUB EAX, 64393664H
006B32A4: 3461                     XOR AL, 61H
006B32A6: 3461                     XOR AL, 61H
006B32A8: 36653338                 XOR EDI, GS:[EAX]
006B32AC: 7D22                     JNL 6B32D0H
006B32AE: 202F                     AND [EDI], CH
006B32B0: 3E2D2D3E0A0A             SUB EAX, 0A0A3E2DH
006B32B6: 2020                     AND [EAX], AH
006B32B8: 2020                     AND [EAX], AH
006B32BA: 2020                     AND [EAX], AH
006B32BC: 3C21                     CMP AL, 21H
006B32BE: 2D2D205769               SUB EAX, 6957202DH
006B32C3: 6E                       OUTSB 
006B32C4: 646F                     OUTSD 
006B32C6: 7773                     JNBE 6B333BH
006B32C8: 2038                     AND [EAX], BH
006B32CA: 2E3120                   XOR CS:[EAX], ESP
006B32CD: 2D2D3E0A20               SUB EAX, 200A3E2DH
006B32D2: 2020                     AND [EAX], AH
006B32D4: 2020                     AND [EAX], AH
006B32D6: 203C21                   AND [ECX+], BH
006B32D9: 2D2D3C7375               SUB EAX, 75733C2DH
006B32DE: 7070                     JO 6B3350H
006B32E0: 6F                       OUTSD 
006B32E1: 7274                     JB 6B3357H
006B32E3: 65644F                   DEC EDI
006B32E6: 53                       PUSH EBX
006B32E7: 204964                   AND [ECX+64H], CL
006B32EA: 3D227B3166               CMP EAX, 66317B22H
006B32EF: 3637                     AAA 
006B32F1: 366337                   ARPL ESI, SS:[EDI]
006B32F4: 362D38306531             SUB EAX, 31653038H
006B32FA: 2D34323339               SUB EAX, 39333234H
006B32FF: 2D39356262               SUB EAX, 62623539H
006B3304: 2D38336430               SUB EAX, 30643338H
006B3309: 66366430646137           XOR AH, FS:[ECX+*2]
006B3310: 387D22                   CMP [EBP+22H], BH
006B3313: 202F                     AND [EDI], CH
006B3315: 3E2D2D3E0A0A             SUB EAX, 0A0A3E2DH
006B331B: 2020                     AND [EAX], AH
006B331D: 2020                     AND [EAX], AH
006B331F: 2020                     AND [EAX], AH
006B3321: 3C21                     CMP AL, 21H
006B3323: 2D2D205769               SUB EAX, 6957202DH
006B3328: 6E                       OUTSB 
006B3329: 646F                     OUTSD 
006B332B: 7773                     JNBE 6B33A0H
006B332D: 2031                     AND [ECX], DH
006B332F: 3020                     XOR [EAX], AH
006B3331: 2D2D3E0A20               SUB EAX, 200A3E2DH
006B3336: 2020                     AND [EAX], AH
006B3338: 2020                     AND [EAX], AH
006B333A: 203C21                   AND [ECX+], BH
006B333D: 2D2D3C7375               SUB EAX, 75733C2DH
006B3342: 7070                     JO 6B33B4H
006B3344: 6F                       OUTSD 
006B3345: 7274                     JB 6B33BBH
006B3347: 65644F                   DEC EDI
006B334A: 53                       PUSH EBX
006B334B: 204964                   AND [ECX+64H], CL
006B334E: 3D227B3865               CMP EAX, 65387B22H
006B3353: 306637                   XOR [ESI+37H], AH
006B3356: 61                       POPAD 
006B3357: 3132                     XOR [EDX], ESI
006B3359: 2D62666233               SUB EAX, 33626662H
006B335E: 2D34666538               SUB EAX, 38656634H
006B3363: 2D62396135               SUB EAX, 35613962H
006B3368: 2D34386664               SUB EAX, 64663834H
006B336D: 3530613135               XOR EAX, 35316130H
006B3372: 61                       POPAD 
006B3373: 39617D                   CMP [ECX+7DH], ESP
006B3376: 2220                     AND AH, [EAX]
006B3378: 2F                       DAS 
006B3379: 3E2D2D3E0A0A             SUB EAX, 0A0A3E2DH
006B337F: 2020                     AND [EAX], AH
006B3381: 2020                     AND [EAX], AH
006B3383: 3C2F                     CMP AL, 2FH
006B3385: 61                       POPAD 
006B3386: 7070                     JO 6B33F8H
006B3388: 6C                       INSB 
006B3389: 69636174696F6E           IMUL ESP, [EBX+61H], 6E6F6974H
006B3390: 3E0A20                   OR AH, DS:[EAX]
006B3393: 203C2F                   AND [EDI+EBP], BH
006B3396: 636F6D                   ARPL EBP, [EDI+6DH]
006B3399: 7061                     JO 6B33FCH
006B339B: 7469                     JZ 6B3406H
006B339D: 62696C                   BOUND EBP, [ECX+6CH]
006B33A0: 6974793E0A0A2020         IMUL ESI, [ECX+EDI*2+3EH], 20200A0AH
006B33A8: 3C21                     CMP AL, 21H
006B33AA: 2D2D20496E               SUB EAX, 6E49202DH
006B33AF: 6469636174657320         IMUL ESP, FS:[EBX+61H], 20736574H
006B33B7: 7468                     JZ 6B3421H
006B33B9: 61                       POPAD 
006B33BA: 7420                     JZ 6B33DCH
006B33BC: 7468                     JZ 6B3426H
006B33BE: 65206170                 AND GS:[ECX+70H], AH
006B33C2: 706C                     JO 6B3430H
006B33C4: 69636174696F6E           IMUL ESP, [EBX+61H], 6E6F6974H
006B33CB: 206973                   AND [ECX+73H], CH
006B33CE: 20445049                 AND [EAX+EDX*2+49H], AL
006B33D2: 2D61776172               SUB EAX, 72617761H
006B33D7: 6520616E                 AND GS:[ECX+6EH], AH
006B33DB: 64207769                 AND FS:[EDI+69H], DH
006B33DF: 6C                       INSB 
006B33E0: 6C                       INSB 
006B33E1: 206E6F                   AND [ESI+6FH], CH
006B33E4: 7420                     JZ 6B3406H
006B33E6: 626520                   BOUND ESP, [EBP+20H]
006B33E9: 61                       POPAD 
006B33EA: 7574                     JNZ 6B3460H
006B33EC: 6F                       OUTSD 
006B33ED: 6D                       INSD 
006B33EE: 61                       POPAD 
006B33EF: 7469                     JZ 6B345AH
006B33F1: 63616C                   ARPL ESP, [ECX+6CH]
006B33F4: 6C                       INSB 
006B33F5: 7920                     JNS 6B3417H
006B33F7: 7363                     JNB 6B345CH
006B33F9: 61                       POPAD 
006B33FA: 6C                       INSB 
006B33FB: 6564206279               AND FS:[EDX+79H], AH
006B3400: 205769                   AND [EDI+69H], DL
006B3403: 6E                       OUTSB 
006B3404: 646F                     OUTSD 
006B3406: 7773                     JNBE 6B347BH
006B3408: 206174                   AND [ECX+74H], AH
006B340B: 206869                   AND [EAX+69H], CH
006B340E: 676865720A20             PUSH 200A7265H
006B3414: 2020                     AND [EAX], AH
006B3416: 2020                     AND [EAX], AH
006B3418: 2020                     AND [EAX], AH
006B341A: 44                       INC ESP
006B341B: 50                       PUSH EAX
006B341C: 49                       DEC ECX
006B341D: 732E                     JNB 6B344DH
006B341F: 205769                   AND [EDI+69H], DL
006B3422: 6E                       OUTSB 
006B3423: 646F                     OUTSD 
006B3425: 7773                     JNBE 6B349AH
006B3427: 205072                   AND [EAX+72H], DL
006B342A: 657365                   JNB 6B3492H
006B342D: 6E                       OUTSB 
006B342E: 7461                     JZ 6B3491H
006B3430: 7469                     JZ 6B349BH
006B3432: 6F                       OUTSD 
006B3433: 6E                       OUTSB 
006B3434: 20466F                   AND [ESI+6FH], AL
006B3437: 756E                     JNZ 6B34A7H
006B3439: 6461                     POPAD 
006B343B: 7469                     JZ 6B34A6H
006B343D: 6F                       OUTSD 
006B343E: 6E                       OUTSB 
006B343F: 2028                     AND [EAX], CH
006B3441: 57                       PUSH EDI
006B3442: 50                       PUSH EAX
006B3443: 46                       INC ESI
006B3444: 2920                     SUB [EAX], ESP
006B3446: 61                       POPAD 
006B3447: 7070                     JO 6B34B9H
006B3449: 6C                       INSB 
006B344A: 69636174696F6E           IMUL ESP, [EBX+61H], 6E6F6974H
006B3451: 7320                     JNB 6B3473H
006B3453: 61                       POPAD 
006B3454: 7265                     JB 6B34BBH
006B3456: 206175                   AND [ECX+75H], AH
006B3459: 746F                     JZ 6B34CAH
006B345B: 6D                       INSD 
006B345C: 61                       POPAD 
006B345D: 7469                     JZ 6B34C8H
006B345F: 63616C                   ARPL ESP, [ECX+6CH]
006B3462: 6C                       INSB 
006B3463: 7920                     JNS 6B3485H
006B3465: 44                       INC ESP
006B3466: 50                       PUSH EAX
006B3467: 49                       DEC ECX
006B3468: 2D61776172               SUB EAX, 72617761H
006B346D: 6520616E                 AND GS:[ECX+6EH], AH
006B3471: 6420646F20               AND FS:[EDI+EBP*2+20H], AH
006B3476: 6E                       OUTSB 
006B3477: 6F                       OUTSD 
006B3478: 7420                     JZ 6B349AH
006B347A: 6E                       OUTSB 
006B347B: 656564200A               AND FS:[EDX], CL
006B3480: 2020                     AND [EAX], AH
006B3482: 2020                     AND [EAX], AH
006B3484: 2020                     AND [EAX], AH
006B3486: 20746F20                 AND [EDI+EBP*2+20H], DH
006B348A: 6F                       OUTSD 
006B348B: 7074                     JO 6B3501H
006B348D: 20696E                   AND [ECX+6EH], CH
006B3490: 2E205769                 AND CS:[EDI+69H], DL
006B3494: 6E                       OUTSB 
006B3495: 646F                     OUTSD 
006B3497: 7773                     JNBE 6B350CH
006B3499: 20466F                   AND [ESI+6FH], AL
006B349C: 726D                     JB 6B350BH
006B349E: 7320                     JNB 6B34C0H
006B34A0: 61                       POPAD 
006B34A1: 7070                     JO 6B3513H
006B34A3: 6C                       INSB 
006B34A4: 69636174696F6E           IMUL ESP, [EBX+61H], 6E6F6974H
006B34AB: 7320                     JNB 6B34CDH
006B34AD: 7461                     JZ 6B3510H
006B34AF: 7267                     JB 6B3518H
006B34B1: 657469                   JZ 6B351DH
006B34B4: 6E                       OUTSB 
006B34B5: 67202E4E45               AND 00H
006B34BA: 54                       PUSH ESP
006B34BB: 204672                   AND [ESI+72H], AL
006B34BE: 61                       POPAD 
006B34BF: 6D                       INSD 
006B34C0: 65776F                   JNBE 6B3532H
006B34C3: 726B                     JB 6B3530H
006B34C5: 20342E                   AND [ESI+EBP], DH
006B34C8: 3620746861               AND SS:[EAX+EBP*2+61H], DH
006B34CD: 7420                     JZ 6B34EFH
006B34CF: 6F                       OUTSD 
006B34D0: 7074                     JO 6B3546H
006B34D2: 20696E                   AND [ECX+6EH], CH
006B34D5: 746F                     JZ 6B3546H
006B34D7: 20746869                 AND [EAX+EBP*2+69H], DH
006B34DB: 7320                     JNB 6B34FDH
006B34DD: 7365                     JNB 6B3544H
006B34DF: 7474                     JZ 6B3555H
006B34E1: 696E672C207368           IMUL EBP, [ESI+67H], 6873202CH
006B34E8: 6F                       OUTSD 
006B34E9: 756C                     JNZ 6B3557H
006B34EB: 64200A                   AND FS:[EDX], CL
006B34EE: 2020                     AND [EAX], AH
006B34F0: 2020                     AND [EAX], AH
006B34F2: 2020                     AND [EAX], AH
006B34F4: 20616C                   AND [ECX+6CH], AH
006B34F7: 736F                     JNB 6B3568H
006B34F9: 207365                   AND [EBX+65H], DH
006B34FC: 7420                     JZ 6B351EH
006B34FE: 7468                     JZ 6B3568H
006B3500: 652027                   AND GS:[EDI], AH
006B3503: 45                       INC EBP
006B3504: 6E                       OUTSB 
006B3505: 61                       POPAD 
006B3506: 626C6557                 BOUND EBP, [EBP+*2]
006B350A: 696E646F777346           IMUL EBP, [ESI+64H], 4673776FH
006B3511: 6F                       OUTSD 
006B3512: 726D                     JB 6B3581H
006B3514: 7348                     JNB 6B355EH
006B3516: 69676844706941           IMUL ESP, [EDI+68H], 41697044H
006B351D: 7574                     JNZ 6B3593H
006B351F: 6F                       OUTSD 
006B3520: 52                       PUSH EDX
006B3521: 657369                   JNB 6B358DH
006B3524: 7A69                     JPE 6B358FH
006B3526: 6E                       OUTSB 
006B3527: 6727                     DAA 
006B3529: 207365                   AND [EBX+65H], DH
006B352C: 7474                     JZ 6B35A2H
006B352E: 696E6720746F20           IMUL EBP, [ESI+67H], 206F7420H
006B3535: 27                       DAA 
006B3536: 7472                     JZ 6B35AAH
006B3538: 7565                     JNZ 6B359FH
006B353A: 27                       DAA 
006B353B: 20696E                   AND [ECX+6EH], CH
006B353E: 20746865                 AND [EAX+EBP*2+65H], DH
006B3542: 6972206170702E           IMUL ESI, [EDX+20H], 2E707061H
006B3549: 636F6E                   ARPL EBP, [EDI+6EH]
006B354C: 6669672E202D             IMUL SP, [EDI+2EH], 2D20H
006B3552: 2D3E0A0A20               SUB EAX, 200A0A3EH
006B3557: 203C61                   AND BH, [ECX+*2]
006B355A: 7070                     JO 6B35CCH
006B355C: 6C                       INSB 
006B355D: 69636174696F6E           IMUL ESP, [EBX+61H], 6E6F6974H
006B3564: 20786D                   AND [EAX+6DH], BH
006B3567: 6C                       INSB 
006B3568: 6E                       OUTSB 
006B3569: 733D                     JNB 6B35A8H
006B356B: 227572                   AND DH, [EBP+72H]
006B356E: 6E                       OUTSB 
006B356F: 3A7363                   CMP DH, [EBX+63H]
006B3572: 68656D6173               PUSH 73616D65H
006B3577: 2D6D696372               SUB EAX, 7263696DH
006B357C: 6F                       OUTSD 
006B357D: 736F                     JNB 6B35EEH
006B357F: 66742D                   JZ 35AFH
006B3582: 636F6D                   ARPL EBP, [EDI+6DH]
006B3585: 3A6173                   CMP AH, [ECX+73H]
006B3588: 6D                       INSD 
006B3589: 2E7633                   JBE 6B35BFH
006B358C: 223E                     AND BH, [ESI]
006B358E: 0A20                     OR AH, [EAX]
006B3590: 2020                     AND [EAX], AH
006B3592: 203C77                   AND [EDI+ESI*2], BH
006B3595: 696E646F777353           IMUL EBP, [ESI+64H], 5373776FH
006B359C: 657474                   JZ 6B3613H
006B359F: 696E67733E0A20           IMUL EBP, [ESI+67H], 200A3E73H
006B35A6: 2020                     AND [EAX], AH
006B35A8: 2020                     AND [EAX], AH
006B35AA: 203C64                   AND BH, [ESP+*2]
006B35AD: 7069                     JO 6B3618H
006B35AF: 41                       INC ECX
006B35B0: 7761                     JNBE 6B3613H
006B35B2: 7265                     JB 6B3619H
006B35B4: 20786D                   AND [EAX+6DH], BH
006B35B7: 6C                       INSB 
006B35B8: 6E                       OUTSB 
006B35B9: 733D                     JNB 6B35F8H
006B35BB: 226874                   AND CH, [EAX+74H]
006B35BE: 7470                     JZ 6B3630H
006B35C0: 3A2F                     CMP CH, [EDI]
006B35C2: 2F                       DAS 
006B35C3: 7363                     JNB 6B3628H
006B35C5: 68656D6173               PUSH 73616D65H
006B35CA: 2E6D                     INSD 
006B35CC: 6963726F736F66           IMUL ESP, [EBX+72H], 666F736FH
006B35D3: 742E                     JZ 6B3603H
006B35D5: 636F6D                   ARPL EBP, [EDI+6DH]
006B35D8: 2F                       DAS 
006B35D9: 53                       PUSH EBX
006B35DA: 4D                       DEC EBP
006B35DB: 49                       DEC ECX
006B35DC: 2F                       DAS 
006B35DD: 3230                     XOR DH, [EAX]
006B35DF: 30352F57696E             XOR [6E69572FH], DH
006B35E5: 646F                     OUTSD 
006B35E7: 7773                     JNBE 6B365CH
006B35E9: 53                       PUSH EBX
006B35EA: 657474                   JZ 6B3661H
006B35ED: 696E6773223E74           IMUL EBP, [ESI+67H], 743E2273H
006B35F4: 7275                     JB 6B366BH
006B35F6: 653C2F                   CMP AL, 2FH
006B35F9: 647069                   JO 6B3665H
006B35FC: 41                       INC ECX
006B35FD: 7761                     JNBE 6B3660H
006B35FF: 7265                     JB 6B3666H
006B3601: 3E0A20                   OR AH, DS:[EAX]
006B3604: 2020                     AND [EAX], AH
006B3606: 203C2F                   AND [EDI+EBP], BH
006B3609: 7769                     JNBE 6B3674H
006B360B: 6E                       OUTSB 
006B360C: 646F                     OUTSD 
006B360E: 7773                     JNBE 6B3683H
006B3610: 53                       PUSH EBX
006B3611: 657474                   JZ 6B3688H
006B3614: 696E67733E0A20           IMUL EBP, [ESI+67H], 200A3E73H
006B361B: 203C2F                   AND [EDI+EBP], BH
006B361E: 61                       POPAD 
006B361F: 7070                     JO 6B3691H
006B3621: 6C                       INSB 
006B3622: 69636174696F6E           IMUL ESP, [EBX+61H], 6E6F6974H
006B3629: 3E0A0A                   OR CL, DS:[EDX]
006B362C: 0A20                     OR AH, [EAX]
006B362E: 203C21                   AND [ECX+], BH
006B3631: 2D2D20456E               SUB EAX, 6E45202DH
006B3636: 61                       POPAD 
006B3637: 626C6520                 BOUND EBP, [EBP+*2]
006B363B: 7468                     JZ 6B36A5H
006B363D: 656D                     INSD 
006B363F: 657320                   JNB 6B3662H
006B3642: 666F                     OUTSW 
006B3644: 7220                     JB 6B3666H
006B3646: 57                       PUSH EDI
006B3647: 696E646F777320           IMUL EBP, [ESI+64H], 2073776FH
006B364E: 636F6D                   ARPL EBP, [EDI+6DH]
006B3651: 6D                       INSD 
006B3652: 6F                       OUTSD 
006B3653: 6E                       OUTSB 
006B3654: 20636F                   AND [EBX+6FH], AH
006B3657: 6E                       OUTSB 
006B3658: 7472                     JZ 6B36CCH
006B365A: 6F                       OUTSD 
006B365B: 6C                       INSB 
006B365C: 7320                     JNB 6B367EH
006B365E: 61                       POPAD 
006B365F: 6E                       OUTSB 
006B3660: 6420646961               AND FS:[ECX+EBP*2+61H], AH
006B3665: 6C                       INSB 
006B3666: 6F                       OUTSD 
006B3667: 677320                   JNB 6B368AH
006B366A: 285769                   SUB [EDI+69H], DL
006B366D: 6E                       OUTSB 
006B366E: 646F                     OUTSD 
006B3670: 7773                     JNBE 6B36E5H
006B3672: 205850                   AND [EAX+50H], BL
006B3675: 20616E                   AND [ECX+6EH], AH
006B3678: 64206C6174               AND CH, FS:[ECX+*2]
006B367D: 657229                   JB 6B36A9H
006B3680: 202D2D3E0A0A             AND [0A0A3E2DH], CH
006B3686: 2020                     AND [EAX], AH
006B3688: 3C64                     CMP AL, 64H
006B368A: 657065                   JO 6B36F2H
006B368D: 6E                       OUTSB 
006B368E: 64656E                   OUTSB 
006B3691: 63793E                   ARPL EDI, [ECX+3EH]
006B3694: 0A20                     OR AH, [EAX]
006B3696: 2020                     AND [EAX], AH
006B3698: 203C64                   AND BH, [ESP+*2]
006B369B: 657065                   JO 6B3703H
006B369E: 6E                       OUTSB 
006B369F: 64656E                   OUTSB 
006B36A2: 7441                     JZ 6B36E5H
006B36A4: 7373                     JNB 6B3719H
006B36A6: 656D                     INSD 
006B36A8: 626C793E                 BOUND EBP, [ECX+EDI*2+3EH]
006B36AC: 0A20                     OR AH, [EAX]
006B36AE: 2020                     AND [EAX], AH
006B36B0: 2020                     AND [EAX], AH
006B36B2: 203C61                   AND BH, [ECX+*2]
006B36B5: 7373                     JNB 6B372AH
006B36B7: 656D                     INSD 
006B36B9: 626C7949                 BOUND EBP, [ECX+EDI*2+49H]
006B36BD: 64656E                   OUTSB 
006B36C0: 7469                     JZ 6B372BH
006B36C2: 7479                     JZ 6B373DH
006B36C4: 0A20                     OR AH, [EAX]
006B36C6: 2020                     AND [EAX], AH
006B36C8: 2020                     AND [EAX], AH
006B36CA: 2020                     AND [EAX], AH
006B36CC: 2020                     AND [EAX], AH
006B36CE: 20747970                 AND [ECX+EDI*2+70H], DH
006B36D2: 653D2277696E             CMP EAX, 6E697722H
006B36D8: 3332                     XOR ESI, [EDX]
006B36DA: 220A                     AND CL, [EDX]
006B36DC: 2020                     AND [EAX], AH
006B36DE: 2020                     AND [EAX], AH
006B36E0: 2020                     AND [EAX], AH
006B36E2: 2020                     AND [EAX], AH
006B36E4: 2020                     AND [EAX], AH
006B36E6: 6E                       OUTSB 
006B36E7: 61                       POPAD 
006B36E8: 6D                       INSD 
006B36E9: 653D224D6963             CMP EAX, 63694D22H
006B36EF: 726F                     JB 6B3760H
006B36F1: 736F                     JNB 6B3762H
006B36F3: 66742E                   JZ 3724H
006B36F6: 57                       PUSH EDI
006B36F7: 696E646F77732E           IMUL EBP, [ESI+64H], 2E73776FH
006B36FE: 43                       INC EBX
006B36FF: 6F                       OUTSD 
006B3700: 6D                       INSD 
006B3701: 6D                       INSD 
006B3702: 6F                       OUTSD 
006B3703: 6E                       OUTSB 
006B3704: 2D436F6E74               SUB EAX, 746E6F43H
006B3709: 726F                     JB 6B377AH
006B370B: 6C                       INSB 
006B370C: 7322                     JNB 6B3730H
006B370E: 0A20                     OR AH, [EAX]
006B3710: 2020                     AND [EAX], AH
006B3712: 2020                     AND [EAX], AH
006B3714: 2020                     AND [EAX], AH
006B3716: 2020                     AND [EAX], AH
006B3718: 207665                   AND [ESI+65H], DH
006B371B: 7273                     JB 6B3790H
006B371D: 696F6E3D22362E           IMUL EBP, [EDI+6EH], 2E36223DH
006B3724: 302E                     XOR [ESI], CH
006B3726: 302E                     XOR [ESI], CH
006B3728: 3022                     XOR [EDX], AH
006B372A: 0A20                     OR AH, [EAX]
006B372C: 2020                     AND [EAX], AH
006B372E: 2020                     AND [EAX], AH
006B3730: 2020                     AND [EAX], AH
006B3732: 2020                     AND [EAX], AH
006B3734: 207072                   AND [EAX+72H], DH
006B3737: 6F                       OUTSD 
006B3738: 636573                   ARPL ESP, [EBP+73H]
006B373B: 736F                     JNB 6B37ACH
006B373D: 7241                     JB 6B3780H
006B373F: 7263                     JB 6B37A4H
006B3741: 6869746563               PUSH 63657469H
006B3746: 7475                     JZ 6B37BDH
006B3748: 7265                     JB 6B37AFH
006B374A: 3D222A220A               CMP EAX, 0A222A22H